

Microchip MPLAB XC8 Assembler V2.41 build 20230208172133 
                                                                                               Sun May 21 11:44:16 2023

Microchip MPLAB XC8 C Compiler v2.41 (Free license) build 20230208172133 Og1 
     1                           	processor	18F4620
     2                           	fnconf	rparam,??,?,0
     3                           	pagewidth 120
     4                           	opt	flic
     5                           	psect	idataCOMRAM,global,class=CODE,delta=1,noexec
     6                           	psect	idataBANK1,global,class=CODE,delta=1,noexec
     7                           	psect	smallconst,global,reloc=2,class=SMALLCONST,delta=1,noexec
     8                           	psect	cinit,global,reloc=2,class=CODE,delta=1
     9                           	psect	bssCOMRAM,global,class=COMRAM,space=1,delta=1,lowdata,noexec
    10                           	psect	dataCOMRAM,global,class=COMRAM,space=1,delta=1,lowdata,noexec
    11                           	psect	bssBANK0,global,class=BANK0,space=1,delta=1,lowdata,noexec
    12                           	psect	bssBANK1,global,class=BANK1,space=1,delta=1,lowdata,noexec
    13                           	psect	dataBANK1,global,class=BANK1,space=1,delta=1,lowdata,noexec
    14                           	psect	cstackBANK1,global,class=BANK1,space=1,delta=1,lowdata,noexec
    15                           	psect	cstackBANK0,global,class=BANK0,space=1,delta=1,lowdata,noexec
    16                           	psect	cstackCOMRAM,global,class=COMRAM,space=1,delta=1,lowdata,noexec
    17                           	psect	text0,global,reloc=2,class=CODE,delta=1
    18                           	psect	text1,global,reloc=2,class=CODE,delta=1,group=3
    19                           	psect	text2,global,reloc=2,class=CODE,delta=1,group=1
    20                           	psect	text3,global,reloc=2,class=CODE,delta=1,group=1
    21                           	psect	text4,global,reloc=2,class=CODE,delta=1,group=3
    22                           	psect	text5,global,reloc=2,class=CODE,delta=1,group=1
    23                           	psect	text6,global,reloc=2,class=CODE,delta=1,group=3
    24                           	psect	text7,global,reloc=2,class=CODE,delta=1,group=1
    25                           	psect	text8,global,reloc=2,class=CODE,delta=1,group=2
    26                           	psect	text9,global,reloc=2,class=CODE,delta=1,group=1
    27                           	psect	text10,global,reloc=2,class=CODE,delta=1,group=3
    28                           	psect	text11,global,reloc=2,class=CODE,delta=1,group=3
    29                           	psect	text12,global,reloc=2,class=CODE,delta=1,group=3
    30                           	psect	text13,global,reloc=2,class=CODE,delta=1,group=3
    31                           	psect	text14,global,reloc=2,class=CODE,delta=1,group=3
    32                           	psect	text15,global,reloc=2,class=CODE,delta=1,group=2
    33                           	psect	text16,global,reloc=2,class=CODE,delta=1,group=2
    34                           	psect	text17,global,reloc=2,class=CODE,delta=1,group=2
    35                           	psect	text18,global,reloc=2,class=CODE,delta=1,group=2
    36                           	psect	text19,global,reloc=2,class=CODE,delta=1,group=2
    37                           	psect	text20,global,reloc=2,class=CODE,delta=1,group=2
    38                           	psect	text21,global,reloc=2,class=CODE,delta=1,group=1
    39                           	psect	text22,global,reloc=2,class=CODE,delta=1,group=1
    40                           	psect	text23,global,reloc=2,class=CODE,delta=1,group=3
    41                           	psect	text24,global,reloc=2,class=CODE,delta=1,group=3
    42                           	psect	text25,global,reloc=2,class=CODE,delta=1,group=3
    43                           	psect	text26,global,reloc=2,class=CODE,delta=1,group=3
    44                           	psect	text27,global,reloc=2,class=CODE,delta=1,group=2
    45                           	psect	text28,global,reloc=2,class=CODE,delta=1,group=2
    46                           	psect	text29,global,reloc=2,class=CODE,delta=1
    47                           	psect	text30,global,reloc=2,class=CODE,delta=1
    48                           	psect	text31,global,reloc=2,class=CODE,delta=1
    49                           	psect	text32,global,reloc=2,class=CODE,delta=1,group=2
    50                           	psect	text33,global,reloc=2,class=CODE,delta=1,group=2
    51                           	psect	text34,global,reloc=2,class=CODE,delta=1,group=2
    52                           	psect	text35,global,reloc=2,class=CODE,delta=1
    53                           	psect	text36,global,reloc=2,class=CODE,delta=1
    54                           	psect	text37,global,reloc=2,class=CODE,delta=1
    55                           	psect	text38,global,reloc=2,class=CODE,delta=1
    56                           	psect	text39,global,reloc=2,class=CODE,delta=1
    57                           	psect	text40,global,reloc=2,class=CODE,delta=1
    58                           	psect	text41,global,reloc=2,class=CODE,delta=1
    59                           	psect	text42,global,reloc=2,class=CODE,delta=1
    60                           	psect	text43,global,reloc=2,class=CODE,delta=1
    61                           	psect	text44,global,reloc=2,class=CODE,delta=1
    62                           	psect	text45,global,reloc=2,class=CODE,delta=1
    63                           	psect	intcode,global,reloc=2,class=CODE,delta=1
    64                           	psect	intcode_body,global,reloc=2,class=CODE,delta=1
    65                           	psect	text47,global,reloc=2,class=CODE,delta=1
    66                           	psect	text48,global,reloc=2,class=CODE,delta=1
    67                           	psect	text49,global,reloc=2,class=CODE,delta=1
    68                           	psect	text50,global,reloc=2,class=CODE,delta=1
    69                           	psect	text51,global,reloc=2,class=CODE,delta=1
    70                           	psect	text52,global,reloc=2,class=CODE,delta=1
    71                           	psect	text53,global,reloc=2,class=CODE,delta=1
    72                           	psect	text54,global,reloc=2,class=CODE,delta=1
    73                           	psect	intsave_regs,global,class=BIGRAM,space=1,delta=1,noexec
    74                           	psect	rparam,global,class=COMRAM,space=1,delta=1,noexec
    75                           	psect	temp,global,ovrld,common,class=COMRAM,space=1,delta=1
    76                           	psect	idloc,global,abs,ovrld,class=IDLOC,space=5,delta=1,noexec
    77                           	psect	config,global,abs,ovrld,class=CONFIG,space=4,delta=1,noexec
    78   000000                     
    79                           ; Version 2.40
    80                           ; Generated 17/11/2021 GMT
    81                           ; 
    82                           ; Copyright © 2021, Microchip Technology Inc. and its subsidiaries ("Microchip")
    83                           ; All rights reserved.
    84                           ; 
    85                           ; This software is developed by Microchip Technology Inc. and its subsidiaries ("Microch
      +                          ip").
    86                           ; 
    87                           ; Redistribution and use in source and binary forms, with or without modification, are
    88                           ; permitted provided that the following conditions are met:
    89                           ; 
    90                           ;     1. Redistributions of source code must retain the above copyright notice, this lis
      +                          t of
    91                           ;        conditions and the following disclaimer.
    92                           ; 
    93                           ;     2. Redistributions in binary form must reproduce the above copyright notice, this 
      +                          list
    94                           ;        of conditions and the following disclaimer in the documentation and/or other
    95                           ;        materials provided with the distribution. Publication is not required when
    96                           ;        this file is used in an embedded application.
    97                           ; 
    98                           ;     3. Microchip's name may not be used to endorse or promote products derived from th
      +                          is
    99                           ;        software without specific prior written permission.
   100                           ; 
   101                           ; THIS SOFTWARE IS PROVIDED BY MICROCHIP "AS IS" AND ANY EXPRESS OR IMPLIED WARRANTIES,
   102                           ; INCLUDING, BUT NOT LIMITED TO, THE IMPLIED WARRANTIES OF MERCHANTABILITY AND FITNESS F
      +                          OR
   103                           ; PURPOSE ARE DISCLAIMED.  IN NO EVENT SHALL MICROCHIP BE LIABLE FOR ANY DIRECT, INDIREC
      +                          T,
   104                           ; INCIDENTAL, SPECIAL, EXEMPLARY, OR CONSEQUENTIAL DAMAGES (INCLUDING BUT NOT LIMITED TO
   105                           ; PROCUREMENT OF SUBSTITUTE GOODS OR SERVICES; LOSS OF USE, DATA OR PROFITS; OR BUSINESS
   106                           ; INTERRUPTION) HOWSOEVER CAUSED AND ON ANY THEORY OF LIABILITY, WHETHER IN CONTRACT, ST
      +                          RICT
   107                           ; LIABILITY, OR TORT (INCLUDING NEGLIGENCE OR OTHERWISE) ARISING IN ANY WAY OUT OF THE U
      +                          SE OF
   108                           ; THIS SOFTWARE, EVEN IF ADVISED OF THE POSSIBILITY OF SUCH DAMAGE.
   109                           ; 
   110                           ; 
   111                           ; Code-generator required, PIC18F4620 Definitions
   112                           ; 
   113                           ; SFR Addresses
   114   000000                     
   115                           	psect	idataCOMRAM
   116   004EA5                     __pidataCOMRAM:
   117                           	callstack 0
   118                           
   119                           ;initializer for _LCD_INIT_STRING
   120   004EA5  28                 	db	40
   121   004EA6  0C                 	db	12
   122   004EA7  01                 	db	1
   123   004EA8  06                 	db	6
   124                           
   125                           	psect	idataBANK1
   126   004E9E                     __pidataBANK1:
   127                           	callstack 0
   128                           
   129                           ;initializer for stoa@F1179
   130   004E9E  28                 	db	40
   131   004E9F  6E                 	db	110
   132   004EA0  75                 	db	117
   133   004EA1  6C                 	db	108
   134   004EA2  6C                 	db	108
   135   004EA3  29                 	db	41
   136   004EA4  00                 	db	0
   137   000000                     _ADRESL	set	4035
   138   000000                     _ADRESH	set	4036
   139   000000                     _TXREG	set	4013
   140   000000                     _RCREG	set	4014
   141   000000                     _SPBRGH	set	4016
   142   000000                     _SPBRG	set	4015
   143   000000                     _ADCON0bits	set	4034
   144   000000                     _TRISCbits	set	3988
   145   000000                     _RCSTAbits	set	4011
   146   000000                     _TXSTAbits	set	4012
   147   000000                     _INTCON3bits	set	4080
   148   000000                     _INTCON2bits	set	4081
   149   000000                     _T0CONbits	set	4053
   150   000000                     _PORTBbits	set	3969
   151   000000                     _PORTCbits	set	3970
   152   000000                     _TMR3L	set	4018
   153   000000                     _TMR3H	set	4019
   154   000000                     _TMR0L	set	4054
   155   000000                     _TMR0H	set	4055
   156   000000                     _INTCON3	set	4080
   157   000000                     _INTCON2	set	4081
   158   000000                     _INTCONbits	set	4082
   159   000000                     _BAUDCONbits	set	4024
   160   000000                     _ADCON1	set	4033
   161   000000                     _ADCON0	set	4034
   162   000000                     _T1CONbits	set	4045
   163   000000                     _T0CON	set	4053
   164   000000                     _RCONbits	set	4048
   165   000000                     _PORTEbits	set	3972
   166   000000                     _TRISA	set	3986
   167   000000                     _TRISB	set	3987
   168   000000                     _T3CONbits	set	4017
   169   000000                     _PIR1bits	set	3998
   170   000000                     _PIR2bits	set	4001
   171   000000                     _TRISE	set	3990
   172   000000                     _TRISD	set	3989
   173   000000                     _TRISC	set	3988
   174   000000                     _RCSTA	set	4011
   175   000000                     _TXSTA	set	4012
   176   000000                     _ADCON2	set	4032
   177                           
   178                           	psect	smallconst
   179   001000                     __psmallconst:
   180                           	callstack 0
   181   001000  00                 	db	0
   182   001001                     STR_1:
   183   001001  53                 	db	83	;'S'
   184   001002  50                 	db	80	;'P'
   185   001003  3A                 	db	58	;':'
   186   001004  25                 	db	37
   187   001005  34                 	db	52	;'4'
   188   001006  2E                 	db	46
   189   001007  31                 	db	49	;'1'
   190   001008  66                 	db	102	;'f'
   191   001009  43                 	db	67	;'C'
   192   00100A  20                 	db	32
   193   00100B  00                 	db	0
   194   00100C                     STR_2:
   195   00100C  43                 	db	67	;'C'
   196   00100D  54                 	db	84	;'T'
   197   00100E  3A                 	db	58	;':'
   198   00100F  25                 	db	37
   199   001010  34                 	db	52	;'4'
   200   001011  2E                 	db	46
   201   001012  31                 	db	49	;'1'
   202   001013  66                 	db	102	;'f'
   203   001014  43                 	db	67	;'C'
   204   001015  20                 	db	32
   205   001016  00                 	db	0
   206   001017                     STR_7:
   207   001017  31                 	db	49	;'1'
   208   001018  30                 	db	48	;'0'
   209   001019  4D                 	db	77	;'M'
   210   00101A  20                 	db	32
   211   00101B  20                 	db	32
   212   00101C  00                 	db	0
   213   00101D                     STR_5:
   214   00101D  31                 	db	49	;'1'
   215   00101E  30                 	db	48	;'0'
   216   00101F  53                 	db	83	;'S'
   217   001020  20                 	db	32
   218   001021  20                 	db	32
   219   001022  00                 	db	0
   220   001023                     STR_3:
   221   001023  4D                 	db	77	;'M'
   222   001024  44                 	db	68	;'D'
   223   001025  3A                 	db	58	;':'
   224   001026  25                 	db	37
   225   001027  73                 	db	115	;'s'
   226   001028  00                 	db	0
   227   001029                     STR_8:
   228   001029  48                 	db	72	;'H'
   229   00102A  52                 	db	82	;'R'
   230   00102B  20                 	db	32
   231   00102C  20                 	db	32
   232   00102D  00                 	db	0
   233   00102E                     STR_10:
   234   00102E  48                 	db	72	;'H'
   235   00102F  54                 	db	84	;'T'
   236   001030  20                 	db	32
   237   001031  20                 	db	32
   238   001032  00                 	db	0
   239   001033                     STR_9:
   240   001033  48                 	db	72	;'H'
   241   001034  59                 	db	89	;'Y'
   242   001035  20                 	db	32
   243   001036  20                 	db	32
   244   001037  00                 	db	0
   245   001038                     STR_11:
   246   001038  48                 	db	72	;'H'
   247   001039  3A                 	db	58	;':'
   248   00103A  25                 	db	37
   249   00103B  64                 	db	100	;'d'
   250   00103C  00                 	db	0
   251   00103D                     STR_12:
   252   00103D  69                 	db	105	;'i'
   253   00103E  6E                 	db	110	;'n'
   254   00103F  66                 	db	102	;'f'
   255   001040  00                 	db	0
   256   001041                     STR_15:
   257   001041  6E                 	db	110	;'n'
   258   001042  61                 	db	97	;'a'
   259   001043  6E                 	db	110	;'n'
   260   001044  00                 	db	0
   261   001045                     STR_18:
   262   001045  6C                 	db	108	;'l'
   263   001046  6C                 	db	108	;'l'
   264   001047  73                 	db	115	;'s'
   265   001048  00                 	db	0
   266   001049  00                 	db	0	; dummy byte at the end
   267   000000                     
   268                           ; #config settings
   269                           
   270                           	psect	cinit
   271   004864                     __pcinit:
   272                           	callstack 0
   273   004864                     start_initialization:
   274                           	callstack 0
   275   004864                     __initialization:
   276                           	callstack 0
   277                           
   278                           ; Initialize objects allocated to BANK1 (7 bytes)
   279                           ; load TBLPTR registers with __pidataBANK1
   280   004864  0E9E               	movlw	low __pidataBANK1
   281   004866  6EF6               	movwf	tblptrl,c
   282   004868  0E4E               	movlw	high __pidataBANK1
   283   00486A  6EF7               	movwf	tblptrh,c
   284   00486C  0E00               	movlw	low (__pidataBANK1 shr (0+16))
   285   00486E  6EF8               	movwf	tblptru,c
   286   004870  EE01  F0CB         	lfsr	0,__pdataBANK1
   287   004874  EE10 F007          	lfsr	1,7
   288   004878                     copy_data0:
   289   004878  0009               	tblrd		*+
   290   00487A  CFF5 FFEE          	movff	tablat,postinc0
   291   00487E  50E5               	movf	postdec1,w,c
   292   004880  50E1               	movf	fsr1l,w,c
   293   004882  E1FA               	bnz	copy_data0
   294                           
   295                           ; Initialize objects allocated to COMRAM (4 bytes)
   296                           ; load TBLPTR registers with __pidataCOMRAM
   297   004884  0EA5               	movlw	low __pidataCOMRAM
   298   004886  6EF6               	movwf	tblptrl,c
   299   004888  0E4E               	movlw	high __pidataCOMRAM
   300   00488A  6EF7               	movwf	tblptrh,c
   301   00488C  0E00               	movlw	low (__pidataCOMRAM shr (0+16))
   302   00488E  6EF8               	movwf	tblptru,c
   303   004890  EE00  F056         	lfsr	0,__pdataCOMRAM
   304   004894  EE10 F004          	lfsr	1,4
   305   004898                     copy_data1:
   306   004898  0009               	tblrd		*+
   307   00489A  CFF5 FFEE          	movff	tablat,postinc0
   308   00489E  50E5               	movf	postdec1,w,c
   309   0048A0  50E1               	movf	fsr1l,w,c
   310   0048A2  E1FA               	bnz	copy_data1
   311                           
   312                           ; Clear objects allocated to BANK1 (101 bytes)
   313   0048A4  EE01  F066         	lfsr	0,__pbssBANK1
   314   0048A8  0E65               	movlw	101
   315   0048AA                     clear_0:
   316   0048AA  6AEE               	clrf	postinc0,c
   317   0048AC  06E8               	decf	wreg,f,c
   318   0048AE  E1FD               	bnz	clear_0
   319                           
   320                           ; Clear objects allocated to BANK0 (8 bytes)
   321   0048B0  EE00  F0F0         	lfsr	0,__pbssBANK0
   322   0048B4  0E08               	movlw	8
   323   0048B6                     clear_1:
   324   0048B6  6AEE               	clrf	postinc0,c
   325   0048B8  06E8               	decf	wreg,f,c
   326   0048BA  E1FD               	bnz	clear_1
   327                           
   328                           ; Clear objects allocated to COMRAM (34 bytes)
   329   0048BC  EE00  F034         	lfsr	0,__pbssCOMRAM
   330   0048C0  0E22               	movlw	34
   331   0048C2                     clear_2:
   332   0048C2  6AEE               	clrf	postinc0,c
   333   0048C4  06E8               	decf	wreg,f,c
   334   0048C6  E1FD               	bnz	clear_2
   335   0048C8                     end_of_initialization:
   336                           	callstack 0
   337   0048C8                     __end_of__initialization:
   338                           	callstack 0
   339   0048C8  905A               	bcf	int$flags,0,c	;clear compiler interrupt flag (level 1)
   340   0048CA  925A               	bcf	int$flags,1,c	;clear compiler interrupt flag (level 2)
   341   0048CC  0E00               	movlw	low (__Lmediumconst shr (0+16))
   342   0048CE  6EF8               	movwf	tblptru,c
   343   0048D0  0100               	movlb	0
   344   0048D2  EFC6  F013         	goto	_main	;jump to C main() function
   345                           
   346                           	psect	bssCOMRAM
   347   000034                     __pbssCOMRAM:
   348                           	callstack 0
   349   000034                     ___fpclassifyf@F465:
   350                           	callstack 0
   351   000034                     	ds	4
   352   000038                     _Percent_Heat_Counter:
   353                           	callstack 0
   354   000038                     	ds	4
   355   00003C                     _a0:
   356                           	callstack 0
   357   00003C                     	ds	4
   358   000040                     _width:
   359                           	callstack 0
   360   000040                     	ds	2
   361   000042                     _prec:
   362                           	callstack 0
   363   000042                     	ds	2
   364   000044                     _timer:
   365                           	callstack 0
   366   000044                     	ds	2
   367   000046                     _H:
   368                           	callstack 0
   369   000046                     	ds	2
   370   000048                     _cooler:
   371                           	callstack 0
   372   000048                     	ds	2
   373   00004A                     _heater:
   374                           	callstack 0
   375   00004A                     	ds	2
   376   00004C                     _time:
   377                           	callstack 0
   378   00004C                     	ds	2
   379   00004E                     _hours:
   380                           	callstack 0
   381   00004E                     	ds	2
   382   000050                     _minutes:
   383                           	callstack 0
   384   000050                     	ds	2
   385   000052                     _seconds:
   386                           	callstack 0
   387   000052                     	ds	2
   388   000054                     _flags:
   389                           	callstack 0
   390   000054                     	ds	1
   391   000055                     _modes:
   392                           	callstack 0
   393   000055                     	ds	1
   394                           
   395                           	psect	dataCOMRAM
   396   000056                     __pdataCOMRAM:
   397                           	callstack 0
   398   000056                     _LCD_INIT_STRING:
   399                           	callstack 0
   400   000056                     	ds	4
   401                           
   402                           	psect	bssBANK0
   403   0000F0                     __pbssBANK0:
   404                           	callstack 0
   405   0000F0                     floorf@F526:
   406                           	callstack 0
   407   0000F0                     	ds	4
   408   0000F4                     _a1:
   409                           	callstack 0
   410   0000F4                     	ds	4
   411                           
   412                           	psect	bssBANK1
   413   000166                     __pbssBANK1:
   414                           	callstack 0
   415   000166                     _sp:
   416                           	callstack 0
   417   000166                     	ds	4
   418   00016A                     _t:
   419                           	callstack 0
   420   00016A                     	ds	4
   421   00016E                     _p1:
   422                           	callstack 0
   423   00016E                     	ds	4
   424   000172                     _temp:
   425                           	callstack 0
   426   000172                     	ds	4
   427   000176                     _modeschange:
   428                           	callstack 0
   429   000176                     	ds	1
   430   000177                     _dbuf:
   431                           	callstack 0
   432   000177                     	ds	80
   433   0001C7                     _voltage:
   434                           	callstack 0
   435   0001C7                     	ds	4
   436                           
   437                           	psect	dataBANK1
   438   0001CB                     __pdataBANK1:
   439                           	callstack 0
   440   0001CB                     stoa@F1179:
   441                           	callstack 0
   442   0001CB                     	ds	7
   443                           
   444                           	psect	cstackBANK1
   445   000100                     __pcstackBANK1:
   446                           	callstack 0
   447   000100                     efgtoa@ne:
   448                           	callstack 0
   449                           
   450                           ; 2 bytes @ 0x0
   451   000100                     	ds	2
   452   000102                     efgtoa@p:
   453                           	callstack 0
   454                           
   455                           ; 2 bytes @ 0x2
   456   000102                     	ds	2
   457   000104                     efgtoa@t:
   458                           	callstack 0
   459                           
   460                           ; 2 bytes @ 0x4
   461   000104                     	ds	2
   462   000106                     _efgtoa$1836:
   463                           	callstack 0
   464                           
   465                           ; 2 bytes @ 0x6
   466   000106                     	ds	2
   467   000108                     efgtoa@pp:
   468                           	callstack 0
   469                           
   470                           ; 1 bytes @ 0x8
   471   000108                     	ds	1
   472   000109                     efgtoa@mode:
   473                           	callstack 0
   474                           
   475                           ; 1 bytes @ 0x9
   476   000109                     	ds	1
   477   00010A                     efgtoa@nmode:
   478                           	callstack 0
   479                           
   480                           ; 1 bytes @ 0xA
   481   00010A                     	ds	1
   482   00010B                     efgtoa@d:
   483                           	callstack 0
   484                           
   485                           ; 2 bytes @ 0xB
   486   00010B                     	ds	2
   487   00010D                     efgtoa@m:
   488                           	callstack 0
   489                           
   490                           ; 2 bytes @ 0xD
   491   00010D                     	ds	2
   492   00010F                     efgtoa@e:
   493                           	callstack 0
   494                           
   495                           ; 2 bytes @ 0xF
   496   00010F                     	ds	2
   497   000111                     efgtoa@w:
   498                           	callstack 0
   499                           
   500                           ; 2 bytes @ 0x11
   501   000111                     	ds	2
   502   000113                     efgtoa@ou:
   503                           	callstack 0
   504                           
   505                           ; 4 bytes @ 0x13
   506   000113                     	ds	4
   507   000117                     efgtoa@i:
   508                           	callstack 0
   509                           
   510                           ; 2 bytes @ 0x17
   511   000117                     	ds	2
   512   000119                     efgtoa@h:
   513                           	callstack 0
   514                           
   515                           ; 4 bytes @ 0x19
   516   000119                     	ds	4
   517   00011D                     efgtoa@l:
   518                           	callstack 0
   519                           
   520                           ; 4 bytes @ 0x1D
   521   00011D                     	ds	4
   522   000121                     efgtoa@sign:
   523                           	callstack 0
   524                           
   525                           ; 1 bytes @ 0x21
   526   000121                     	ds	1
   527   000122                     efgtoa@g:
   528                           	callstack 0
   529                           
   530                           ; 4 bytes @ 0x22
   531   000122                     	ds	4
   532   000126                     efgtoa@n:
   533                           	callstack 0
   534                           
   535                           ; 2 bytes @ 0x26
   536   000126                     	ds	2
   537   000128                     efgtoa@u:
   538                           	callstack 0
   539                           
   540                           ; 4 bytes @ 0x28
   541   000128                     	ds	4
   542   00012C                     sprintf@ap:
   543                           	callstack 0
   544                           
   545                           ; 2 bytes @ 0x2C
   546   00012C                     	ds	2
   547   00012E                     sprintf@f:
   548                           	callstack 0
   549                           
   550                           ; 12 bytes @ 0x2E
   551   00012E                     	ds	12
   552   00013A                     main@Buffer:
   553                           	callstack 0
   554                           
   555                           ; 32 bytes @ 0x3A
   556   00013A                     	ds	32
   557   00015A                     _main$737:
   558                           	callstack 0
   559                           
   560                           ; 2 bytes @ 0x5A
   561   00015A                     	ds	2
   562   00015C                     _main$738:
   563                           	callstack 0
   564                           
   565                           ; 2 bytes @ 0x5C
   566   00015C                     	ds	2
   567   00015E                     _main$739:
   568                           	callstack 0
   569                           
   570                           ; 2 bytes @ 0x5E
   571   00015E                     	ds	2
   572   000160                     _main$740:
   573                           	callstack 0
   574                           
   575                           ; 2 bytes @ 0x60
   576   000160                     	ds	2
   577   000162                     _main$741:
   578                           	callstack 0
   579                           
   580                           ; 2 bytes @ 0x62
   581   000162                     	ds	2
   582   000164                     _main$742:
   583                           	callstack 0
   584                           
   585                           ; 2 bytes @ 0x64
   586   000164                     	ds	2
   587                           
   588                           	psect	cstackBANK0
   589   000080                     __pcstackBANK0:
   590                           	callstack 0
   591   000080                     ?___flmul:
   592                           	callstack 0
   593   000080                     lcd_gotoxy@x:
   594                           	callstack 0
   595   000080                     ___fladd@signs:
   596                           	callstack 0
   597   000080                     read_prec_or_width@c:
   598                           	callstack 0
   599   000080                     fputs@c:
   600                           	callstack 0
   601   000080                     ___flmul@b:
   602                           	callstack 0
   603   000080                     stoa@nuls:
   604                           	callstack 0
   605                           
   606                           ; 7 bytes @ 0x0
   607   000080                     	ds	1
   608   000081                     lcd_gotoxy@address:
   609                           	callstack 0
   610   000081                     ___fladd@aexp:
   611                           	callstack 0
   612   000081                     read_prec_or_width@n:
   613                           	callstack 0
   614   000081                     fputs@i:
   615                           	callstack 0
   616                           
   617                           ; 2 bytes @ 0x1
   618   000081                     	ds	1
   619   000082                     ??_lcd_putc:
   620   000082                     ___fladd@bexp:
   621                           	callstack 0
   622                           
   623                           ; 1 bytes @ 0x2
   624   000082                     	ds	1
   625   000083                     ___fladd@grs:
   626                           	callstack 0
   627   000083                     pad@fp:
   628                           	callstack 0
   629                           
   630                           ; 2 bytes @ 0x3
   631   000083                     	ds	1
   632   000084                     lcd_puts@s:
   633                           	callstack 0
   634   000084                     ___flmul@a:
   635                           	callstack 0
   636                           
   637                           ; 4 bytes @ 0x4
   638   000084                     	ds	1
   639   000085                     pad@buf:
   640                           	callstack 0
   641                           
   642                           ; 2 bytes @ 0x5
   643   000085                     	ds	2
   644   000087                     pad@p:
   645                           	callstack 0
   646   000087                     stoa@i:
   647                           	callstack 0
   648                           
   649                           ; 2 bytes @ 0x7
   650   000087                     	ds	1
   651   000088                     ??___flmul:
   652                           
   653                           ; 1 bytes @ 0x8
   654   000088                     	ds	1
   655   000089                     pad@i:
   656                           	callstack 0
   657   000089                     stoa@w:
   658                           	callstack 0
   659                           
   660                           ; 2 bytes @ 0x9
   661   000089                     	ds	2
   662   00008B                     pad@w:
   663                           	callstack 0
   664   00008B                     stoa@cp:
   665                           	callstack 0
   666                           
   667                           ; 2 bytes @ 0xB
   668   00008B                     	ds	1
   669   00008C                     ___flmul@sign:
   670                           	callstack 0
   671                           
   672                           ; 1 bytes @ 0xC
   673   00008C                     	ds	1
   674   00008D                     ___flmul@aexp:
   675                           	callstack 0
   676   00008D                     dtoa@fp:
   677                           	callstack 0
   678   00008D                     stoa@p:
   679                           	callstack 0
   680                           
   681                           ; 2 bytes @ 0xD
   682   00008D                     	ds	1
   683   00008E                     ___flmul@grs:
   684                           	callstack 0
   685                           
   686                           ; 4 bytes @ 0xE
   687   00008E                     	ds	1
   688   00008F                     dtoa@d:
   689                           	callstack 0
   690   00008F                     stoa@l:
   691                           	callstack 0
   692                           
   693                           ; 2 bytes @ 0xF
   694   00008F                     	ds	2
   695   000091                     _dtoa$1805:
   696                           	callstack 0
   697                           
   698                           ; 2 bytes @ 0x11
   699   000091                     	ds	1
   700   000092                     ___flmul@bexp:
   701                           	callstack 0
   702                           
   703                           ; 1 bytes @ 0x12
   704   000092                     	ds	1
   705   000093                     dtoa@p:
   706                           	callstack 0
   707   000093                     ___flmul@prod:
   708                           	callstack 0
   709                           
   710                           ; 4 bytes @ 0x13
   711   000093                     	ds	2
   712   000095                     dtoa@w:
   713                           	callstack 0
   714                           
   715                           ; 2 bytes @ 0x15
   716   000095                     	ds	2
   717   000097                     dtoa@s:
   718                           	callstack 0
   719   000097                     ___flmul@temp:
   720                           	callstack 0
   721                           
   722                           ; 2 bytes @ 0x17
   723   000097                     	ds	1
   724   000098                     dtoa@i:
   725                           	callstack 0
   726                           
   727                           ; 2 bytes @ 0x18
   728   000098                     	ds	1
   729   000099                     ?___fldiv:
   730                           	callstack 0
   731   000099                     ?___flsub:
   732                           	callstack 0
   733   000099                     ___flge@ff1:
   734                           	callstack 0
   735   000099                     ___flsub@b:
   736                           	callstack 0
   737   000099                     ___fldiv@b:
   738                           	callstack 0
   739                           
   740                           ; 4 bytes @ 0x19
   741   000099                     	ds	4
   742   00009D                     ___flge@ff2:
   743                           	callstack 0
   744   00009D                     ___flsub@a:
   745                           	callstack 0
   746   00009D                     ___fldiv@a:
   747                           	callstack 0
   748                           
   749                           ; 4 bytes @ 0x1D
   750   00009D                     	ds	4
   751   0000A1                     ??___fldiv:
   752   0000A1                     ??___flge:
   753                           
   754                           ; 1 bytes @ 0x21
   755   0000A1                     	ds	4
   756   0000A5                     ___fldiv@rem:
   757                           	callstack 0
   758                           
   759                           ; 4 bytes @ 0x25
   760   0000A5                     	ds	4
   761   0000A9                     ___fldiv@sign:
   762                           	callstack 0
   763                           
   764                           ; 1 bytes @ 0x29
   765   0000A9                     	ds	1
   766   0000AA                     ___fldiv@new_exp:
   767                           	callstack 0
   768                           
   769                           ; 2 bytes @ 0x2A
   770   0000AA                     	ds	2
   771   0000AC                     ___fldiv@grs:
   772                           	callstack 0
   773                           
   774                           ; 4 bytes @ 0x2C
   775   0000AC                     	ds	4
   776   0000B0                     ___fldiv@bexp:
   777                           	callstack 0
   778                           
   779                           ; 1 bytes @ 0x30
   780   0000B0                     	ds	1
   781   0000B1                     ___fldiv@aexp:
   782                           	callstack 0
   783                           
   784                           ; 1 bytes @ 0x31
   785   0000B1                     	ds	1
   786   0000B2                     ?_read_adc_voltage:
   787                           	callstack 0
   788   0000B2                     ?_floorf:
   789                           	callstack 0
   790   0000B2                     floorf@x:
   791                           	callstack 0
   792                           
   793                           ; 4 bytes @ 0x32
   794   0000B2                     	ds	4
   795   0000B6                     ??_floorf:
   796   0000B6                     read_adc_voltage@voltage:
   797                           	callstack 0
   798                           
   799                           ; 4 bytes @ 0x36
   800   0000B6                     	ds	4
   801   0000BA                     read_adc_voltage@channel:
   802                           	callstack 0
   803                           
   804                           ; 1 bytes @ 0x3A
   805   0000BA                     	ds	1
   806   0000BB                     read_adc_voltage@raw_value:
   807                           	callstack 0
   808                           
   809                           ; 2 bytes @ 0x3B
   810   0000BB                     	ds	1
   811   0000BC                     floorf@m:
   812                           	callstack 0
   813                           
   814                           ; 4 bytes @ 0x3C
   815   0000BC                     	ds	4
   816   0000C0                     floorf@e:
   817                           	callstack 0
   818                           
   819                           ; 2 bytes @ 0x40
   820   0000C0                     	ds	2
   821   0000C2                     floorf@u:
   822                           	callstack 0
   823                           
   824                           ; 4 bytes @ 0x42
   825   0000C2                     	ds	4
   826   0000C6                     efgtoa@fp:
   827                           	callstack 0
   828                           
   829                           ; 2 bytes @ 0x46
   830   0000C6                     	ds	2
   831   0000C8                     efgtoa@f:
   832                           	callstack 0
   833                           
   834                           ; 4 bytes @ 0x48
   835   0000C8                     	ds	4
   836   0000CC                     efgtoa@c:
   837                           	callstack 0
   838                           
   839                           ; 1 bytes @ 0x4C
   840   0000CC                     	ds	1
   841   0000CD                     ??_efgtoa:
   842                           
   843                           ; 1 bytes @ 0x4D
   844   0000CD                     	ds	2
   845   0000CF                     vfpfcnvrt@fp:
   846                           	callstack 0
   847                           
   848                           ; 2 bytes @ 0x4F
   849   0000CF                     	ds	2
   850   0000D1                     vfpfcnvrt@fmt:
   851                           	callstack 0
   852                           
   853                           ; 2 bytes @ 0x51
   854   0000D1                     	ds	2
   855   0000D3                     vfpfcnvrt@ap:
   856                           	callstack 0
   857                           
   858                           ; 2 bytes @ 0x53
   859   0000D3                     	ds	2
   860   0000D5                     ??_vfpfcnvrt:
   861                           
   862                           ; 1 bytes @ 0x55
   863   0000D5                     	ds	2
   864   0000D7                     _vfpfcnvrt$1878:
   865                           	callstack 0
   866                           
   867                           ; 2 bytes @ 0x57
   868   0000D7                     	ds	2
   869   0000D9                     vfpfcnvrt@convarg:
   870                           	callstack 0
   871                           
   872                           ; 4 bytes @ 0x59
   873   0000D9                     	ds	4
   874   0000DD                     vfpfcnvrt@c:
   875                           	callstack 0
   876                           
   877                           ; 1 bytes @ 0x5D
   878   0000DD                     	ds	1
   879   0000DE                     vfpfcnvrt@cp:
   880                           	callstack 0
   881                           
   882                           ; 2 bytes @ 0x5E
   883   0000DE                     	ds	2
   884   0000E0                     ?_vfprintf:
   885                           	callstack 0
   886   0000E0                     vfprintf@fp:
   887                           	callstack 0
   888                           
   889                           ; 2 bytes @ 0x60
   890   0000E0                     	ds	2
   891   0000E2                     vfprintf@fmt:
   892                           	callstack 0
   893                           
   894                           ; 2 bytes @ 0x62
   895   0000E2                     	ds	2
   896   0000E4                     vfprintf@ap:
   897                           	callstack 0
   898                           
   899                           ; 2 bytes @ 0x64
   900   0000E4                     	ds	2
   901   0000E6                     vfprintf@cfmt:
   902                           	callstack 0
   903                           
   904                           ; 2 bytes @ 0x66
   905   0000E6                     	ds	2
   906   0000E8                     ?_sprintf:
   907                           	callstack 0
   908   0000E8                     sprintf@s:
   909                           	callstack 0
   910                           
   911                           ; 2 bytes @ 0x68
   912   0000E8                     	ds	2
   913   0000EA                     sprintf@fmt:
   914                           	callstack 0
   915                           
   916                           ; 2 bytes @ 0x6A
   917   0000EA                     	ds	6
   918                           
   919                           	psect	cstackCOMRAM
   920   000001                     __pcstackCOMRAM:
   921                           	callstack 0
   922   000001                     ?i2___fldiv:
   923                           	callstack 0
   924   000001                     ?i2___xxtofl:
   925                           	callstack 0
   926   000001                     i2delay_ms@n:
   927                           	callstack 0
   928   000001                     i2___fleq@ff1:
   929                           	callstack 0
   930   000001                     i2___fldiv@b:
   931                           	callstack 0
   932   000001                     i2___xxtofl@val:
   933                           	callstack 0
   934                           
   935                           ; 4 bytes @ 0x0
   936   000001                     	ds	2
   937   000003                     i2delay_ms@x:
   938                           	callstack 0
   939                           
   940                           ; 2 bytes @ 0x2
   941   000003                     	ds	2
   942   000005                     ??i2___xxtofl:
   943   000005                     i2___fleq@ff2:
   944                           	callstack 0
   945   000005                     i2___fldiv@a:
   946                           	callstack 0
   947                           
   948                           ; 4 bytes @ 0x4
   949   000005                     	ds	4
   950   000009                     ??i2___fleq:
   951   000009                     ??i2___fldiv:
   952   000009                     i2___xxtofl@sign:
   953                           	callstack 0
   954                           
   955                           ; 1 bytes @ 0x8
   956   000009                     	ds	1
   957   00000A                     i2___xxtofl@exp:
   958                           	callstack 0
   959                           
   960                           ; 1 bytes @ 0x9
   961   00000A                     	ds	1
   962   00000B                     i2___xxtofl@arg:
   963                           	callstack 0
   964                           
   965                           ; 4 bytes @ 0xA
   966   00000B                     	ds	2
   967   00000D                     i2___fldiv@rem:
   968                           	callstack 0
   969                           
   970                           ; 4 bytes @ 0xC
   971   00000D                     	ds	4
   972   000011                     i2___fldiv@sign:
   973                           	callstack 0
   974                           
   975                           ; 1 bytes @ 0x10
   976   000011                     	ds	1
   977   000012                     i2___fldiv@new_exp:
   978                           	callstack 0
   979                           
   980                           ; 2 bytes @ 0x11
   981   000012                     	ds	2
   982   000014                     i2___fldiv@grs:
   983                           	callstack 0
   984                           
   985                           ; 4 bytes @ 0x13
   986   000014                     	ds	4
   987   000018                     i2___fldiv@bexp:
   988                           	callstack 0
   989                           
   990                           ; 1 bytes @ 0x17
   991   000018                     	ds	1
   992   000019                     i2___fldiv@aexp:
   993                           	callstack 0
   994                           
   995                           ; 1 bytes @ 0x18
   996   000019                     	ds	1
   997   00001A                     i2___flge@ff1:
   998                           	callstack 0
   999                           
  1000                           ; 4 bytes @ 0x19
  1001   00001A                     	ds	4
  1002   00001E                     i2___flge@ff2:
  1003                           	callstack 0
  1004                           
  1005                           ; 4 bytes @ 0x1D
  1006   00001E                     	ds	4
  1007   000022                     ??i2___flge:
  1008                           
  1009                           ; 1 bytes @ 0x21
  1010   000022                     	ds	4
  1011   000026                     ??_delay_cycles:
  1012   000026                     ?___fpclassifyf:
  1013                           	callstack 0
  1014   000026                     ?_strlen:
  1015                           	callstack 0
  1016   000026                     ?_strncmp:
  1017                           	callstack 0
  1018   000026                     ?_read_adc_raw_no_lib:
  1019                           	callstack 0
  1020   000026                     ?___wmul:
  1021                           	callstack 0
  1022   000026                     ?___awdiv:
  1023                           	callstack 0
  1024   000026                     ?___awmod:
  1025                           	callstack 0
  1026   000026                     ?___fladd:
  1027                           	callstack 0
  1028   000026                     ?_labs:
  1029                           	callstack 0
  1030   000026                     ?___flneg:
  1031                           	callstack 0
  1032   000026                     ?___fltol:
  1033                           	callstack 0
  1034   000026                     ?___xxtofl:
  1035                           	callstack 0
  1036   000026                     delay_ms@n:
  1037                           	callstack 0
  1038   000026                     ___wmul@multiplier:
  1039                           	callstack 0
  1040   000026                     ___awdiv@dividend:
  1041                           	callstack 0
  1042   000026                     ___awmod@dividend:
  1043                           	callstack 0
  1044   000026                     memcpy@d1:
  1045                           	callstack 0
  1046   000026                     fputc@c:
  1047                           	callstack 0
  1048   000026                     strcpy@dest:
  1049                           	callstack 0
  1050   000026                     strlen@s:
  1051                           	callstack 0
  1052   000026                     strncmp@_l:
  1053                           	callstack 0
  1054   000026                     ___fleq@ff1:
  1055                           	callstack 0
  1056   000026                     ___flneg@f1:
  1057                           	callstack 0
  1058   000026                     ___fltol@f1:
  1059                           	callstack 0
  1060   000026                     ___fladd@b:
  1061                           	callstack 0
  1062   000026                     ___xxtofl@val:
  1063                           	callstack 0
  1064   000026                     ___fpclassifyf@x:
  1065                           	callstack 0
  1066   000026                     labs@a:
  1067                           	callstack 0
  1068                           
  1069                           ; 4 bytes @ 0x25
  1070   000026                     	ds	2
  1071   000028                     ??_read_adc_raw_no_lib:
  1072   000028                     delay_ms@x:
  1073                           	callstack 0
  1074   000028                     ___wmul@multiplicand:
  1075                           	callstack 0
  1076   000028                     ___awdiv@divisor:
  1077                           	callstack 0
  1078   000028                     ___awmod@divisor:
  1079                           	callstack 0
  1080   000028                     memcpy@s1:
  1081                           	callstack 0
  1082   000028                     fputc@fp:
  1083                           	callstack 0
  1084   000028                     strcpy@src:
  1085                           	callstack 0
  1086   000028                     strlen@a:
  1087                           	callstack 0
  1088   000028                     strncmp@_r:
  1089                           	callstack 0
  1090                           
  1091                           ; 2 bytes @ 0x27
  1092   000028                     	ds	1
  1093   000029                     delay_cycles@n:
  1094                           	callstack 0
  1095                           
  1096                           ; 1 bytes @ 0x28
  1097   000029                     	ds	1
  1098   00002A                     ??_fputc:
  1099   00002A                     ??___fpclassifyf:
  1100   00002A                     ??_labs:
  1101   00002A                     ??___fltol:
  1102   00002A                     ??___xxtofl:
  1103   00002A                     ___awdiv@counter:
  1104                           	callstack 0
  1105   00002A                     ___awmod@counter:
  1106                           	callstack 0
  1107   00002A                     delay_cycles@x:
  1108                           	callstack 0
  1109   00002A                     read_adc_raw_no_lib@raw_value:
  1110                           	callstack 0
  1111   00002A                     ___wmul@product:
  1112                           	callstack 0
  1113   00002A                     memcpy@n:
  1114                           	callstack 0
  1115   00002A                     strcpy@s:
  1116                           	callstack 0
  1117   00002A                     strncmp@n:
  1118                           	callstack 0
  1119   00002A                     ___fleq@ff2:
  1120                           	callstack 0
  1121   00002A                     ___fladd@a:
  1122                           	callstack 0
  1123                           
  1124                           ; 4 bytes @ 0x29
  1125   00002A                     	ds	1
  1126   00002B                     ___awdiv@sign:
  1127                           	callstack 0
  1128   00002B                     ___awmod@sign:
  1129                           	callstack 0
  1130                           
  1131                           ; 1 bytes @ 0x2A
  1132   00002B                     	ds	1
  1133   00002C                     ??_strncmp:
  1134   00002C                     ??_lcd_send_nibble:
  1135   00002C                     ?_abs:
  1136                           	callstack 0
  1137   00002C                     ?_read_prec_or_width:
  1138                           	callstack 0
  1139   00002C                     read_adc_raw_no_lib@channel:
  1140                           	callstack 0
  1141   00002C                     memcpy@tmp:
  1142                           	callstack 0
  1143   00002C                     ___awdiv@quotient:
  1144                           	callstack 0
  1145   00002C                     read_prec_or_width@fmt:
  1146                           	callstack 0
  1147   00002C                     abs@a:
  1148                           	callstack 0
  1149   00002C                     strcpy@d:
  1150                           	callstack 0
  1151                           
  1152                           ; 2 bytes @ 0x2B
  1153   00002C                     	ds	1
  1154   00002D                     lcd_send_nibble@n:
  1155                           	callstack 0
  1156   00002D                     memcpy@d:
  1157                           	callstack 0
  1158   00002D                     strncmp@l:
  1159                           	callstack 0
  1160                           
  1161                           ; 2 bytes @ 0x2C
  1162   00002D                     	ds	1
  1163   00002E                     ??___fladd:
  1164   00002E                     ??_abs:
  1165   00002E                     ??___fleq:
  1166   00002E                     lcd_send_byte@n:
  1167                           	callstack 0
  1168   00002E                     ___fltol@sign1:
  1169                           	callstack 0
  1170   00002E                     ___xxtofl@sign:
  1171                           	callstack 0
  1172   00002E                     read_prec_or_width@ap:
  1173                           	callstack 0
  1174   00002E                     ___fpclassifyf@e:
  1175                           	callstack 0
  1176                           
  1177                           ; 2 bytes @ 0x2D
  1178   00002E                     	ds	1
  1179   00002F                     lcd_send_byte@cm_data:
  1180                           	callstack 0
  1181   00002F                     ___fltol@exp1:
  1182                           	callstack 0
  1183   00002F                     ___xxtofl@exp:
  1184                           	callstack 0
  1185   00002F                     stoa@fp:
  1186                           	callstack 0
  1187   00002F                     memcpy@s:
  1188                           	callstack 0
  1189   00002F                     fputs@s:
  1190                           	callstack 0
  1191   00002F                     strncmp@r:
  1192                           	callstack 0
  1193                           
  1194                           ; 2 bytes @ 0x2E
  1195   00002F                     	ds	1
  1196   000030                     ??_read_prec_or_width:
  1197   000030                     lcd_init@i:
  1198                           	callstack 0
  1199   000030                     lcd_gotoxy@y:
  1200                           	callstack 0
  1201   000030                     ___xxtofl@arg:
  1202                           	callstack 0
  1203   000030                     ___fpclassifyf@u:
  1204                           	callstack 0
  1205                           
  1206                           ; 4 bytes @ 0x2F
  1207   000030                     	ds	1
  1208   000031                     ??_lcd_gotoxy:
  1209   000031                     stoa@s:
  1210                           	callstack 0
  1211   000031                     fputs@fp:
  1212                           	callstack 0
  1213                           
  1214                           ; 2 bytes @ 0x30
  1215   000031                     	ds	2
  1216   000033                     ??_pad:
  1217   000033                     ??_stoa:
  1218   000033                     lcd_putc@c:
  1219                           	callstack 0
  1220                           
  1221                           ; 1 bytes @ 0x32
  1222   000033                     	ds	1
  1223   000034                     
  1224                           ; 1 bytes @ 0x33
  1225 ;;
  1226 ;;Main: autosize = 0, tempsize = 0, incstack = 0, save=0
  1227 ;;
  1228 ;; *************** function _main *****************
  1229 ;; Defined at:
  1230 ;;		line 254 in file "mainprojcet.c"
  1231 ;; Parameters:    Size  Location     Type
  1232 ;;		None
  1233 ;; Auto vars:     Size  Location     Type
  1234 ;;  Buffer         32   58[BANK1 ] unsigned char [32]
  1235 ;; Return value:  Size  Location     Type
  1236 ;;                  1    wreg      void 
  1237 ;; Registers used:
  1238 ;;		wreg, fsr1l, fsr1h, fsr2l, fsr2h, status,2, status,0, tblptrl, tblptrh, tblptru, prodl, prodh, cstack
  1239 ;; Tracked objects:
  1240 ;;		On entry : 0/0
  1241 ;;		On exit  : 0/0
  1242 ;;		Unchanged: 0/0
  1243 ;; Data sizes:     COMRAM   BANK0   BANK1   BANK2   BANK3   BANK4   BANK5   BANK6   BANK7   BANK8   BANK9  BANK10  BANK1
      +1  BANK12  BANK13  BANK14  BANK15
  1244 ;;      Params:         0       0       0       0       0       0       0       0       0       0       0       0       
      +0       0       0       0       0
  1245 ;;      Locals:         0       0      44       0       0       0       0       0       0       0       0       0       
      +0       0       0       0       0
  1246 ;;      Temps:          0       0       0       0       0       0       0       0       0       0       0       0       
      +0       0       0       0       0
  1247 ;;      Totals:         0       0      44       0       0       0       0       0       0       0       0       0       
      +0       0       0       0       0
  1248 ;;Total ram usage:       44 bytes
  1249 ;; Hardware stack levels required when called: 11
  1250 ;; This function calls:
  1251 ;;		___fladd
  1252 ;;		___fldiv
  1253 ;;		___fleq
  1254 ;;		___flmul
  1255 ;;		___flsub
  1256 ;;		_initTimers01
  1257 ;;		_init_adc_no_lib
  1258 ;;		_initialization
  1259 ;;		_lcd_gotoxy
  1260 ;;		_lcd_init
  1261 ;;		_lcd_puts
  1262 ;;		_read_adc_voltage
  1263 ;;		_setupPorts
  1264 ;;		_sprintf
  1265 ;; This function is called by:
  1266 ;;		Startup code after reset
  1267 ;; This function uses a non-reentrant model
  1268 ;;
  1269                           
  1270                           	psect	text0
  1271   00278C                     __ptext0:
  1272                           	callstack 0
  1273   00278C                     _main:
  1274                           	callstack 20
  1275   00278C                     
  1276                           ;mainprojcet.c: 255:     char Buffer[32];;mainprojcet.c: 256:     initTimers01();
  1277   00278C  EC14  F027         	call	_initTimers01	;wreg free
  1278                           
  1279                           ;mainprojcet.c: 257:     setupPorts();
  1280   002790  EC37  F027         	call	_setupPorts	;wreg free
  1281   002794                     
  1282                           ;mainprojcet.c: 258:     lcd_init();
  1283   002794  EC6B  F024         	call	_lcd_init	;wreg free
  1284   002798                     
  1285                           ;mainprojcet.c: 259:     init_adc_no_lib() ;
  1286   002798  EC44  F027         	call	_init_adc_no_lib	;wreg free
  1287   00279C                     
  1288                           ;mainprojcet.c: 260:     initialization();
  1289   00279C  ECD1  F026         	call	_initialization	;wreg free
  1290   0027A0                     l169:
  1291   0027A0  0004               	clrwdt		;# 
  1292   0027A2                     
  1293                           ;mainprojcet.c: 267:       p1 = read_adc_voltage(0);
  1294   0027A2  0E00               	movlw	0
  1295   0027A4  EC66  F023         	call	_read_adc_voltage
  1296   0027A8  C0B2  F16E         	movff	?_read_adc_voltage,_p1
  1297   0027AC  C0B3  F16F         	movff	?_read_adc_voltage+1,_p1+1
  1298   0027B0  C0B4  F170         	movff	?_read_adc_voltage+2,_p1+2
  1299   0027B4  C0B5  F171         	movff	?_read_adc_voltage+3,_p1+3
  1300   0027B8                     
  1301                           ;mainprojcet.c: 268:       voltage = read_adc_voltage(2);
  1302   0027B8  0E02               	movlw	2
  1303   0027BA  EC66  F023         	call	_read_adc_voltage
  1304   0027BE  C0B2  F1C7         	movff	?_read_adc_voltage,_voltage
  1305   0027C2  C0B3  F1C8         	movff	?_read_adc_voltage+1,_voltage+1
  1306   0027C6  C0B4  F1C9         	movff	?_read_adc_voltage+2,_voltage+2
  1307   0027CA  C0B5  F1CA         	movff	?_read_adc_voltage+3,_voltage+3
  1308   0027CE                     
  1309                           ;mainprojcet.c: 269:       t = 300 * voltage;
  1310   0027CE  C1C7  F080         	movff	_voltage,___flmul@b
  1311   0027D2  C1C8  F081         	movff	_voltage+1,___flmul@b+1
  1312   0027D6  C1C9  F082         	movff	_voltage+2,___flmul@b+2
  1313   0027DA  C1CA  F083         	movff	_voltage+3,___flmul@b+3
  1314   0027DE  0E00               	movlw	0
  1315   0027E0  0100               	movlb	0	; () banked
  1316   0027E2  6F84               	movwf	___flmul@a& (0+255),b
  1317   0027E4  0E00               	movlw	0
  1318   0027E6  6F85               	movwf	(___flmul@a+1)& (0+255),b
  1319   0027E8  0E96               	movlw	150
  1320   0027EA  6F86               	movwf	(___flmul@a+2)& (0+255),b
  1321   0027EC  0E43               	movlw	67
  1322   0027EE  6F87               	movwf	(___flmul@a+3)& (0+255),b
  1323   0027F0  ECA1  F00F         	call	___flmul	;wreg free
  1324   0027F4  C080  F16A         	movff	?___flmul,_t
  1325   0027F8  C081  F16B         	movff	?___flmul+1,_t+1
  1326   0027FC  C082  F16C         	movff	?___flmul+2,_t+2
  1327   002800  C083  F16D         	movff	?___flmul+3,_t+3
  1328   002804                     
  1329                           ;mainprojcet.c: 270:       sp=t/5;
  1330   002804  C16A  F099         	movff	_t,___fldiv@b
  1331   002808  C16B  F09A         	movff	_t+1,___fldiv@b+1
  1332   00280C  C16C  F09B         	movff	_t+2,___fldiv@b+2
  1333   002810  C16D  F09C         	movff	_t+3,___fldiv@b+3
  1334   002814  0E00               	movlw	0
  1335   002816  0100               	movlb	0	; () banked
  1336   002818  6F9D               	movwf	___fldiv@a& (0+255),b
  1337   00281A  0E00               	movlw	0
  1338   00281C  6F9E               	movwf	(___fldiv@a+1)& (0+255),b
  1339   00281E  0EA0               	movlw	160
  1340   002820  6F9F               	movwf	(___fldiv@a+2)& (0+255),b
  1341   002822  0E40               	movlw	64
  1342   002824  6FA0               	movwf	(___fldiv@a+3)& (0+255),b
  1343   002826  ECA7  F015         	call	___fldiv	;wreg free
  1344   00282A  C099  F166         	movff	?___fldiv,_sp
  1345   00282E  C09A  F167         	movff	?___fldiv+1,_sp+1
  1346   002832  C09B  F168         	movff	?___fldiv+2,_sp+2
  1347   002836  C09C  F169         	movff	?___fldiv+3,_sp+3
  1348   00283A                     
  1349                           ;mainprojcet.c: 272:       lcd_gotoxy(1, 3);
  1350   00283A  0E03               	movlw	3
  1351   00283C  6E30               	movwf	lcd_gotoxy@y^0,c
  1352   00283E  0E01               	movlw	1
  1353   002840  ECF3  F023         	call	_lcd_gotoxy
  1354   002844                     
  1355                           ;mainprojcet.c: 273:       sprintf(Buffer, "SP:%4.1fC ",sp);
  1356   002844  0E3A               	movlw	low main@Buffer
  1357   002846  0100               	movlb	0	; () banked
  1358   002848  6FE8               	movwf	sprintf@s& (0+255),b
  1359   00284A  0E01               	movlw	high main@Buffer
  1360   00284C  6FE9               	movwf	(sprintf@s+1)& (0+255),b
  1361   00284E  0E01               	movlw	low STR_1
  1362   002850  6FEA               	movwf	sprintf@fmt& (0+255),b
  1363   002852  0E10               	movlw	high STR_1
  1364   002854  6FEB               	movwf	(sprintf@fmt+1)& (0+255),b
  1365   002856  C166  F0EC         	movff	_sp,?_sprintf+4
  1366   00285A  C167  F0ED         	movff	_sp+1,?_sprintf+5
  1367   00285E  C168  F0EE         	movff	_sp+2,?_sprintf+6
  1368   002862  C169  F0EF         	movff	_sp+3,?_sprintf+7
  1369   002866  ECD4  F024         	call	_sprintf	;wreg free
  1370   00286A                     
  1371                           ;mainprojcet.c: 274:       lcd_puts(Buffer);
  1372   00286A  0E3A               	movlw	low main@Buffer
  1373   00286C  0100               	movlb	0	; () banked
  1374   00286E  6F84               	movwf	lcd_puts@s& (0+255),b
  1375   002870  0E01               	movlw	high main@Buffer
  1376   002872  6F85               	movwf	(lcd_puts@s+1)& (0+255),b
  1377   002874  EC86  F026         	call	_lcd_puts	;wreg free
  1378   002878                     
  1379                           ;mainprojcet.c: 275:       lcd_gotoxy(1, 2);
  1380   002878  0E02               	movlw	2
  1381   00287A  6E30               	movwf	lcd_gotoxy@y^0,c
  1382   00287C  0E01               	movlw	1
  1383   00287E  ECF3  F023         	call	_lcd_gotoxy
  1384   002882                     
  1385                           ;mainprojcet.c: 276:       sprintf(Buffer, "CT:%4.1fC ", t);
  1386   002882  0E3A               	movlw	low main@Buffer
  1387   002884  0100               	movlb	0	; () banked
  1388   002886  6FE8               	movwf	sprintf@s& (0+255),b
  1389   002888  0E01               	movlw	high main@Buffer
  1390   00288A  6FE9               	movwf	(sprintf@s+1)& (0+255),b
  1391   00288C  0E0C               	movlw	low STR_2
  1392   00288E  6FEA               	movwf	sprintf@fmt& (0+255),b
  1393   002890  0E10               	movlw	high STR_2
  1394   002892  6FEB               	movwf	(sprintf@fmt+1)& (0+255),b
  1395   002894  C16A  F0EC         	movff	_t,?_sprintf+4
  1396   002898  C16B  F0ED         	movff	_t+1,?_sprintf+5
  1397   00289C  C16C  F0EE         	movff	_t+2,?_sprintf+6
  1398   0028A0  C16D  F0EF         	movff	_t+3,?_sprintf+7
  1399   0028A4  ECD4  F024         	call	_sprintf	;wreg free
  1400   0028A8                     
  1401                           ;mainprojcet.c: 277:       lcd_puts(Buffer);
  1402   0028A8  0E3A               	movlw	low main@Buffer
  1403   0028AA  0100               	movlb	0	; () banked
  1404   0028AC  6F84               	movwf	lcd_puts@s& (0+255),b
  1405   0028AE  0E01               	movlw	high main@Buffer
  1406   0028B0  6F85               	movwf	(lcd_puts@s+1)& (0+255),b
  1407   0028B2  EC86  F026         	call	_lcd_puts	;wreg free
  1408   0028B6                     
  1409                           ;mainprojcet.c: 279:       if(PORTBbits.RB3 == 0&& modeschange==6){
  1410   0028B6  B681               	btfsc	129,3,c	;volatile
  1411   0028B8  EF60  F014         	goto	u8261
  1412   0028BC  EF62  F014         	goto	u8260
  1413   0028C0                     u8261:
  1414   0028C0  EFA9  F014         	goto	l6872
  1415   0028C4                     u8260:
  1416   0028C4  0E06               	movlw	6
  1417   0028C6  0101               	movlb	1	; () banked
  1418   0028C8  1976               	xorwf	_modeschange& (0+255),w,b
  1419   0028CA  A4D8               	btfss	status,2,c
  1420   0028CC  EF6A  F014         	goto	u8271
  1421   0028D0  EF6C  F014         	goto	u8270
  1422   0028D4                     u8271:
  1423   0028D4  EFA9  F014         	goto	l6872
  1424   0028D8                     u8270:
  1425   0028D8                     
  1426                           ; BSR set to: 1
  1427                           ;mainprojcet.c: 280:           if(Percent_Heat_Counter==10)
  1428   0028D8  C038  F026         	movff	_Percent_Heat_Counter,___fleq@ff1
  1429   0028DC  C039  F027         	movff	_Percent_Heat_Counter+1,___fleq@ff1+1
  1430   0028E0  C03A  F028         	movff	_Percent_Heat_Counter+2,___fleq@ff1+2
  1431   0028E4  C03B  F029         	movff	_Percent_Heat_Counter+3,___fleq@ff1+3
  1432   0028E8  0E00               	movlw	0
  1433   0028EA  6E2A               	movwf	___fleq@ff2^0,c
  1434   0028EC  0E00               	movlw	0
  1435   0028EE  6E2B               	movwf	(___fleq@ff2+1)^0,c
  1436   0028F0  0E20               	movlw	32
  1437   0028F2  6E2C               	movwf	(___fleq@ff2+2)^0,c
  1438   0028F4  0E41               	movlw	65
  1439   0028F6  6E2D               	movwf	(___fleq@ff2+3)^0,c
  1440   0028F8  ECBC  F022         	call	___fleq	;wreg free
  1441   0028FC  A0D8               	btfss	status,0,c
  1442   0028FE  EF83  F014         	goto	u8281
  1443   002902  EF85  F014         	goto	u8280
  1444   002906                     u8281:
  1445   002906  EF8F  F014         	goto	l6870
  1446   00290A                     u8280:
  1447   00290A                     
  1448                           ;mainprojcet.c: 281:               Percent_Heat_Counter=10;
  1449   00290A  0E00               	movlw	0
  1450   00290C  6E38               	movwf	_Percent_Heat_Counter^0,c
  1451   00290E  0E00               	movlw	0
  1452   002910  6E39               	movwf	(_Percent_Heat_Counter+1)^0,c
  1453   002912  0E20               	movlw	32
  1454   002914  6E3A               	movwf	(_Percent_Heat_Counter+2)^0,c
  1455   002916  0E41               	movlw	65
  1456   002918  6E3B               	movwf	(_Percent_Heat_Counter+3)^0,c
  1457   00291A  EFA9  F014         	goto	l6872
  1458   00291E                     l6870:
  1459                           
  1460                           ;mainprojcet.c: 283:         Percent_Heat_Counter++;
  1461   00291E  C038  F026         	movff	_Percent_Heat_Counter,___fladd@b
  1462   002922  C039  F027         	movff	_Percent_Heat_Counter+1,___fladd@b+1
  1463   002926  C03A  F028         	movff	_Percent_Heat_Counter+2,___fladd@b+2
  1464   00292A  C03B  F029         	movff	_Percent_Heat_Counter+3,___fladd@b+3
  1465   00292E  0E00               	movlw	0
  1466   002930  6E2A               	movwf	___fladd@a^0,c
  1467   002932  0E00               	movlw	0
  1468   002934  6E2B               	movwf	(___fladd@a+1)^0,c
  1469   002936  0E80               	movlw	128
  1470   002938  6E2C               	movwf	(___fladd@a+2)^0,c
  1471   00293A  0E3F               	movlw	63
  1472   00293C  6E2D               	movwf	(___fladd@a+3)^0,c
  1473   00293E  EC40  F00D         	call	___fladd	;wreg free
  1474   002942  C026  F038         	movff	?___fladd,_Percent_Heat_Counter
  1475   002946  C027  F039         	movff	?___fladd+1,_Percent_Heat_Counter+1
  1476   00294A  C028  F03A         	movff	?___fladd+2,_Percent_Heat_Counter+2
  1477   00294E  C029  F03B         	movff	?___fladd+3,_Percent_Heat_Counter+3
  1478   002952                     l6872:
  1479                           
  1480                           ;mainprojcet.c: 286:       if(PORTBbits.RB4 == 0 && modeschange==6){
  1481   002952  B881               	btfsc	129,4,c	;volatile
  1482   002954  EFAE  F014         	goto	u8291
  1483   002958  EFB0  F014         	goto	u8290
  1484   00295C                     u8291:
  1485   00295C  EFF8  F014         	goto	l173
  1486   002960                     u8290:
  1487   002960  0E06               	movlw	6
  1488   002962  0101               	movlb	1	; () banked
  1489   002964  1976               	xorwf	_modeschange& (0+255),w,b
  1490   002966  A4D8               	btfss	status,2,c
  1491   002968  EFB8  F014         	goto	u8301
  1492   00296C  EFBA  F014         	goto	u8300
  1493   002970                     u8301:
  1494   002970  EFF8  F014         	goto	l173
  1495   002974                     u8300:
  1496   002974                     
  1497                           ; BSR set to: 1
  1498                           ;mainprojcet.c: 287:           if(Percent_Heat_Counter==0)
  1499   002974  C038  F026         	movff	_Percent_Heat_Counter,___fleq@ff1
  1500   002978  C039  F027         	movff	_Percent_Heat_Counter+1,___fleq@ff1+1
  1501   00297C  C03A  F028         	movff	_Percent_Heat_Counter+2,___fleq@ff1+2
  1502   002980  C03B  F029         	movff	_Percent_Heat_Counter+3,___fleq@ff1+3
  1503   002984  0E00               	movlw	0
  1504   002986  6E2A               	movwf	___fleq@ff2^0,c
  1505   002988  0E00               	movlw	0
  1506   00298A  6E2B               	movwf	(___fleq@ff2+1)^0,c
  1507   00298C  0E00               	movlw	0
  1508   00298E  6E2C               	movwf	(___fleq@ff2+2)^0,c
  1509   002990  0E00               	movlw	0
  1510   002992  6E2D               	movwf	(___fleq@ff2+3)^0,c
  1511   002994  ECBC  F022         	call	___fleq	;wreg free
  1512   002998  A0D8               	btfss	status,0,c
  1513   00299A  EFD1  F014         	goto	u8311
  1514   00299E  EFD3  F014         	goto	u8310
  1515   0029A2                     u8311:
  1516   0029A2  EFDD  F014         	goto	l6880
  1517   0029A6                     u8310:
  1518   0029A6                     
  1519                           ;mainprojcet.c: 288:               Percent_Heat_Counter=0;
  1520   0029A6  0E00               	movlw	0
  1521   0029A8  6E38               	movwf	_Percent_Heat_Counter^0,c
  1522   0029AA  0E00               	movlw	0
  1523   0029AC  6E39               	movwf	(_Percent_Heat_Counter+1)^0,c
  1524   0029AE  0E00               	movlw	0
  1525   0029B0  6E3A               	movwf	(_Percent_Heat_Counter+2)^0,c
  1526   0029B2  0E00               	movlw	0
  1527   0029B4  6E3B               	movwf	(_Percent_Heat_Counter+3)^0,c
  1528   0029B6  EFF8  F014         	goto	l173
  1529   0029BA                     l6880:
  1530                           
  1531                           ;mainprojcet.c: 290:         Percent_Heat_Counter--;
  1532   0029BA  C038  F099         	movff	_Percent_Heat_Counter,___flsub@b
  1533   0029BE  C039  F09A         	movff	_Percent_Heat_Counter+1,___flsub@b+1
  1534   0029C2  C03A  F09B         	movff	_Percent_Heat_Counter+2,___flsub@b+2
  1535   0029C6  C03B  F09C         	movff	_Percent_Heat_Counter+3,___flsub@b+3
  1536   0029CA  0E00               	movlw	0
  1537   0029CC  0100               	movlb	0	; () banked
  1538   0029CE  6F9D               	movwf	___flsub@a& (0+255),b
  1539   0029D0  0E00               	movlw	0
  1540   0029D2  6F9E               	movwf	(___flsub@a+1)& (0+255),b
  1541   0029D4  0E80               	movlw	128
  1542   0029D6  6F9F               	movwf	(___flsub@a+2)& (0+255),b
  1543   0029D8  0E3F               	movlw	63
  1544   0029DA  6FA0               	movwf	(___flsub@a+3)& (0+255),b
  1545   0029DC  ECA3  F025         	call	___flsub	;wreg free
  1546   0029E0  C099  F038         	movff	?___flsub,_Percent_Heat_Counter
  1547   0029E4  C09A  F039         	movff	?___flsub+1,_Percent_Heat_Counter+1
  1548   0029E8  C09B  F03A         	movff	?___flsub+2,_Percent_Heat_Counter+2
  1549   0029EC  C09C  F03B         	movff	?___flsub+3,_Percent_Heat_Counter+3
  1550   0029F0                     l173:
  1551                           
  1552                           ;mainprojcet.c: 292:       lcd_gotoxy(1, 4);
  1553   0029F0  0E04               	movlw	4
  1554   0029F2  6E30               	movwf	lcd_gotoxy@y^0,c
  1555   0029F4  0E01               	movlw	1
  1556   0029F6  ECF3  F023         	call	_lcd_gotoxy
  1557   0029FA                     
  1558                           ;mainprojcet.c: 293:       sprintf(Buffer, "MD:%s", modeschange==0?"S  ":modeschange==1?
      +                          "10S  ":modeschange==2?"M  ":modeschange==3?"10M  ":modeschange==4?"HR  ":modeschange==5
      +                          ?"HY  ":"HT  ");
  1559   0029FA  0101               	movlb	1	; () banked
  1560   0029FC  5176               	movf	_modeschange& (0+255),w,b
  1561   0029FE  B4D8               	btfsc	status,2,c
  1562   002A00  EF04  F015         	goto	u8321
  1563   002A04  EF06  F015         	goto	u8320
  1564   002A08                     u8321:
  1565   002A08  EF6A  F015         	goto	l6906
  1566   002A0C                     u8320:
  1567   002A0C                     
  1568                           ; BSR set to: 1
  1569   002A0C  0576               	decf	_modeschange& (0+255),w,b
  1570   002A0E  B4D8               	btfsc	status,2,c
  1571   002A10  EF0C  F015         	goto	u8331
  1572   002A14  EF0E  F015         	goto	u8330
  1573   002A18                     u8331:
  1574   002A18  EF60  F015         	goto	l6904
  1575   002A1C                     u8330:
  1576   002A1C                     
  1577                           ; BSR set to: 1
  1578   002A1C  0E02               	movlw	2
  1579   002A1E  1976               	xorwf	_modeschange& (0+255),w,b
  1580   002A20  B4D8               	btfsc	status,2,c
  1581   002A22  EF15  F015         	goto	u8341
  1582   002A26  EF17  F015         	goto	u8340
  1583   002A2A                     u8341:
  1584   002A2A  EF56  F015         	goto	l6902
  1585   002A2E                     u8340:
  1586   002A2E                     
  1587                           ; BSR set to: 1
  1588   002A2E  0E03               	movlw	3
  1589   002A30  1976               	xorwf	_modeschange& (0+255),w,b
  1590   002A32  B4D8               	btfsc	status,2,c
  1591   002A34  EF1E  F015         	goto	u8351
  1592   002A38  EF20  F015         	goto	u8350
  1593   002A3C                     u8351:
  1594   002A3C  EF4C  F015         	goto	l6900
  1595   002A40                     u8350:
  1596   002A40                     
  1597                           ; BSR set to: 1
  1598   002A40  0E04               	movlw	4
  1599   002A42  1976               	xorwf	_modeschange& (0+255),w,b
  1600   002A44  B4D8               	btfsc	status,2,c
  1601   002A46  EF27  F015         	goto	u8361
  1602   002A4A  EF29  F015         	goto	u8360
  1603   002A4E                     u8361:
  1604   002A4E  EF42  F015         	goto	l6898
  1605   002A52                     u8360:
  1606   002A52                     
  1607                           ; BSR set to: 1
  1608   002A52  0E05               	movlw	5
  1609   002A54  1976               	xorwf	_modeschange& (0+255),w,b
  1610   002A56  B4D8               	btfsc	status,2,c
  1611   002A58  EF30  F015         	goto	u8371
  1612   002A5C  EF32  F015         	goto	u8370
  1613   002A60                     u8371:
  1614   002A60  EF38  F015         	goto	l6896
  1615   002A64                     u8370:
  1616   002A64                     
  1617                           ; BSR set to: 1
  1618   002A64  0E2E               	movlw	low STR_10
  1619   002A66  6F64               	movwf	_main$742& (0+255),b
  1620   002A68  0E10               	movlw	high STR_10
  1621   002A6A  6F65               	movwf	(_main$742+1)& (0+255),b
  1622   002A6C  EF3C  F015         	goto	l199
  1623   002A70                     l6896:
  1624                           
  1625                           ; BSR set to: 1
  1626   002A70  0E33               	movlw	low STR_9
  1627   002A72  6F64               	movwf	_main$742& (0+255),b
  1628   002A74  0E10               	movlw	high STR_9
  1629   002A76  6F65               	movwf	(_main$742+1)& (0+255),b
  1630   002A78                     l199:
  1631                           
  1632                           ; BSR set to: 1
  1633   002A78  C164  F162         	movff	_main$742,_main$741
  1634   002A7C  C165  F163         	movff	_main$742+1,_main$741+1
  1635   002A80  EF46  F015         	goto	l195
  1636   002A84                     l6898:
  1637                           
  1638                           ; BSR set to: 1
  1639   002A84  0E29               	movlw	low STR_8
  1640   002A86  6F62               	movwf	_main$741& (0+255),b
  1641   002A88  0E10               	movlw	high STR_8
  1642   002A8A  6F63               	movwf	(_main$741+1)& (0+255),b
  1643   002A8C                     l195:
  1644                           
  1645                           ; BSR set to: 1
  1646   002A8C  C162  F160         	movff	_main$741,_main$740
  1647   002A90  C163  F161         	movff	_main$741+1,_main$740+1
  1648   002A94  EF50  F015         	goto	l191
  1649   002A98                     l6900:
  1650                           
  1651                           ; BSR set to: 1
  1652   002A98  0E17               	movlw	low STR_7
  1653   002A9A  6F60               	movwf	_main$740& (0+255),b
  1654   002A9C  0E10               	movlw	high STR_7
  1655   002A9E  6F61               	movwf	(_main$740+1)& (0+255),b
  1656   002AA0                     l191:
  1657                           
  1658                           ; BSR set to: 1
  1659   002AA0  C160  F15E         	movff	_main$740,_main$739
  1660   002AA4  C161  F15F         	movff	_main$740+1,_main$739+1
  1661   002AA8  EF5A  F015         	goto	l187
  1662   002AAC                     l6902:
  1663                           
  1664                           ; BSR set to: 1
  1665   002AAC  0E19               	movlw	low (STR_7+2)
  1666   002AAE  6F5E               	movwf	_main$739& (0+255),b
  1667   002AB0  0E10               	movlw	high (STR_7+2)
  1668   002AB2  6F5F               	movwf	(_main$739+1)& (0+255),b
  1669   002AB4                     l187:
  1670                           
  1671                           ; BSR set to: 1
  1672   002AB4  C15E  F15C         	movff	_main$739,_main$738
  1673   002AB8  C15F  F15D         	movff	_main$739+1,_main$738+1
  1674   002ABC  EF64  F015         	goto	l183
  1675   002AC0                     l6904:
  1676                           
  1677                           ; BSR set to: 1
  1678   002AC0  0E1D               	movlw	low STR_5
  1679   002AC2  6F5C               	movwf	_main$738& (0+255),b
  1680   002AC4  0E10               	movlw	high STR_5
  1681   002AC6  6F5D               	movwf	(_main$738+1)& (0+255),b
  1682   002AC8                     l183:
  1683                           
  1684                           ; BSR set to: 1
  1685   002AC8  C15C  F15A         	movff	_main$738,_main$737
  1686   002ACC  C15D  F15B         	movff	_main$738+1,_main$737+1
  1687   002AD0  EF6E  F015         	goto	l6908
  1688   002AD4                     l6906:
  1689                           
  1690                           ; BSR set to: 1
  1691   002AD4  0E1F               	movlw	low (STR_5+2)
  1692   002AD6  6F5A               	movwf	_main$737& (0+255),b
  1693   002AD8  0E10               	movlw	high (STR_5+2)
  1694   002ADA  6F5B               	movwf	(_main$737+1)& (0+255),b
  1695   002ADC                     l6908:
  1696                           
  1697                           ; BSR set to: 1
  1698   002ADC  0E3A               	movlw	low main@Buffer
  1699   002ADE  0100               	movlb	0	; () banked
  1700   002AE0  6FE8               	movwf	sprintf@s& (0+255),b
  1701   002AE2  0E01               	movlw	high main@Buffer
  1702   002AE4  6FE9               	movwf	(sprintf@s+1)& (0+255),b
  1703   002AE6  0E23               	movlw	low STR_3
  1704   002AE8  6FEA               	movwf	sprintf@fmt& (0+255),b
  1705   002AEA  0E10               	movlw	high STR_3
  1706   002AEC  6FEB               	movwf	(sprintf@fmt+1)& (0+255),b
  1707   002AEE  C15A  F0EC         	movff	_main$737,?_sprintf+4
  1708   002AF2  C15B  F0ED         	movff	_main$737+1,?_sprintf+5
  1709   002AF6  ECD4  F024         	call	_sprintf	;wreg free
  1710   002AFA                     
  1711                           ;mainprojcet.c: 294:       lcd_puts(Buffer);
  1712   002AFA  0E3A               	movlw	low main@Buffer
  1713   002AFC  0100               	movlb	0	; () banked
  1714   002AFE  6F84               	movwf	lcd_puts@s& (0+255),b
  1715   002B00  0E01               	movlw	high main@Buffer
  1716   002B02  6F85               	movwf	(lcd_puts@s+1)& (0+255),b
  1717   002B04  EC86  F026         	call	_lcd_puts	;wreg free
  1718   002B08                     
  1719                           ;mainprojcet.c: 295:       lcd_gotoxy(13, 4);
  1720   002B08  0E04               	movlw	4
  1721   002B0A  6E30               	movwf	lcd_gotoxy@y^0,c
  1722   002B0C  0E0D               	movlw	13
  1723   002B0E  ECF3  F023         	call	_lcd_gotoxy
  1724   002B12                     
  1725                           ;mainprojcet.c: 296:       sprintf(Buffer, "H:%d",Percent_Heat_Counter);
  1726   002B12  0E3A               	movlw	low main@Buffer
  1727   002B14  0100               	movlb	0	; () banked
  1728   002B16  6FE8               	movwf	sprintf@s& (0+255),b
  1729   002B18  0E01               	movlw	high main@Buffer
  1730   002B1A  6FE9               	movwf	(sprintf@s+1)& (0+255),b
  1731   002B1C  0E38               	movlw	low STR_11
  1732   002B1E  6FEA               	movwf	sprintf@fmt& (0+255),b
  1733   002B20  0E10               	movlw	high STR_11
  1734   002B22  6FEB               	movwf	(sprintf@fmt+1)& (0+255),b
  1735   002B24  C038  F0EC         	movff	_Percent_Heat_Counter,?_sprintf+4
  1736   002B28  C039  F0ED         	movff	_Percent_Heat_Counter+1,?_sprintf+5
  1737   002B2C  C03A  F0EE         	movff	_Percent_Heat_Counter+2,?_sprintf+6
  1738   002B30  C03B  F0EF         	movff	_Percent_Heat_Counter+3,?_sprintf+7
  1739   002B34  ECD4  F024         	call	_sprintf	;wreg free
  1740   002B38                     
  1741                           ;mainprojcet.c: 297:       lcd_puts(Buffer);
  1742   002B38  0E3A               	movlw	low main@Buffer
  1743   002B3A  0100               	movlb	0	; () banked
  1744   002B3C  6F84               	movwf	lcd_puts@s& (0+255),b
  1745   002B3E  0E01               	movlw	high main@Buffer
  1746   002B40  6F85               	movwf	(lcd_puts@s+1)& (0+255),b
  1747   002B42  EC86  F026         	call	_lcd_puts	;wreg free
  1748   002B46  EFD0  F013         	goto	l169
  1749   002B4A  EF07  F000         	goto	start
  1750   002B4E                     __end_of_main:
  1751                           	callstack 0
  1752                           
  1753 ;; *************** function _sprintf *****************
  1754 ;; Defined at:
  1755 ;;		line 9 in file "C:\Program Files\Microchip\xc8\v2.41\pic\sources\c99\common\nf_sprintf.c"
  1756 ;; Parameters:    Size  Location     Type
  1757 ;;  s               2  104[BANK0 ] PTR unsigned char 
  1758 ;;		 -> main@Buffer(32), 
  1759 ;;  fmt             2  106[BANK0 ] PTR const unsigned char 
  1760 ;;		 -> STR_11(5), STR_3(6), STR_2(11), STR_1(11), 
  1761 ;; Auto vars:     Size  Location     Type
  1762 ;;  f              12   46[BANK1 ] struct _IO_FILE
  1763 ;;  ap              2   44[BANK1 ] PTR void [1]
  1764 ;;		 -> ?_sprintf(2), 
  1765 ;;  ret             2    0        int 
  1766 ;; Return value:  Size  Location     Type
  1767 ;;                  2  104[BANK0 ] int 
  1768 ;; Registers used:
  1769 ;;		wreg, fsr1l, fsr1h, fsr2l, fsr2h, status,2, status,0, tblptrl, tblptrh, tblptru, prodl, prodh, cstack
  1770 ;; Tracked objects:
  1771 ;;		On entry : 0/0
  1772 ;;		On exit  : 0/0
  1773 ;;		Unchanged: 0/0
  1774 ;; Data sizes:     COMRAM   BANK0   BANK1   BANK2   BANK3   BANK4   BANK5   BANK6   BANK7   BANK8   BANK9  BANK10  BANK1
      +1  BANK12  BANK13  BANK14  BANK15
  1775 ;;      Params:         0       8       0       0       0       0       0       0       0       0       0       0       
      +0       0       0       0       0
  1776 ;;      Locals:         0       0      14       0       0       0       0       0       0       0       0       0       
      +0       0       0       0       0
  1777 ;;      Temps:          0       0       0       0       0       0       0       0       0       0       0       0       
      +0       0       0       0       0
  1778 ;;      Totals:         0       8      14       0       0       0       0       0       0       0       0       0       
      +0       0       0       0       0
  1779 ;;Total ram usage:       22 bytes
  1780 ;; Hardware stack levels used: 1
  1781 ;; Hardware stack levels required when called: 10
  1782 ;; This function calls:
  1783 ;;		_vfprintf
  1784 ;; This function is called by:
  1785 ;;		_main
  1786 ;; This function uses a non-reentrant model
  1787 ;;
  1788                           
  1789                           	psect	text1
  1790   0049A8                     __ptext1:
  1791                           	callstack 0
  1792   0049A8                     _sprintf:
  1793                           	callstack 20
  1794   0049A8  0EEC               	movlw	low (?_sprintf+4)
  1795   0049AA  0101               	movlb	1	; () banked
  1796   0049AC  6F2C               	movwf	sprintf@ap& (0+255),b
  1797   0049AE  0E00               	movlw	high (?_sprintf+4)
  1798   0049B0  6F2D               	movwf	(sprintf@ap+1)& (0+255),b
  1799   0049B2  C0E8  F12E         	movff	sprintf@s,sprintf@f
  1800   0049B6  C0E9  F12F         	movff	sprintf@s+1,sprintf@f+1
  1801   0049BA                     
  1802                           ; BSR set to: 1
  1803   0049BA  0E00               	movlw	0
  1804   0049BC  6F32               	movwf	(sprintf@f+4)& (0+255),b
  1805   0049BE  0E00               	movlw	0
  1806   0049C0  6F31               	movwf	(sprintf@f+3)& (0+255),b
  1807   0049C2                     
  1808                           ; BSR set to: 1
  1809   0049C2  0E00               	movlw	0
  1810   0049C4  6F39               	movwf	(sprintf@f+11)& (0+255),b
  1811   0049C6  0E00               	movlw	0
  1812   0049C8  6F38               	movwf	(sprintf@f+10)& (0+255),b
  1813   0049CA                     
  1814                           ; BSR set to: 1
  1815   0049CA  0E2E               	movlw	low sprintf@f
  1816   0049CC  0100               	movlb	0	; () banked
  1817   0049CE  6FE0               	movwf	vfprintf@fp& (0+255),b
  1818   0049D0  0E01               	movlw	high sprintf@f
  1819   0049D2  6FE1               	movwf	(vfprintf@fp+1)& (0+255),b
  1820   0049D4  C0EA  F0E2         	movff	sprintf@fmt,vfprintf@fmt
  1821   0049D8  C0EB  F0E3         	movff	sprintf@fmt+1,vfprintf@fmt+1
  1822   0049DC  0E2C               	movlw	low sprintf@ap
  1823   0049DE  6FE4               	movwf	vfprintf@ap& (0+255),b
  1824   0049E0  0E01               	movlw	high sprintf@ap
  1825   0049E2  6FE5               	movwf	(vfprintf@ap+1)& (0+255),b
  1826   0049E4  EC2A  F025         	call	_vfprintf	;wreg free
  1827   0049E8  0101               	movlb	1	; () banked
  1828   0049EA  5131               	movf	(sprintf@f+3)& (0+255),w,b
  1829   0049EC  0100               	movlb	0	; () banked
  1830   0049EE  25E8               	addwf	sprintf@s& (0+255),w,b
  1831   0049F0  6ED9               	movwf	fsr2l,c
  1832   0049F2  0101               	movlb	1	; () banked
  1833   0049F4  5132               	movf	(sprintf@f+4)& (0+255),w,b
  1834   0049F6  0100               	movlb	0	; () banked
  1835   0049F8  21E9               	addwfc	(sprintf@s+1)& (0+255),w,b
  1836   0049FA  6EDA               	movwf	fsr2h,c
  1837   0049FC  6ADF               	clrf	indf2,c
  1838   0049FE                     
  1839                           ; BSR set to: 0
  1840   0049FE  0012               	return		;funcret
  1841   004A00                     __end_of_sprintf:
  1842                           	callstack 0
  1843                           
  1844 ;; *************** function _vfprintf *****************
  1845 ;; Defined at:
  1846 ;;		line 1546 in file "C:\Program Files\Microchip\xc8\v2.41\pic\sources\c99\common\doprnt.c"
  1847 ;; Parameters:    Size  Location     Type
  1848 ;;  fp              2   96[BANK0 ] PTR struct _IO_FILE
  1849 ;;		 -> sprintf@f(12), 
  1850 ;;  fmt             2   98[BANK0 ] PTR const unsigned char 
  1851 ;;		 -> STR_11(5), STR_3(6), STR_2(11), STR_1(11), 
  1852 ;;  ap              2  100[BANK0 ] PTR PTR void 
  1853 ;;		 -> sprintf@ap(2), 
  1854 ;; Auto vars:     Size  Location     Type
  1855 ;;  cfmt            2  102[BANK0 ] PTR unsigned char 
  1856 ;;		 -> STR_11(5), STR_3(6), STR_2(11), STR_1(11), 
  1857 ;; Return value:  Size  Location     Type
  1858 ;;                  2   96[BANK0 ] int 
  1859 ;; Registers used:
  1860 ;;		wreg, fsr1l, fsr1h, fsr2l, fsr2h, status,2, status,0, tblptrl, tblptrh, tblptru, prodl, prodh, cstack
  1861 ;; Tracked objects:
  1862 ;;		On entry : 0/0
  1863 ;;		On exit  : 0/0
  1864 ;;		Unchanged: 0/0
  1865 ;; Data sizes:     COMRAM   BANK0   BANK1   BANK2   BANK3   BANK4   BANK5   BANK6   BANK7   BANK8   BANK9  BANK10  BANK1
      +1  BANK12  BANK13  BANK14  BANK15
  1866 ;;      Params:         0       6       0       0       0       0       0       0       0       0       0       0       
      +0       0       0       0       0
  1867 ;;      Locals:         0       2       0       0       0       0       0       0       0       0       0       0       
      +0       0       0       0       0
  1868 ;;      Temps:          0       0       0       0       0       0       0       0       0       0       0       0       
      +0       0       0       0       0
  1869 ;;      Totals:         0       8       0       0       0       0       0       0       0       0       0       0       
      +0       0       0       0       0
  1870 ;;Total ram usage:        8 bytes
  1871 ;; Hardware stack levels used: 1
  1872 ;; Hardware stack levels required when called: 9
  1873 ;; This function calls:
  1874 ;;		_vfpfcnvrt
  1875 ;; This function is called by:
  1876 ;;		_sprintf
  1877 ;; This function uses a non-reentrant model
  1878 ;;
  1879                           
  1880                           	psect	text2
  1881   004A54                     __ptext2:
  1882                           	callstack 0
  1883   004A54                     _vfprintf:
  1884                           	callstack 20
  1885   004A54                     
  1886                           ;C:\Program Files\Microchip\xc8\v2.41\pic\sources\c99\common\doprnt.c: 1546: int vfprint
      +                          f(FILE *fp, const char *fmt, va_list ap);C:\Program Files\Microchip\xc8\v2.41\pic\source
      +                          s\c99\common\doprnt.c: 1547: {;C:\Program Files\Microchip\xc8\v2.41\pic\sources\c99\comm
      +                          on\doprnt.c: 1549:     char *cfmt;;C:\Program Files\Microchip\xc8\v2.41\pic\sources\c99\
      +                          common\doprnt.c: 1551:     cfmt = (char *)fmt;
  1887   004A54  C0E2  F0E6         	movff	vfprintf@fmt,vfprintf@cfmt
  1888   004A58  C0E3  F0E7         	movff	vfprintf@fmt+1,vfprintf@cfmt+1
  1889                           
  1890                           ;C:\Program Files\Microchip\xc8\v2.41\pic\sources\c99\common\doprnt.c: 1555:     while (
      +                          *cfmt) {
  1891   004A5C  EF3F  F025         	goto	l6730
  1892   004A60                     l6728:
  1893                           
  1894                           ;C:\Program Files\Microchip\xc8\v2.41\pic\sources\c99\common\doprnt.c: 1559:    vfpfcnvr
      +                          t(fp, &cfmt, ap);
  1895   004A60  C0E0  F0CF         	movff	vfprintf@fp,vfpfcnvrt@fp
  1896   004A64  C0E1  F0D0         	movff	vfprintf@fp+1,vfpfcnvrt@fp+1
  1897   004A68  0EE6               	movlw	low vfprintf@cfmt
  1898   004A6A  0100               	movlb	0	; () banked
  1899   004A6C  6FD1               	movwf	vfpfcnvrt@fmt& (0+255),b
  1900   004A6E  0E00               	movlw	high vfprintf@cfmt
  1901   004A70  6FD2               	movwf	(vfpfcnvrt@fmt+1)& (0+255),b
  1902   004A72  C0E4  F0D3         	movff	vfprintf@ap,vfpfcnvrt@ap
  1903   004A76  C0E5  F0D4         	movff	vfprintf@ap+1,vfpfcnvrt@ap+1
  1904   004A7A  ECB7  F011         	call	_vfpfcnvrt	;wreg free
  1905   004A7E                     l6730:
  1906                           
  1907                           ;C:\Program Files\Microchip\xc8\v2.41\pic\sources\c99\common\doprnt.c: 1555:     while (
      +                          *cfmt) {
  1908   004A7E  C0E6  FFF6         	movff	vfprintf@cfmt,tblptrl
  1909   004A82  C0E7  FFF7         	movff	vfprintf@cfmt+1,tblptrh
  1910   004A86                     	if	0	;tblptru may be non-zero
  1911   004A86                     	endif
  1912   004A86                     	if	0	;tblptru may be non-zero
  1913   004A86                     	endif
  1914   004A86  0008               	tblrd		*
  1915   004A88  50F5               	movf	tablat,w,c
  1916   004A8A  0900               	iorlw	0
  1917   004A8C  A4D8               	btfss	status,2,c
  1918   004A8E  EF4B  F025         	goto	u8151
  1919   004A92  EF4D  F025         	goto	u8150
  1920   004A96                     u8151:
  1921   004A96  EF30  F025         	goto	l6728
  1922   004A9A                     u8150:
  1923   004A9A                     
  1924                           ;C:\Program Files\Microchip\xc8\v2.41\pic\sources\c99\common\doprnt.c: 1564:  return 0;
  1925   004A9A  0E00               	movlw	0
  1926   004A9C  0100               	movlb	0	; () banked
  1927   004A9E  6FE1               	movwf	(?_vfprintf+1)& (0+255),b
  1928   004AA0  0E00               	movlw	0
  1929   004AA2  6FE0               	movwf	?_vfprintf& (0+255),b
  1930   004AA4                     
  1931                           ; BSR set to: 0
  1932   004AA4  0012               	return		;funcret
  1933   004AA6                     __end_of_vfprintf:
  1934                           	callstack 0
  1935                           
  1936 ;; *************** function _vfpfcnvrt *****************
  1937 ;; Defined at:
  1938 ;;		line 1048 in file "C:\Program Files\Microchip\xc8\v2.41\pic\sources\c99\common\doprnt.c"
  1939 ;; Parameters:    Size  Location     Type
  1940 ;;  fp              2   79[BANK0 ] PTR struct _IO_FILE
  1941 ;;		 -> sprintf@f(12), 
  1942 ;;  fmt             2   81[BANK0 ] PTR PTR unsigned char 
  1943 ;;		 -> vfprintf@cfmt(2), 
  1944 ;;  ap              2   83[BANK0 ] PTR PTR void 
  1945 ;;		 -> sprintf@ap(2), 
  1946 ;; Auto vars:     Size  Location     Type
  1947 ;;  convarg         4   89[BANK0 ] struct .
  1948 ;;  cp              2   94[BANK0 ] PTR unsigned char 
  1949 ;;		 -> STR_11(5), STR_3(6), STR_2(11), STR_1(11), 
  1950 ;;  i               2    0        int 
  1951 ;;  done            2    0        int 
  1952 ;;  c               1   93[BANK0 ] unsigned char 
  1953 ;; Return value:  Size  Location     Type
  1954 ;;                  1    wreg      void 
  1955 ;; Registers used:
  1956 ;;		wreg, fsr1l, fsr1h, fsr2l, fsr2h, status,2, status,0, tblptrl, tblptrh, tblptru, prodl, prodh, cstack
  1957 ;; Tracked objects:
  1958 ;;		On entry : 0/0
  1959 ;;		On exit  : 0/0
  1960 ;;		Unchanged: 0/0
  1961 ;; Data sizes:     COMRAM   BANK0   BANK1   BANK2   BANK3   BANK4   BANK5   BANK6   BANK7   BANK8   BANK9  BANK10  BANK1
      +1  BANK12  BANK13  BANK14  BANK15
  1962 ;;      Params:         0       6       0       0       0       0       0       0       0       0       0       0       
      +0       0       0       0       0
  1963 ;;      Locals:         0       9       0       0       0       0       0       0       0       0       0       0       
      +0       0       0       0       0
  1964 ;;      Temps:          0       2       0       0       0       0       0       0       0       0       0       0       
      +0       0       0       0       0
  1965 ;;      Totals:         0      17       0       0       0       0       0       0       0       0       0       0       
      +0       0       0       0       0
  1966 ;;Total ram usage:       17 bytes
  1967 ;; Hardware stack levels used: 1
  1968 ;; Hardware stack levels required when called: 8
  1969 ;; This function calls:
  1970 ;;		_dtoa
  1971 ;;		_efgtoa
  1972 ;;		_fputc
  1973 ;;		_read_prec_or_width
  1974 ;;		_stoa
  1975 ;;		_strncmp
  1976 ;; This function is called by:
  1977 ;;		_vfprintf
  1978 ;; This function uses a non-reentrant model
  1979 ;;
  1980                           
  1981                           	psect	text3
  1982   00236E                     __ptext3:
  1983                           	callstack 0
  1984   00236E                     _vfpfcnvrt:
  1985                           	callstack 20
  1986   00236E                     
  1987                           ;C:\Program Files\Microchip\xc8\v2.41\pic\sources\c99\common\doprnt.c: 1048: vfpfcnvrt(F
      +                          ILE *fp, char *fmt[], va_list ap);C:\Program Files\Microchip\xc8\v2.41\pic\sources\c99\c
      +                          ommon\doprnt.c: 1049: {;C:\Program Files\Microchip\xc8\v2.41\pic\sources\c99\common\dopr
      +                          nt.c: 1050:     char c, *cp;;C:\Program Files\Microchip\xc8\v2.41\pic\sources\c99\common
      +                          \doprnt.c: 1051:     int done, i;;C:\Program Files\Microchip\xc8\v2.41\pic\sources\c99\c
      +                          ommon\doprnt.c: 1059:  } convarg;;C:\Program Files\Microchip\xc8\v2.41\pic\sources\c99\c
      +                          ommon\doprnt.c: 1062:     if ((*fmt)[0] == '%') {
  1988   00236E  C0D1  FFD9         	movff	vfpfcnvrt@fmt,fsr2l
  1989   002372  C0D2  FFDA         	movff	vfpfcnvrt@fmt+1,fsr2h
  1990   002376  CFDE FFF6          	movff	postinc2,tblptrl
  1991   00237A  CFDD FFF7          	movff	postdec2,tblptrh
  1992   00237E                     	if	0	;tblptru may be non-zero
  1993   00237E                     	endif
  1994   00237E                     	if	0	;tblptru may be non-zero
  1995   00237E                     	endif
  1996   00237E  0008               	tblrd		*
  1997   002380  50F5               	movf	tablat,w,c
  1998   002382  0A25               	xorlw	37
  1999   002384  A4D8               	btfss	status,2,c
  2000   002386  EFC7  F011         	goto	u8061
  2001   00238A  EFC9  F011         	goto	u8060
  2002   00238E                     u8061:
  2003   00238E  EFB1  F013         	goto	l6684
  2004   002392                     u8060:
  2005   002392                     
  2006                           ;C:\Program Files\Microchip\xc8\v2.41\pic\sources\c99\common\doprnt.c: 1063:         ++*
      +                          fmt;
  2007   002392  C0D1  FFD9         	movff	vfpfcnvrt@fmt,fsr2l
  2008   002396  C0D2  FFDA         	movff	vfpfcnvrt@fmt+1,fsr2h
  2009   00239A  2ADE               	incf	postinc2,f,c
  2010   00239C  0E00               	movlw	0
  2011   00239E  22DD               	addwfc	postdec2,f,c
  2012   0023A0                     
  2013                           ;C:\Program Files\Microchip\xc8\v2.41\pic\sources\c99\common\doprnt.c: 1065:         fla
      +                          gs = width = 0;
  2014   0023A0  0E00               	movlw	0
  2015   0023A2  6E41               	movwf	(_width+1)^0,c
  2016   0023A4  0E00               	movlw	0
  2017   0023A6  6E40               	movwf	_width^0,c
  2018   0023A8  C040  F054         	movff	_width,_flags
  2019   0023AC                     
  2020                           ;C:\Program Files\Microchip\xc8\v2.41\pic\sources\c99\common\doprnt.c: 1066:         pre
      +                          c = -1;
  2021   0023AC  6842               	setf	_prec^0,c
  2022   0023AE  6843               	setf	(_prec+1)^0,c
  2023   0023B0                     
  2024                           ;C:\Program Files\Microchip\xc8\v2.41\pic\sources\c99\common\doprnt.c: 1117:   width = r
      +                          ead_prec_or_width(fmt, ap);
  2025   0023B0  C0D1  F02C         	movff	vfpfcnvrt@fmt,read_prec_or_width@fmt
  2026   0023B4  C0D2  F02D         	movff	vfpfcnvrt@fmt+1,read_prec_or_width@fmt+1
  2027   0023B8  C0D3  F02E         	movff	vfpfcnvrt@ap,read_prec_or_width@ap
  2028   0023BC  C0D4  F02F         	movff	vfpfcnvrt@ap+1,read_prec_or_width@ap+1
  2029   0023C0  EC85  F020         	call	_read_prec_or_width	;wreg free
  2030   0023C4  C02C  F040         	movff	?_read_prec_or_width,_width
  2031   0023C8  C02D  F041         	movff	?_read_prec_or_width+1,_width+1
  2032   0023CC                     
  2033                           ;C:\Program Files\Microchip\xc8\v2.41\pic\sources\c99\common\doprnt.c: 1118:   if (width
      +                           < 0) {
  2034   0023CC  BE41               	btfsc	(_width+1)^0,7,c
  2035   0023CE  EFED  F011         	goto	u8070
  2036   0023D2  EFEB  F011         	goto	u8071
  2037   0023D6                     u8071:
  2038   0023D6  EFF2  F011         	goto	l6612
  2039   0023DA                     u8070:
  2040   0023DA                     
  2041                           ;C:\Program Files\Microchip\xc8\v2.41\pic\sources\c99\common\doprnt.c: 1119:    flags |=
      +                           (1 << 0);
  2042   0023DA  8054               	bsf	_flags^0,0,c
  2043                           
  2044                           ;C:\Program Files\Microchip\xc8\v2.41\pic\sources\c99\common\doprnt.c: 1120:    width = 
      +                          -width;
  2045   0023DC  6C40               	negf	_width^0,c
  2046   0023DE  1E41               	comf	(_width+1)^0,f,c
  2047   0023E0  B0D8               	btfsc	status,0,c
  2048   0023E2  2A41               	incf	(_width+1)^0,f,c
  2049   0023E4                     l6612:
  2050                           
  2051                           ;C:\Program Files\Microchip\xc8\v2.41\pic\sources\c99\common\doprnt.c: 1126:         if 
      +                          ((*fmt)[0] == '.') {
  2052   0023E4  C0D1  FFD9         	movff	vfpfcnvrt@fmt,fsr2l
  2053   0023E8  C0D2  FFDA         	movff	vfpfcnvrt@fmt+1,fsr2h
  2054   0023EC  CFDE FFF6          	movff	postinc2,tblptrl
  2055   0023F0  CFDD FFF7          	movff	postdec2,tblptrh
  2056   0023F4                     	if	0	;tblptru may be non-zero
  2057   0023F4                     	endif
  2058   0023F4                     	if	0	;tblptru may be non-zero
  2059   0023F4                     	endif
  2060   0023F4  0008               	tblrd		*
  2061   0023F6  50F5               	movf	tablat,w,c
  2062   0023F8  0A2E               	xorlw	46
  2063   0023FA  A4D8               	btfss	status,2,c
  2064   0023FC  EF02  F012         	goto	u8081
  2065   002400  EF04  F012         	goto	u8080
  2066   002404                     u8081:
  2067   002404  EF19  F012         	goto	l6618
  2068   002408                     u8080:
  2069   002408                     
  2070                           ;C:\Program Files\Microchip\xc8\v2.41\pic\sources\c99\common\doprnt.c: 1127:            
      +                           ++*fmt;
  2071   002408  C0D1  FFD9         	movff	vfpfcnvrt@fmt,fsr2l
  2072   00240C  C0D2  FFDA         	movff	vfpfcnvrt@fmt+1,fsr2h
  2073   002410  2ADE               	incf	postinc2,f,c
  2074   002412  0E00               	movlw	0
  2075   002414  22DD               	addwfc	postdec2,f,c
  2076   002416                     
  2077                           ;C:\Program Files\Microchip\xc8\v2.41\pic\sources\c99\common\doprnt.c: 1128:    prec = r
      +                          ead_prec_or_width(fmt, ap);
  2078   002416  C0D1  F02C         	movff	vfpfcnvrt@fmt,read_prec_or_width@fmt
  2079   00241A  C0D2  F02D         	movff	vfpfcnvrt@fmt+1,read_prec_or_width@fmt+1
  2080   00241E  C0D3  F02E         	movff	vfpfcnvrt@ap,read_prec_or_width@ap
  2081   002422  C0D4  F02F         	movff	vfpfcnvrt@ap+1,read_prec_or_width@ap+1
  2082   002426  EC85  F020         	call	_read_prec_or_width	;wreg free
  2083   00242A  C02C  F042         	movff	?_read_prec_or_width,_prec
  2084   00242E  C02D  F043         	movff	?_read_prec_or_width+1,_prec+1
  2085   002432                     l6618:
  2086                           
  2087                           ;C:\Program Files\Microchip\xc8\v2.41\pic\sources\c99\common\doprnt.c: 1143:   cp = *fmt
      +                          ;
  2088   002432  C0D1  FFD9         	movff	vfpfcnvrt@fmt,fsr2l
  2089   002436  C0D2  FFDA         	movff	vfpfcnvrt@fmt+1,fsr2h
  2090   00243A  CFDE F0DE          	movff	postinc2,vfpfcnvrt@cp
  2091   00243E  CFDD F0DF          	movff	postdec2,vfpfcnvrt@cp+1
  2092   002442                     
  2093                           ;C:\Program Files\Microchip\xc8\v2.41\pic\sources\c99\common\doprnt.c: 1213:   if (*cp =
      +                          = 'd' || *cp == 'i') {
  2094   002442  C0DE  FFF6         	movff	vfpfcnvrt@cp,tblptrl
  2095   002446  C0DF  FFF7         	movff	vfpfcnvrt@cp+1,tblptrh
  2096   00244A                     	if	0	;tblptru may be non-zero
  2097   00244A                     	endif
  2098   00244A                     	if	0	;tblptru may be non-zero
  2099   00244A                     	endif
  2100   00244A  0008               	tblrd		*
  2101   00244C  50F5               	movf	tablat,w,c
  2102   00244E  0A64               	xorlw	100
  2103   002450  B4D8               	btfsc	status,2,c
  2104   002452  EF2D  F012         	goto	u8091
  2105   002456  EF2F  F012         	goto	u8090
  2106   00245A                     u8091:
  2107   00245A  EF3D  F012         	goto	l6624
  2108   00245E                     u8090:
  2109   00245E  C0DE  FFF6         	movff	vfpfcnvrt@cp,tblptrl
  2110   002462  C0DF  FFF7         	movff	vfpfcnvrt@cp+1,tblptrh
  2111   002466                     	if	0	;tblptru may be non-zero
  2112   002466                     	endif
  2113   002466                     	if	0	;tblptru may be non-zero
  2114   002466                     	endif
  2115   002466  0008               	tblrd		*
  2116   002468  50F5               	movf	tablat,w,c
  2117   00246A  0A69               	xorlw	105
  2118   00246C  A4D8               	btfss	status,2,c
  2119   00246E  EF3B  F012         	goto	u8101
  2120   002472  EF3D  F012         	goto	u8100
  2121   002476                     u8101:
  2122   002476  EF6C  F012         	goto	l6630
  2123   00247A                     u8100:
  2124   00247A                     l6624:
  2125                           
  2126                           ;C:\Program Files\Microchip\xc8\v2.41\pic\sources\c99\common\doprnt.c: 1256:    convarg.
      +                          sint = (vfpf_sint_t)(int)(*(int *)__va_arg(*(int **)ap, (int)0));
  2127   00247A  C0D3  FFD9         	movff	vfpfcnvrt@ap,fsr2l
  2128   00247E  C0D4  FFDA         	movff	vfpfcnvrt@ap+1,fsr2h
  2129   002482  CFDF F0D5          	movff	indf2,??_vfpfcnvrt
  2130   002486  0E02               	movlw	2
  2131   002488  26DE               	addwf	postinc2,f,c
  2132   00248A  CFDF F0D6          	movff	indf2,??_vfpfcnvrt+1
  2133   00248E  0E00               	movlw	0
  2134   002490  22DD               	addwfc	postdec2,f,c
  2135   002492  C0D5  FFD9         	movff	??_vfpfcnvrt,fsr2l
  2136   002496  C0D6  FFDA         	movff	??_vfpfcnvrt+1,fsr2h
  2137   00249A  CFDE F0D9          	movff	postinc2,vfpfcnvrt@convarg
  2138   00249E  CFDD F0DA          	movff	postdec2,vfpfcnvrt@convarg+1
  2139                           
  2140                           ;C:\Program Files\Microchip\xc8\v2.41\pic\sources\c99\common\doprnt.c: 1258:    *fmt = c
      +                          p+1;
  2141   0024A2  0E01               	movlw	1
  2142   0024A4  0100               	movlb	0	; () banked
  2143   0024A6  25DE               	addwf	vfpfcnvrt@cp& (0+255),w,b
  2144   0024A8  6FD5               	movwf	??_vfpfcnvrt& (0+255),b
  2145   0024AA  0E00               	movlw	0
  2146   0024AC  21DF               	addwfc	(vfpfcnvrt@cp+1)& (0+255),w,b
  2147   0024AE  6FD6               	movwf	(??_vfpfcnvrt+1)& (0+255),b
  2148   0024B0  C0D1  FFD9         	movff	vfpfcnvrt@fmt,fsr2l
  2149   0024B4  C0D2  FFDA         	movff	vfpfcnvrt@fmt+1,fsr2h
  2150   0024B8  C0D5  FFDE         	movff	??_vfpfcnvrt,postinc2
  2151   0024BC  C0D6  FFDD         	movff	??_vfpfcnvrt+1,postdec2
  2152   0024C0                     
  2153                           ; BSR set to: 0
  2154                           ;C:\Program Files\Microchip\xc8\v2.41\pic\sources\c99\common\doprnt.c: 1259:    return (
      +                          void) dtoa(fp, convarg.sint);;	Return value of _vfpfcnvrt is never used
  2155   0024C0  C0CF  F08D         	movff	vfpfcnvrt@fp,dtoa@fp
  2156   0024C4  C0D0  F08E         	movff	vfpfcnvrt@fp+1,dtoa@fp+1
  2157   0024C8  C0D9  F08F         	movff	vfpfcnvrt@convarg,dtoa@d
  2158   0024CC  C0DA  F090         	movff	vfpfcnvrt@convarg+1,dtoa@d+1
  2159   0024D0  ECCF  F01C         	call	_dtoa	;wreg free
  2160   0024D4  EFC5  F013         	goto	l1171
  2161   0024D8                     l6630:
  2162                           
  2163                           ;C:\Program Files\Microchip\xc8\v2.41\pic\sources\c99\common\doprnt.c: 1409:         if 
      +                          (*fmt[0] == 's' || !strncmp(*fmt, "lls", ((sizeof("lls")/sizeof("lls"[0]))-1))) {
  2164   0024D8  C0D1  FFD9         	movff	vfpfcnvrt@fmt,fsr2l
  2165   0024DC  C0D2  FFDA         	movff	vfpfcnvrt@fmt+1,fsr2h
  2166   0024E0  CFDE FFF6          	movff	postinc2,tblptrl
  2167   0024E4  CFDD FFF7          	movff	postdec2,tblptrh
  2168   0024E8                     	if	0	;tblptru may be non-zero
  2169   0024E8                     	endif
  2170   0024E8                     	if	0	;tblptru may be non-zero
  2171   0024E8                     	endif
  2172   0024E8  0008               	tblrd		*
  2173   0024EA  50F5               	movf	tablat,w,c
  2174   0024EC  0A73               	xorlw	115
  2175   0024EE  B4D8               	btfsc	status,2,c
  2176   0024F0  EF7C  F012         	goto	u8111
  2177   0024F4  EF7E  F012         	goto	u8110
  2178   0024F8                     u8111:
  2179   0024F8  EF99  F012         	goto	l6634
  2180   0024FC                     u8110:
  2181   0024FC  C0D1  FFD9         	movff	vfpfcnvrt@fmt,fsr2l
  2182   002500  C0D2  FFDA         	movff	vfpfcnvrt@fmt+1,fsr2h
  2183   002504  CFDE F026          	movff	postinc2,strncmp@_l
  2184   002508  CFDD F027          	movff	postdec2,strncmp@_l+1
  2185   00250C  0E45               	movlw	low STR_18
  2186   00250E  6E28               	movwf	strncmp@_r^0,c
  2187   002510  0E10               	movlw	high STR_18
  2188   002512  6E29               	movwf	(strncmp@_r+1)^0,c
  2189   002514  0E00               	movlw	0
  2190   002516  6E2B               	movwf	(strncmp@n+1)^0,c
  2191   002518  0E03               	movlw	3
  2192   00251A  6E2A               	movwf	strncmp@n^0,c
  2193   00251C  EC16  F020         	call	_strncmp	;wreg free
  2194   002520  5026               	movf	?_strncmp^0,w,c
  2195   002522  1027               	iorwf	(?_strncmp+1)^0,w,c
  2196   002524  A4D8               	btfss	status,2,c
  2197   002526  EF97  F012         	goto	u8121
  2198   00252A  EF99  F012         	goto	u8120
  2199   00252E                     u8121:
  2200   00252E  EFDB  F012         	goto	l6646
  2201   002532                     u8120:
  2202   002532                     l6634:
  2203                           
  2204                           ;C:\Program Files\Microchip\xc8\v2.41\pic\sources\c99\common\doprnt.c: 1411:    *fmt += 
      +                          *fmt[0] == 's' ? 1 : ((sizeof("lls")/sizeof("lls"[0]))-1);
  2205   002532  C0D1  FFD9         	movff	vfpfcnvrt@fmt,fsr2l
  2206   002536  C0D2  FFDA         	movff	vfpfcnvrt@fmt+1,fsr2h
  2207   00253A  CFDE FFF6          	movff	postinc2,tblptrl
  2208   00253E  CFDD FFF7          	movff	postdec2,tblptrh
  2209   002542                     	if	0	;tblptru may be non-zero
  2210   002542                     	endif
  2211   002542                     	if	0	;tblptru may be non-zero
  2212   002542                     	endif
  2213   002542  0008               	tblrd		*
  2214   002544  50F5               	movf	tablat,w,c
  2215   002546  0A73               	xorlw	115
  2216   002548  B4D8               	btfsc	status,2,c
  2217   00254A  EFA9  F012         	goto	u8131
  2218   00254E  EFAB  F012         	goto	u8130
  2219   002552                     u8131:
  2220   002552  EFB2  F012         	goto	l6638
  2221   002556                     u8130:
  2222   002556  0E00               	movlw	0
  2223   002558  0100               	movlb	0	; () banked
  2224   00255A  6FD8               	movwf	(_vfpfcnvrt$1878+1)& (0+255),b
  2225   00255C  0E03               	movlw	3
  2226   00255E  6FD7               	movwf	_vfpfcnvrt$1878& (0+255),b
  2227   002560  EFB7  F012         	goto	l6640
  2228   002564                     l6638:
  2229   002564  0E00               	movlw	0
  2230   002566  0100               	movlb	0	; () banked
  2231   002568  6FD8               	movwf	(_vfpfcnvrt$1878+1)& (0+255),b
  2232   00256A  0E01               	movlw	1
  2233   00256C  6FD7               	movwf	_vfpfcnvrt$1878& (0+255),b
  2234   00256E                     l6640:
  2235                           
  2236                           ; BSR set to: 0
  2237   00256E  C0D1  FFD9         	movff	vfpfcnvrt@fmt,fsr2l
  2238   002572  C0D2  FFDA         	movff	vfpfcnvrt@fmt+1,fsr2h
  2239   002576  51D7               	movf	_vfpfcnvrt$1878& (0+255),w,b
  2240   002578  26DE               	addwf	postinc2,f,c
  2241   00257A  51D8               	movf	(_vfpfcnvrt$1878+1)& (0+255),w,b
  2242   00257C  22DD               	addwfc	postdec2,f,c
  2243   00257E                     
  2244                           ; BSR set to: 0
  2245                           ;C:\Program Files\Microchip\xc8\v2.41\pic\sources\c99\common\doprnt.c: 1412:            
      +                           return (void) stoa(fp, (*(char * *)__va_arg(*(char * **)ap, (char *)0)));;	Return value
      +                           of _vfpfcnvrt is never used
  2246   00257E  C0CF  F02F         	movff	vfpfcnvrt@fp,stoa@fp
  2247   002582  C0D0  F030         	movff	vfpfcnvrt@fp+1,stoa@fp+1
  2248   002586  C0D3  FFD9         	movff	vfpfcnvrt@ap,fsr2l
  2249   00258A  C0D4  FFDA         	movff	vfpfcnvrt@ap+1,fsr2h
  2250   00258E  CFDF F0D5          	movff	indf2,??_vfpfcnvrt
  2251   002592  0E02               	movlw	2
  2252   002594  26DE               	addwf	postinc2,f,c
  2253   002596  CFDF F0D6          	movff	indf2,??_vfpfcnvrt+1
  2254   00259A  0E00               	movlw	0
  2255   00259C  22DD               	addwfc	postdec2,f,c
  2256   00259E  C0D5  FFD9         	movff	??_vfpfcnvrt,fsr2l
  2257   0025A2  C0D6  FFDA         	movff	??_vfpfcnvrt+1,fsr2h
  2258   0025A6  CFDE F031          	movff	postinc2,stoa@s
  2259   0025AA  CFDD F032          	movff	postdec2,stoa@s+1
  2260   0025AE  EC01  F01C         	call	_stoa	;wreg free
  2261   0025B2  EFC5  F013         	goto	l1171
  2262   0025B6                     l6646:
  2263                           
  2264                           ;C:\Program Files\Microchip\xc8\v2.41\pic\sources\c99\common\doprnt.c: 1418:   cp = *fmt
      +                          ;
  2265   0025B6  C0D1  FFD9         	movff	vfpfcnvrt@fmt,fsr2l
  2266   0025BA  C0D2  FFDA         	movff	vfpfcnvrt@fmt+1,fsr2h
  2267   0025BE  CFDE F0DE          	movff	postinc2,vfpfcnvrt@cp
  2268   0025C2  CFDD F0DF          	movff	postdec2,vfpfcnvrt@cp+1
  2269   0025C6                     
  2270                           ;C:\Program Files\Microchip\xc8\v2.41\pic\sources\c99\common\doprnt.c: 1419:   c = *cp;
  2271   0025C6  C0DE  FFF6         	movff	vfpfcnvrt@cp,tblptrl
  2272   0025CA  C0DF  FFF7         	movff	vfpfcnvrt@cp+1,tblptrh
  2273   0025CE                     	if	0	;tblptru may be non-zero
  2274   0025CE                     	endif
  2275   0025CE                     	if	0	;tblptru may be non-zero
  2276   0025CE                     	endif
  2277   0025CE  0008               	tblrd		*
  2278   0025D0  CFF5 F0DD          	movff	tablat,vfpfcnvrt@c
  2279                           
  2280                           ;C:\Program Files\Microchip\xc8\v2.41\pic\sources\c99\common\doprnt.c: 1420:   switch(c)
      +                           {
  2281   0025D4  EFF8  F012         	goto	l6658
  2282   0025D8                     l6650:
  2283                           
  2284                           ; BSR set to: 0
  2285                           ;C:\Program Files\Microchip\xc8\v2.41\pic\sources\c99\common\doprnt.c: 1424:     cp++;
  2286   0025D8  4BDE               	infsnz	vfpfcnvrt@cp& (0+255),f,b
  2287   0025DA  2BDF               	incf	(vfpfcnvrt@cp+1)& (0+255),f,b
  2288                           
  2289                           ;C:\Program Files\Microchip\xc8\v2.41\pic\sources\c99\common\doprnt.c: 1425:     break;
  2290   0025DC  EF12  F013         	goto	l6660
  2291   0025E0                     l6652:
  2292                           
  2293                           ; BSR set to: 0
  2294                           ;C:\Program Files\Microchip\xc8\v2.41\pic\sources\c99\common\doprnt.c: 1450:     c = 'l'
      +                          ;
  2295   0025E0  0E6C               	movlw	108
  2296   0025E2  6FDD               	movwf	vfpfcnvrt@c& (0+255),b
  2297                           
  2298                           ;C:\Program Files\Microchip\xc8\v2.41\pic\sources\c99\common\doprnt.c: 1451:     break;
  2299   0025E4  EF12  F013         	goto	l6660
  2300   0025E8                     l6654:
  2301                           
  2302                           ; BSR set to: 0
  2303                           ;C:\Program Files\Microchip\xc8\v2.41\pic\sources\c99\common\doprnt.c: 1453:     c = 0;
  2304   0025E8  0E00               	movlw	0
  2305   0025EA  6FDD               	movwf	vfpfcnvrt@c& (0+255),b
  2306                           
  2307                           ;C:\Program Files\Microchip\xc8\v2.41\pic\sources\c99\common\doprnt.c: 1454:     break;
  2308   0025EC  EF12  F013         	goto	l6660
  2309   0025F0                     l6658:
  2310   0025F0  0100               	movlb	0	; () banked
  2311   0025F2  51DD               	movf	vfpfcnvrt@c& (0+255),w,b
  2312   0025F4  6FD5               	movwf	??_vfpfcnvrt& (0+255),b
  2313   0025F6  6BD6               	clrf	(??_vfpfcnvrt+1)& (0+255),b
  2314                           
  2315                           ; Switch on 2 bytes has been partitioned into a top level switch of size 1, and 1 sub-sw
      +                          itches
  2316                           ; Switch size 1, requested type "simple"
  2317                           ; Number of cases is 1, Range of values is 0 to 0
  2318                           ; switch strategies available:
  2319                           ; Name         Instructions Cycles
  2320                           ; simple_byte            4     3 (average)
  2321                           ;	Chosen strategy is simple_byte
  2322   0025F8  51D6               	movf	(??_vfpfcnvrt+1)& (0+255),w,b
  2323   0025FA  0A00               	xorlw	0	; case 0
  2324   0025FC  B4D8               	btfsc	status,2,c
  2325   0025FE  EF03  F013         	goto	l7052
  2326   002602  EFF4  F012         	goto	l6654
  2327   002606                     l7052:
  2328                           
  2329                           ; BSR set to: 0
  2330                           ; Switch size 1, requested type "simple"
  2331                           ; Number of cases is 3, Range of values is 76 to 108
  2332                           ; switch strategies available:
  2333                           ; Name         Instructions Cycles
  2334                           ; simple_byte           10     6 (average)
  2335                           ;	Chosen strategy is simple_byte
  2336   002606  51D5               	movf	??_vfpfcnvrt& (0+255),w,b
  2337   002608  0A4C               	xorlw	76	; case 76
  2338   00260A  B4D8               	btfsc	status,2,c
  2339   00260C  EFEC  F012         	goto	l6650
  2340   002610  0A2A               	xorlw	42	; case 102
  2341   002612  B4D8               	btfsc	status,2,c
  2342   002614  EFF0  F012         	goto	l6652
  2343   002618  0A0A               	xorlw	10	; case 108
  2344   00261A  B4D8               	btfsc	status,2,c
  2345   00261C  EFEC  F012         	goto	l6650
  2346   002620  EFF4  F012         	goto	l6654
  2347   002624                     l6660:
  2348                           
  2349                           ; BSR set to: 0
  2350   002624  C0DE  FFF6         	movff	vfpfcnvrt@cp,tblptrl
  2351   002628  C0DF  FFF7         	movff	vfpfcnvrt@cp+1,tblptrh
  2352   00262C                     	if	0	;tblptru may be non-zero
  2353   00262C                     	endif
  2354   00262C                     	if	0	;tblptru may be non-zero
  2355   00262C                     	endif
  2356   00262C  0008               	tblrd		*
  2357   00262E  50F5               	movf	tablat,w,c
  2358   002630  0A66               	xorlw	102
  2359   002632  A4D8               	btfss	status,2,c
  2360   002634  EF1E  F013         	goto	u8141
  2361   002638  EF20  F013         	goto	u8140
  2362   00263C                     u8141:
  2363   00263C  EFA8  F013         	goto	l6680
  2364   002640                     u8140:
  2365   002640  EF56  F013         	goto	l6668
  2366   002644                     l6662:
  2367                           
  2368                           ; BSR set to: 0
  2369                           ;C:\Program Files\Microchip\xc8\v2.41\pic\sources\c99\common\doprnt.c: 1485:      convar
      +                          g.f = (long double)(*(double *)__va_arg(*(double **)ap, (double)0));
  2370   002644  C0D3  FFD9         	movff	vfpfcnvrt@ap,fsr2l
  2371   002648  C0D4  FFDA         	movff	vfpfcnvrt@ap+1,fsr2h
  2372   00264C  CFDF F0D5          	movff	indf2,??_vfpfcnvrt
  2373   002650  0E04               	movlw	4
  2374   002652  26DE               	addwf	postinc2,f,c
  2375   002654  CFDF F0D6          	movff	indf2,??_vfpfcnvrt+1
  2376   002658  0E00               	movlw	0
  2377   00265A  22DD               	addwfc	postdec2,f,c
  2378   00265C  C0D5  FFD9         	movff	??_vfpfcnvrt,fsr2l
  2379   002660  C0D6  FFDA         	movff	??_vfpfcnvrt+1,fsr2h
  2380   002664  CFDE F0D9          	movff	postinc2,vfpfcnvrt@convarg
  2381   002668  CFDE F0DA          	movff	postinc2,vfpfcnvrt@convarg+1
  2382   00266C  CFDE F0DB          	movff	postinc2,vfpfcnvrt@convarg+2
  2383   002670  CFDE F0DC          	movff	postinc2,vfpfcnvrt@convarg+3
  2384                           
  2385                           ;C:\Program Files\Microchip\xc8\v2.41\pic\sources\c99\common\doprnt.c: 1486:      break;
  2386   002674  EF6B  F013         	goto	l6670
  2387   002678                     l6664:
  2388                           
  2389                           ; BSR set to: 0
  2390                           ;C:\Program Files\Microchip\xc8\v2.41\pic\sources\c99\common\doprnt.c: 1488:      convar
      +                          g.f = (long double)(*(long double *)__va_arg(*(long double **)ap, (long double)0));
  2391   002678  C0D3  FFD9         	movff	vfpfcnvrt@ap,fsr2l
  2392   00267C  C0D4  FFDA         	movff	vfpfcnvrt@ap+1,fsr2h
  2393   002680  CFDF F0D5          	movff	indf2,??_vfpfcnvrt
  2394   002684  0E04               	movlw	4
  2395   002686  26DE               	addwf	postinc2,f,c
  2396   002688  CFDF F0D6          	movff	indf2,??_vfpfcnvrt+1
  2397   00268C  0E00               	movlw	0
  2398   00268E  22DD               	addwfc	postdec2,f,c
  2399   002690  C0D5  FFD9         	movff	??_vfpfcnvrt,fsr2l
  2400   002694  C0D6  FFDA         	movff	??_vfpfcnvrt+1,fsr2h
  2401   002698  CFDE F0D9          	movff	postinc2,vfpfcnvrt@convarg
  2402   00269C  CFDE F0DA          	movff	postinc2,vfpfcnvrt@convarg+1
  2403   0026A0  CFDE F0DB          	movff	postinc2,vfpfcnvrt@convarg+2
  2404   0026A4  CFDE F0DC          	movff	postinc2,vfpfcnvrt@convarg+3
  2405                           
  2406                           ;C:\Program Files\Microchip\xc8\v2.41\pic\sources\c99\common\doprnt.c: 1489:      break;
  2407   0026A8  EF6B  F013         	goto	l6670
  2408   0026AC                     l6668:
  2409                           
  2410                           ; BSR set to: 0
  2411   0026AC  51DD               	movf	vfpfcnvrt@c& (0+255),w,b
  2412   0026AE  6FD5               	movwf	??_vfpfcnvrt& (0+255),b
  2413   0026B0  6BD6               	clrf	(??_vfpfcnvrt+1)& (0+255),b
  2414                           
  2415                           ; Switch on 2 bytes has been partitioned into a top level switch of size 1, and 1 sub-sw
      +                          itches
  2416                           ; Switch size 1, requested type "simple"
  2417                           ; Number of cases is 1, Range of values is 0 to 0
  2418                           ; switch strategies available:
  2419                           ; Name         Instructions Cycles
  2420                           ; simple_byte            4     3 (average)
  2421                           ;	Chosen strategy is simple_byte
  2422   0026B2  51D6               	movf	(??_vfpfcnvrt+1)& (0+255),w,b
  2423   0026B4  0A00               	xorlw	0	; case 0
  2424   0026B6  B4D8               	btfsc	status,2,c
  2425   0026B8  EF60  F013         	goto	l7054
  2426   0026BC  EF6B  F013         	goto	l6670
  2427   0026C0                     l7054:
  2428                           
  2429                           ; BSR set to: 0
  2430                           ; Switch size 1, requested type "simple"
  2431                           ; Number of cases is 2, Range of values is 76 to 108
  2432                           ; switch strategies available:
  2433                           ; Name         Instructions Cycles
  2434                           ; simple_byte            7     4 (average)
  2435                           ;	Chosen strategy is simple_byte
  2436   0026C0  51D5               	movf	??_vfpfcnvrt& (0+255),w,b
  2437   0026C2  0A4C               	xorlw	76	; case 76
  2438   0026C4  B4D8               	btfsc	status,2,c
  2439   0026C6  EF3C  F013         	goto	l6664
  2440   0026CA  0A20               	xorlw	32	; case 108
  2441   0026CC  B4D8               	btfsc	status,2,c
  2442   0026CE  EF22  F013         	goto	l6662
  2443   0026D2  EF6B  F013         	goto	l6670
  2444   0026D6                     l6670:
  2445                           
  2446                           ; BSR set to: 0
  2447                           ;C:\Program Files\Microchip\xc8\v2.41\pic\sources\c99\common\doprnt.c: 1491:    *fmt = c
      +                          p+1;
  2448   0026D6  0E01               	movlw	1
  2449   0026D8  25DE               	addwf	vfpfcnvrt@cp& (0+255),w,b
  2450   0026DA  6FD5               	movwf	??_vfpfcnvrt& (0+255),b
  2451   0026DC  0E00               	movlw	0
  2452   0026DE  21DF               	addwfc	(vfpfcnvrt@cp+1)& (0+255),w,b
  2453   0026E0  6FD6               	movwf	(??_vfpfcnvrt+1)& (0+255),b
  2454   0026E2  C0D1  FFD9         	movff	vfpfcnvrt@fmt,fsr2l
  2455   0026E6  C0D2  FFDA         	movff	vfpfcnvrt@fmt+1,fsr2h
  2456   0026EA  C0D5  FFDE         	movff	??_vfpfcnvrt,postinc2
  2457   0026EE  C0D6  FFDD         	movff	??_vfpfcnvrt+1,postdec2
  2458                           
  2459                           ;C:\Program Files\Microchip\xc8\v2.41\pic\sources\c99\common\doprnt.c: 1492:    switch (
      +                          *cp) {
  2460   0026F2  EF92  F013         	goto	l6678
  2461   0026F6                     l6672:
  2462                           
  2463                           ; BSR set to: 0
  2464                           ;C:\Program Files\Microchip\xc8\v2.41\pic\sources\c99\common\doprnt.c: 1519:      return
      +                           (void) efgtoa(fp, convarg.f, *cp);;	Return value of _vfpfcnvrt is never used
  2465   0026F6  C0CF  F0C6         	movff	vfpfcnvrt@fp,efgtoa@fp
  2466   0026FA  C0D0  F0C7         	movff	vfpfcnvrt@fp+1,efgtoa@fp+1
  2467   0026FE  C0D9  F0C8         	movff	vfpfcnvrt@convarg,efgtoa@f
  2468   002702  C0DA  F0C9         	movff	vfpfcnvrt@convarg+1,efgtoa@f+1
  2469   002706  C0DB  F0CA         	movff	vfpfcnvrt@convarg+2,efgtoa@f+2
  2470   00270A  C0DC  F0CB         	movff	vfpfcnvrt@convarg+3,efgtoa@f+3
  2471   00270E  C0DE  FFF6         	movff	vfpfcnvrt@cp,tblptrl
  2472   002712  C0DF  FFF7         	movff	vfpfcnvrt@cp+1,tblptrh
  2473   002716                     	if	0	;tblptru may be non-zero
  2474   002716                     	endif
  2475   002716                     	if	0	;tblptru may be non-zero
  2476   002716                     	endif
  2477   002716  0008               	tblrd		*
  2478   002718  CFF5 F0CC          	movff	tablat,efgtoa@c
  2479   00271C  EC25  F008         	call	_efgtoa	;wreg free
  2480   002720  EFC5  F013         	goto	l1171
  2481   002724                     l6678:
  2482                           
  2483                           ; BSR set to: 0
  2484   002724  C0DE  FFF6         	movff	vfpfcnvrt@cp,tblptrl
  2485   002728  C0DF  FFF7         	movff	vfpfcnvrt@cp+1,tblptrh
  2486   00272C                     	if	0	;tblptru may be non-zero
  2487   00272C                     	endif
  2488   00272C                     	if	0	;tblptru may be non-zero
  2489   00272C                     	endif
  2490   00272C  0008               	tblrd		*
  2491   00272E  50F5               	movf	tablat,w,c
  2492   002730  6FD5               	movwf	??_vfpfcnvrt& (0+255),b
  2493   002732  6BD6               	clrf	(??_vfpfcnvrt+1)& (0+255),b
  2494                           
  2495                           ; Switch on 2 bytes has been partitioned into a top level switch of size 1, and 1 sub-sw
      +                          itches
  2496                           ; Switch size 1, requested type "simple"
  2497                           ; Number of cases is 1, Range of values is 0 to 0
  2498                           ; switch strategies available:
  2499                           ; Name         Instructions Cycles
  2500                           ; simple_byte            4     3 (average)
  2501                           ;	Chosen strategy is simple_byte
  2502   002734  51D6               	movf	(??_vfpfcnvrt+1)& (0+255),w,b
  2503   002736  0A00               	xorlw	0	; case 0
  2504   002738  B4D8               	btfsc	status,2,c
  2505   00273A  EFA1  F013         	goto	l7056
  2506   00273E  EFA8  F013         	goto	l6680
  2507   002742                     l7056:
  2508                           
  2509                           ; BSR set to: 0
  2510                           ; Switch size 1, requested type "simple"
  2511                           ; Number of cases is 1, Range of values is 102 to 102
  2512                           ; switch strategies available:
  2513                           ; Name         Instructions Cycles
  2514                           ; simple_byte            4     3 (average)
  2515                           ;	Chosen strategy is simple_byte
  2516   002742  51D5               	movf	??_vfpfcnvrt& (0+255),w,b
  2517   002744  0A66               	xorlw	102	; case 102
  2518   002746  B4D8               	btfsc	status,2,c
  2519   002748  EF7B  F013         	goto	l6672
  2520   00274C  EFA8  F013         	goto	l6680
  2521   002750                     l6680:
  2522                           
  2523                           ;C:\Program Files\Microchip\xc8\v2.41\pic\sources\c99\common\doprnt.c: 1535:         ++*
      +                          fmt;
  2524   002750  C0D1  FFD9         	movff	vfpfcnvrt@fmt,fsr2l
  2525   002754  C0D2  FFDA         	movff	vfpfcnvrt@fmt+1,fsr2h
  2526   002758  2ADE               	incf	postinc2,f,c
  2527   00275A  0E00               	movlw	0
  2528   00275C  22DD               	addwfc	postdec2,f,c
  2529   00275E  EFC5  F013         	goto	l1171
  2530   002762                     l6684:
  2531                           
  2532                           ;C:\Program Files\Microchip\xc8\v2.41\pic\sources\c99\common\doprnt.c: 1540:     fputc((
      +                          int)(*fmt)[0], fp);
  2533   002762  C0D1  FFD9         	movff	vfpfcnvrt@fmt,fsr2l
  2534   002766  C0D2  FFDA         	movff	vfpfcnvrt@fmt+1,fsr2h
  2535   00276A  CFDE FFF6          	movff	postinc2,tblptrl
  2536   00276E  CFDD FFF7          	movff	postdec2,tblptrh
  2537   002772                     	if	0	;tblptru may be non-zero
  2538   002772                     	endif
  2539   002772                     	if	0	;tblptru may be non-zero
  2540   002772                     	endif
  2541   002772  0008               	tblrd		*
  2542   002774  50F5               	movf	tablat,w,c
  2543   002776  6E26               	movwf	fputc@c^0,c
  2544   002778  6A27               	clrf	(fputc@c+1)^0,c
  2545   00277A  C0CF  F028         	movff	vfpfcnvrt@fp,fputc@fp
  2546   00277E  C0D0  F029         	movff	vfpfcnvrt@fp+1,fputc@fp+1
  2547   002782  ECEA  F020         	call	_fputc	;wreg free
  2548   002786  EFA8  F013         	goto	l6680
  2549   00278A                     l1171:
  2550   00278A  0012               	return		;funcret
  2551   00278C                     __end_of_vfpfcnvrt:
  2552                           	callstack 0
  2553                           
  2554 ;; *************** function _strncmp *****************
  2555 ;; Defined at:
  2556 ;;		line 3 in file "C:\Program Files\Microchip\xc8\v2.41\pic\sources\c99\common\strncmp.c"
  2557 ;; Parameters:    Size  Location     Type
  2558 ;;  _l              2   37[COMRAM] PTR const unsigned char 
  2559 ;;		 -> STR_11(5), STR_3(6), STR_2(11), STR_1(11), 
  2560 ;;  _r              2   39[COMRAM] PTR const unsigned char 
  2561 ;;		 -> STR_20(4), 
  2562 ;;  n               2   41[COMRAM] unsigned int 
  2563 ;; Auto vars:     Size  Location     Type
  2564 ;;  r               2   46[COMRAM] PTR const unsigned char 
  2565 ;;		 -> STR_20(4), 
  2566 ;;  l               2   44[COMRAM] PTR const unsigned char 
  2567 ;;		 -> STR_11(5), STR_3(6), STR_2(11), STR_1(11), 
  2568 ;; Return value:  Size  Location     Type
  2569 ;;                  2   37[COMRAM] int 
  2570 ;; Registers used:
  2571 ;;		wreg, status,2, status,0, tblptrl, tblptrh, tblptru
  2572 ;; Tracked objects:
  2573 ;;		On entry : 0/0
  2574 ;;		On exit  : 0/0
  2575 ;;		Unchanged: 0/0
  2576 ;; Data sizes:     COMRAM   BANK0   BANK1   BANK2   BANK3   BANK4   BANK5   BANK6   BANK7   BANK8   BANK9  BANK10  BANK1
      +1  BANK12  BANK13  BANK14  BANK15
  2577 ;;      Params:         6       0       0       0       0       0       0       0       0       0       0       0       
      +0       0       0       0       0
  2578 ;;      Locals:         4       0       0       0       0       0       0       0       0       0       0       0       
      +0       0       0       0       0
  2579 ;;      Temps:          1       0       0       0       0       0       0       0       0       0       0       0       
      +0       0       0       0       0
  2580 ;;      Totals:        11       0       0       0       0       0       0       0       0       0       0       0       
      +0       0       0       0       0
  2581 ;;Total ram usage:       11 bytes
  2582 ;; Hardware stack levels used: 1
  2583 ;; Hardware stack levels required when called: 3
  2584 ;; This function calls:
  2585 ;;		Nothing
  2586 ;; This function is called by:
  2587 ;;		_vfpfcnvrt
  2588 ;; This function uses a non-reentrant model
  2589 ;;
  2590                           
  2591                           	psect	text4
  2592   00402C                     __ptext4:
  2593                           	callstack 0
  2594   00402C                     _strncmp:
  2595                           	callstack 24
  2596   00402C  C026  F02D         	movff	strncmp@_l,strncmp@l
  2597   004030  C027  F02E         	movff	strncmp@_l+1,strncmp@l+1
  2598   004034  C028  F02F         	movff	strncmp@_r,strncmp@r
  2599   004038  C029  F030         	movff	strncmp@_r+1,strncmp@r+1
  2600   00403C  062A               	decf	strncmp@n^0,f,c
  2601   00403E  A0D8               	btfss	status,0,c
  2602   004040  062B               	decf	(strncmp@n+1)^0,f,c
  2603   004042  282A               	incf	strncmp@n^0,w,c
  2604   004044  E106               	bnz	u5051
  2605   004046  282B               	incf	(strncmp@n+1)^0,w,c
  2606   004048  A4D8               	btfss	status,2,c
  2607   00404A  EF29  F020         	goto	u5051
  2608   00404E  EF2B  F020         	goto	u5050
  2609   004052                     u5051:
  2610   004052  EF38  F020         	goto	l4536
  2611   004056                     u5050:
  2612   004056  0E00               	movlw	0
  2613   004058  6E27               	movwf	(?_strncmp+1)^0,c
  2614   00405A  0E00               	movlw	0
  2615   00405C  6E26               	movwf	?_strncmp^0,c
  2616   00405E  EF84  F020         	goto	l1283
  2617   004062                     l4534:
  2618   004062  4A2D               	infsnz	strncmp@l^0,f,c
  2619   004064  2A2E               	incf	(strncmp@l+1)^0,f,c
  2620   004066  4A2F               	infsnz	strncmp@r^0,f,c
  2621   004068  2A30               	incf	(strncmp@r+1)^0,f,c
  2622   00406A  062A               	decf	strncmp@n^0,f,c
  2623   00406C  A0D8               	btfss	status,0,c
  2624   00406E  062B               	decf	(strncmp@n+1)^0,f,c
  2625   004070                     l4536:
  2626   004070  C02D  FFF6         	movff	strncmp@l,tblptrl
  2627   004074  C02E  FFF7         	movff	strncmp@l+1,tblptrh
  2628   004078                     	if	0	;tblptru may be non-zero
  2629   004078                     	endif
  2630   004078                     	if	0	;tblptru may be non-zero
  2631   004078                     	endif
  2632   004078  0008               	tblrd		*
  2633   00407A  50F5               	movf	tablat,w,c
  2634   00407C  0900               	iorlw	0
  2635   00407E  B4D8               	btfsc	status,2,c
  2636   004080  EF44  F020         	goto	u5061
  2637   004084  EF46  F020         	goto	u5060
  2638   004088                     u5061:
  2639   004088  EF72  F020         	goto	l4544
  2640   00408C                     u5060:
  2641   00408C  C02F  FFF6         	movff	strncmp@r,tblptrl
  2642   004090  C030  FFF7         	movff	strncmp@r+1,tblptrh
  2643   004094                     	if	0	;tblptru may be non-zero
  2644   004094                     	endif
  2645   004094                     	if	0	;tblptru may be non-zero
  2646   004094                     	endif
  2647   004094  0008               	tblrd		*
  2648   004096  50F5               	movf	tablat,w,c
  2649   004098  0900               	iorlw	0
  2650   00409A  B4D8               	btfsc	status,2,c
  2651   00409C  EF52  F020         	goto	u5071
  2652   0040A0  EF54  F020         	goto	u5070
  2653   0040A4                     u5071:
  2654   0040A4  EF72  F020         	goto	l4544
  2655   0040A8                     u5070:
  2656   0040A8  502A               	movf	strncmp@n^0,w,c
  2657   0040AA  102B               	iorwf	(strncmp@n+1)^0,w,c
  2658   0040AC  B4D8               	btfsc	status,2,c
  2659   0040AE  EF5B  F020         	goto	u5081
  2660   0040B2  EF5D  F020         	goto	u5080
  2661   0040B6                     u5081:
  2662   0040B6  EF72  F020         	goto	l4544
  2663   0040BA                     u5080:
  2664   0040BA  C02D  FFF6         	movff	strncmp@l,tblptrl
  2665   0040BE  C02E  FFF7         	movff	strncmp@l+1,tblptrh
  2666   0040C2                     	if	0	;tblptru may be non-zero
  2667   0040C2                     	endif
  2668   0040C2                     	if	0	;tblptru may be non-zero
  2669   0040C2                     	endif
  2670   0040C2  0008               	tblrd		*
  2671   0040C4  CFF5 F02C          	movff	tablat,??_strncmp
  2672   0040C8  C02F  FFF6         	movff	strncmp@r,tblptrl
  2673   0040CC  C030  FFF7         	movff	strncmp@r+1,tblptrh
  2674   0040D0                     	if	0	;tblptru may be non-zero
  2675   0040D0                     	endif
  2676   0040D0                     	if	0	;tblptru may be non-zero
  2677   0040D0                     	endif
  2678   0040D0  0008               	tblrd		*
  2679   0040D2  50F5               	movf	tablat,w,c
  2680   0040D4  182C               	xorwf	??_strncmp^0,w,c
  2681   0040D6  B4D8               	btfsc	status,2,c
  2682   0040D8  EF70  F020         	goto	u5091
  2683   0040DC  EF72  F020         	goto	u5090
  2684   0040E0                     u5091:
  2685   0040E0  EF31  F020         	goto	l4534
  2686   0040E4                     u5090:
  2687   0040E4                     l4544:
  2688   0040E4  C02D  FFF6         	movff	strncmp@l,tblptrl
  2689   0040E8  C02E  FFF7         	movff	strncmp@l+1,tblptrh
  2690   0040EC                     	if	0	;tblptru may be non-zero
  2691   0040EC                     	endif
  2692   0040EC                     	if	0	;tblptru may be non-zero
  2693   0040EC                     	endif
  2694   0040EC  0008               	tblrd		*
  2695   0040EE  CFF5 F02C          	movff	tablat,??_strncmp
  2696   0040F2  C02F  FFF6         	movff	strncmp@r,tblptrl
  2697   0040F6  C030  FFF7         	movff	strncmp@r+1,tblptrh
  2698   0040FA                     	if	0	;tblptru may be non-zero
  2699   0040FA                     	endif
  2700   0040FA                     	if	0	;tblptru may be non-zero
  2701   0040FA                     	endif
  2702   0040FA  0008               	tblrd		*
  2703   0040FC  50F5               	movf	tablat,w,c
  2704   0040FE  5C2C               	subwf	??_strncmp^0,w,c
  2705   004100  6E26               	movwf	?_strncmp^0,c
  2706   004102  6A27               	clrf	(?_strncmp+1)^0,c
  2707   004104  A0D8               	btfss	status,0,c
  2708   004106  0627               	decf	(?_strncmp+1)^0,f,c
  2709   004108                     l1283:
  2710   004108  0012               	return		;funcret
  2711   00410A                     __end_of_strncmp:
  2712                           	callstack 0
  2713                           
  2714 ;; *************** function _stoa *****************
  2715 ;; Defined at:
  2716 ;;		line 862 in file "C:\Program Files\Microchip\xc8\v2.41\pic\sources\c99\common\doprnt.c"
  2717 ;; Parameters:    Size  Location     Type
  2718 ;;  fp              2   46[COMRAM] PTR struct _IO_FILE
  2719 ;;		 -> sprintf@f(12), 
  2720 ;;  s               2   48[COMRAM] PTR unsigned char 
  2721 ;;		 -> ?_sprintf(2), STR_10(5), STR_9(5), STR_8(5), 
  2722 ;;		 -> STR_7(6), STR_6(4), STR_5(6), STR_4(4), 
  2723 ;;		 -> voltage(4), 
  2724 ;; Auto vars:     Size  Location     Type
  2725 ;;  nuls            7    0[BANK0 ] unsigned char [7]
  2726 ;;  l               2   15[BANK0 ] int 
  2727 ;;  p               2   13[BANK0 ] int 
  2728 ;;  cp              2   11[BANK0 ] PTR unsigned char 
  2729 ;;		 -> stoa@nuls(7), ?_sprintf(2), STR_10(5), STR_9(5), 
  2730 ;;		 -> STR_8(5), STR_7(6), STR_6(4), STR_5(6), 
  2731 ;;		 -> STR_4(4), voltage(4), 
  2732 ;;  w               2    9[BANK0 ] int 
  2733 ;;  i               2    7[BANK0 ] int 
  2734 ;; Return value:  Size  Location     Type
  2735 ;;                  1    wreg      void 
  2736 ;; Registers used:
  2737 ;;		wreg, fsr1l, fsr1h, fsr2l, fsr2h, status,2, status,0, tblptrl, tblptrh, tblptru, cstack
  2738 ;; Tracked objects:
  2739 ;;		On entry : 0/0
  2740 ;;		On exit  : 0/0
  2741 ;;		Unchanged: 0/0
  2742 ;; Data sizes:     COMRAM   BANK0   BANK1   BANK2   BANK3   BANK4   BANK5   BANK6   BANK7   BANK8   BANK9  BANK10  BANK1
      +1  BANK12  BANK13  BANK14  BANK15
  2743 ;;      Params:         4       0       0       0       0       0       0       0       0       0       0       0       
      +0       0       0       0       0
  2744 ;;      Locals:         0      17       0       0       0       0       0       0       0       0       0       0       
      +0       0       0       0       0
  2745 ;;      Temps:          1       0       0       0       0       0       0       0       0       0       0       0       
      +0       0       0       0       0
  2746 ;;      Totals:         5      17       0       0       0       0       0       0       0       0       0       0       
      +0       0       0       0       0
  2747 ;;Total ram usage:       22 bytes
  2748 ;; Hardware stack levels used: 1
  2749 ;; Hardware stack levels required when called: 5
  2750 ;; This function calls:
  2751 ;;		_fputc
  2752 ;;		_strlen
  2753 ;; This function is called by:
  2754 ;;		_vfpfcnvrt
  2755 ;; This function uses a non-reentrant model
  2756 ;;
  2757                           
  2758                           	psect	text5
  2759   003802                     __ptext5:
  2760                           	callstack 0
  2761   003802                     _stoa:
  2762                           	callstack 22
  2763   003802                     
  2764                           ;C:\Program Files\Microchip\xc8\v2.41\pic\sources\c99\common\doprnt.c: 862: static void 
      +                          stoa(FILE *fp, char *s);C:\Program Files\Microchip\xc8\v2.41\pic\sources\c99\common\dopr
      +                          nt.c: 863: {;C:\Program Files\Microchip\xc8\v2.41\pic\sources\c99\common\doprnt.c: 864: 
      +                              char *cp, nuls[] = "(null)";
  2765   003802  EE21  F0CB         	lfsr	2,stoa@F1179
  2766   003806  EE10  F080         	lfsr	1,stoa@nuls
  2767   00380A  0E06               	movlw	6
  2768   00380C                     u7941:
  2769   00380C  CFDB FFE3          	movff	plusw2,plusw1
  2770   003810  06E8               	decf	wreg,f,c
  2771   003812  E2FC               	bc	u7941
  2772   003814                     
  2773                           ;C:\Program Files\Microchip\xc8\v2.41\pic\sources\c99\common\doprnt.c: 865:     int i, l
      +                          , p, w;;C:\Program Files\Microchip\xc8\v2.41\pic\sources\c99\common\doprnt.c: 868:     c
      +                          p = s;
  2774   003814  C031  F08B         	movff	stoa@s,stoa@cp
  2775   003818  C032  F08C         	movff	stoa@s+1,stoa@cp+1
  2776   00381C                     
  2777                           ;C:\Program Files\Microchip\xc8\v2.41\pic\sources\c99\common\doprnt.c: 869:     if (!cp)
      +                           {
  2778   00381C  0100               	movlb	0	; () banked
  2779   00381E  518B               	movf	stoa@cp& (0+255),w,b
  2780   003820  118C               	iorwf	(stoa@cp+1)& (0+255),w,b
  2781   003822  A4D8               	btfss	status,2,c
  2782   003824  EF16  F01C         	goto	u7951
  2783   003828  EF18  F01C         	goto	u7950
  2784   00382C                     u7951:
  2785   00382C  EF1C  F01C         	goto	l6530
  2786   003830                     u7950:
  2787   003830                     
  2788                           ; BSR set to: 0
  2789                           ;C:\Program Files\Microchip\xc8\v2.41\pic\sources\c99\common\doprnt.c: 870:         cp =
      +                           nuls;
  2790   003830  0E80               	movlw	low stoa@nuls
  2791   003832  6F8B               	movwf	stoa@cp& (0+255),b
  2792   003834  0E00               	movlw	high stoa@nuls
  2793   003836  6F8C               	movwf	(stoa@cp+1)& (0+255),b
  2794   003838                     l6530:
  2795                           
  2796                           ; BSR set to: 0
  2797                           ;C:\Program Files\Microchip\xc8\v2.41\pic\sources\c99\common\doprnt.c: 874:     l = (int
      +                          )strlen(cp);
  2798   003838  C08B  F026         	movff	stoa@cp,strlen@s
  2799   00383C  C08C  F027         	movff	stoa@cp+1,strlen@s+1
  2800   003840  EC53  F025         	call	_strlen	;wreg free
  2801   003844  C026  F08F         	movff	?_strlen,stoa@l
  2802   003848  C027  F090         	movff	?_strlen+1,stoa@l+1
  2803   00384C                     
  2804                           ;C:\Program Files\Microchip\xc8\v2.41\pic\sources\c99\common\doprnt.c: 875:     p = prec
      +                          ;
  2805   00384C  C042  F08D         	movff	_prec,stoa@p
  2806   003850  C043  F08E         	movff	_prec+1,stoa@p+1
  2807   003854                     
  2808                           ;C:\Program Files\Microchip\xc8\v2.41\pic\sources\c99\common\doprnt.c: 876:     l = (!(p
      +                           < 0) && (p < l)) ? p : l;
  2809   003854  0100               	movlb	0	; () banked
  2810   003856  BF8E               	btfsc	(stoa@p+1)& (0+255),7,b
  2811   003858  EF30  F01C         	goto	u7961
  2812   00385C  EF32  F01C         	goto	u7960
  2813   003860                     u7961:
  2814   003860  EF47  F01C         	goto	l1140
  2815   003864                     u7960:
  2816   003864                     
  2817                           ; BSR set to: 0
  2818   003864  518F               	movf	stoa@l& (0+255),w,b
  2819   003866  5D8D               	subwf	stoa@p& (0+255),w,b
  2820   003868  518E               	movf	(stoa@p+1)& (0+255),w,b
  2821   00386A  0A80               	xorlw	128
  2822   00386C  6E33               	movwf	??_stoa^0,c
  2823   00386E  5190               	movf	(stoa@l+1)& (0+255),w,b
  2824   003870  0A80               	xorlw	128
  2825   003872  5833               	subwfb	??_stoa^0,w,c
  2826   003874  A0D8               	btfss	status,0,c
  2827   003876  EF3F  F01C         	goto	u7971
  2828   00387A  EF41  F01C         	goto	u7970
  2829   00387E                     u7971:
  2830   00387E  EF43  F01C         	goto	l1138
  2831   003882                     u7970:
  2832   003882  EF47  F01C         	goto	l1140
  2833   003886                     l1138:
  2834                           
  2835                           ; BSR set to: 0
  2836   003886  C08D  F08F         	movff	stoa@p,stoa@l
  2837   00388A  C08E  F090         	movff	stoa@p+1,stoa@l+1
  2838   00388E                     l1140:
  2839                           
  2840                           ; BSR set to: 0
  2841                           ;C:\Program Files\Microchip\xc8\v2.41\pic\sources\c99\common\doprnt.c: 877:     p = l;
  2842   00388E  C08F  F08D         	movff	stoa@l,stoa@p
  2843   003892  C090  F08E         	movff	stoa@l+1,stoa@p+1
  2844                           
  2845                           ;C:\Program Files\Microchip\xc8\v2.41\pic\sources\c99\common\doprnt.c: 878:     w = widt
      +                          h;
  2846   003896  C040  F089         	movff	_width,stoa@w
  2847   00389A  C041  F08A         	movff	_width+1,stoa@w+1
  2848                           
  2849                           ;C:\Program Files\Microchip\xc8\v2.41\pic\sources\c99\common\doprnt.c: 882:     if (!(fl
      +                          ags & (1 << 0))) {
  2850   00389E  B054               	btfsc	_flags^0,0,c
  2851   0038A0  EF54  F01C         	goto	u7981
  2852   0038A4  EF56  F01C         	goto	u7980
  2853   0038A8                     u7981:
  2854   0038A8  EF74  F01C         	goto	l6546
  2855   0038AC                     u7980:
  2856   0038AC  EF65  F01C         	goto	l6544
  2857   0038B0                     l6540:
  2858                           
  2859                           ; BSR set to: 0
  2860                           ;C:\Program Files\Microchip\xc8\v2.41\pic\sources\c99\common\doprnt.c: 885:             
      +                          fputc(' ', fp);
  2861   0038B0  0E00               	movlw	0
  2862   0038B2  6E27               	movwf	(fputc@c+1)^0,c
  2863   0038B4  0E20               	movlw	32
  2864   0038B6  6E26               	movwf	fputc@c^0,c
  2865   0038B8  C02F  F028         	movff	stoa@fp,fputc@fp
  2866   0038BC  C030  F029         	movff	stoa@fp+1,fputc@fp+1
  2867   0038C0  ECEA  F020         	call	_fputc	;wreg free
  2868   0038C4                     
  2869                           ;C:\Program Files\Microchip\xc8\v2.41\pic\sources\c99\common\doprnt.c: 886:             
      +                          ++l;
  2870   0038C4  0100               	movlb	0	; () banked
  2871   0038C6  4B8F               	infsnz	stoa@l& (0+255),f,b
  2872   0038C8  2B90               	incf	(stoa@l+1)& (0+255),f,b
  2873   0038CA                     l6544:
  2874                           
  2875                           ; BSR set to: 0
  2876                           ;C:\Program Files\Microchip\xc8\v2.41\pic\sources\c99\common\doprnt.c: 884:         whil
      +                          e (l < w) {
  2877   0038CA  5189               	movf	stoa@w& (0+255),w,b
  2878   0038CC  5D8F               	subwf	stoa@l& (0+255),w,b
  2879   0038CE  5190               	movf	(stoa@l+1)& (0+255),w,b
  2880   0038D0  0A80               	xorlw	128
  2881   0038D2  6E33               	movwf	??_stoa^0,c
  2882   0038D4  518A               	movf	(stoa@w+1)& (0+255),w,b
  2883   0038D6  0A80               	xorlw	128
  2884   0038D8  5833               	subwfb	??_stoa^0,w,c
  2885   0038DA  A0D8               	btfss	status,0,c
  2886   0038DC  EF72  F01C         	goto	u7991
  2887   0038E0  EF74  F01C         	goto	u7990
  2888   0038E4                     u7991:
  2889   0038E4  EF58  F01C         	goto	l6540
  2890   0038E8                     u7990:
  2891   0038E8                     l6546:
  2892                           
  2893                           ; BSR set to: 0
  2894                           ;C:\Program Files\Microchip\xc8\v2.41\pic\sources\c99\common\doprnt.c: 893:     i = 0;
  2895   0038E8  0E00               	movlw	0
  2896   0038EA  6F88               	movwf	(stoa@i+1)& (0+255),b
  2897   0038EC  0E00               	movlw	0
  2898   0038EE  6F87               	movwf	stoa@i& (0+255),b
  2899                           
  2900                           ;C:\Program Files\Microchip\xc8\v2.41\pic\sources\c99\common\doprnt.c: 894:     while (i
      +                           < p) {
  2901   0038F0  EF9A  F01C         	goto	l6554
  2902   0038F4                     l6548:
  2903                           
  2904                           ; BSR set to: 0
  2905                           ;C:\Program Files\Microchip\xc8\v2.41\pic\sources\c99\common\doprnt.c: 895:         fput
      +                          c(*cp, fp);
  2906   0038F4  C08B  FFF6         	movff	stoa@cp,tblptrl
  2907   0038F8  C08C  FFF7         	movff	stoa@cp+1,tblptrh
  2908   0038FC  0E00               	movlw	low (__smallconst shr (0+16))
  2909   0038FE  6EF8               	movwf	tblptru,c
  2910   003900  0E0F               	movlw	(high __ramtop+-1)
  2911   003902  64F7               	cpfsgt	tblptrh,c
  2912   003904  D003               	bra	u8007
  2913   003906  0008               	tblrd		*
  2914   003908  50F5               	movf	tablat,w,c
  2915   00390A  D005               	bra	u8000
  2916   00390C                     u8007:
  2917   00390C  CFF6 FFE1          	movff	tblptrl,fsr1l
  2918   003910  CFF7 FFE2          	movff	tblptrh,fsr1h
  2919   003914  50E7               	movf	indf1,w,c
  2920   003916                     u8000:
  2921   003916  6E33               	movwf	??_stoa^0,c
  2922   003918  5033               	movf	??_stoa^0,w,c
  2923   00391A  6E26               	movwf	fputc@c^0,c
  2924   00391C  6A27               	clrf	(fputc@c+1)^0,c
  2925   00391E  C02F  F028         	movff	stoa@fp,fputc@fp
  2926   003922  C030  F029         	movff	stoa@fp+1,fputc@fp+1
  2927   003926  ECEA  F020         	call	_fputc	;wreg free
  2928   00392A                     
  2929                           ;C:\Program Files\Microchip\xc8\v2.41\pic\sources\c99\common\doprnt.c: 896:         ++cp
      +                          ;
  2930   00392A  0100               	movlb	0	; () banked
  2931   00392C  4B8B               	infsnz	stoa@cp& (0+255),f,b
  2932   00392E  2B8C               	incf	(stoa@cp+1)& (0+255),f,b
  2933   003930                     
  2934                           ; BSR set to: 0
  2935                           ;C:\Program Files\Microchip\xc8\v2.41\pic\sources\c99\common\doprnt.c: 897:         ++i;
  2936   003930  4B87               	infsnz	stoa@i& (0+255),f,b
  2937   003932  2B88               	incf	(stoa@i+1)& (0+255),f,b
  2938   003934                     l6554:
  2939                           
  2940                           ; BSR set to: 0
  2941                           ;C:\Program Files\Microchip\xc8\v2.41\pic\sources\c99\common\doprnt.c: 894:     while (i
      +                           < p) {
  2942   003934  518D               	movf	stoa@p& (0+255),w,b
  2943   003936  5D87               	subwf	stoa@i& (0+255),w,b
  2944   003938  5188               	movf	(stoa@i+1)& (0+255),w,b
  2945   00393A  0A80               	xorlw	128
  2946   00393C  6E33               	movwf	??_stoa^0,c
  2947   00393E  518E               	movf	(stoa@p+1)& (0+255),w,b
  2948   003940  0A80               	xorlw	128
  2949   003942  5833               	subwfb	??_stoa^0,w,c
  2950   003944  A0D8               	btfss	status,0,c
  2951   003946  EFA7  F01C         	goto	u8011
  2952   00394A  EFA9  F01C         	goto	u8010
  2953   00394E                     u8011:
  2954   00394E  EF7A  F01C         	goto	l6548
  2955   003952                     u8010:
  2956   003952                     
  2957                           ; BSR set to: 0
  2958                           ;C:\Program Files\Microchip\xc8\v2.41\pic\sources\c99\common\doprnt.c: 902:     if (flag
      +                          s & (1 << 0)) {
  2959   003952  A054               	btfss	_flags^0,0,c
  2960   003954  EFAE  F01C         	goto	u8021
  2961   003958  EFB0  F01C         	goto	u8020
  2962   00395C                     u8021:
  2963   00395C  EFCE  F01C         	goto	l1154
  2964   003960                     u8020:
  2965   003960  EFBF  F01C         	goto	l6562
  2966   003964                     l6558:
  2967                           
  2968                           ; BSR set to: 0
  2969                           ;C:\Program Files\Microchip\xc8\v2.41\pic\sources\c99\common\doprnt.c: 904:             
      +                          fputc(' ', fp);
  2970   003964  0E00               	movlw	0
  2971   003966  6E27               	movwf	(fputc@c+1)^0,c
  2972   003968  0E20               	movlw	32
  2973   00396A  6E26               	movwf	fputc@c^0,c
  2974   00396C  C02F  F028         	movff	stoa@fp,fputc@fp
  2975   003970  C030  F029         	movff	stoa@fp+1,fputc@fp+1
  2976   003974  ECEA  F020         	call	_fputc	;wreg free
  2977   003978                     
  2978                           ;C:\Program Files\Microchip\xc8\v2.41\pic\sources\c99\common\doprnt.c: 905:             
      +                          ++l;
  2979   003978  0100               	movlb	0	; () banked
  2980   00397A  4B8F               	infsnz	stoa@l& (0+255),f,b
  2981   00397C  2B90               	incf	(stoa@l+1)& (0+255),f,b
  2982   00397E                     l6562:
  2983                           
  2984                           ; BSR set to: 0
  2985                           ;C:\Program Files\Microchip\xc8\v2.41\pic\sources\c99\common\doprnt.c: 903:         whil
      +                          e (l < w) {
  2986   00397E  5189               	movf	stoa@w& (0+255),w,b
  2987   003980  5D8F               	subwf	stoa@l& (0+255),w,b
  2988   003982  5190               	movf	(stoa@l+1)& (0+255),w,b
  2989   003984  0A80               	xorlw	128
  2990   003986  6E33               	movwf	??_stoa^0,c
  2991   003988  518A               	movf	(stoa@w+1)& (0+255),w,b
  2992   00398A  0A80               	xorlw	128
  2993   00398C  5833               	subwfb	??_stoa^0,w,c
  2994   00398E  A0D8               	btfss	status,0,c
  2995   003990  EFCC  F01C         	goto	u8031
  2996   003994  EFCE  F01C         	goto	u8030
  2997   003998                     u8031:
  2998   003998  EFB2  F01C         	goto	l6558
  2999   00399C                     u8030:
  3000   00399C                     l1154:
  3001                           
  3002                           ; BSR set to: 0
  3003   00399C  0012               	return		;funcret
  3004   00399E                     __end_of_stoa:
  3005                           	callstack 0
  3006                           
  3007 ;; *************** function _strlen *****************
  3008 ;; Defined at:
  3009 ;;		line 5 in file "C:\Program Files\Microchip\xc8\v2.41\pic\sources\c99\common\strlen.c"
  3010 ;; Parameters:    Size  Location     Type
  3011 ;;  s               2   37[COMRAM] PTR const unsigned char 
  3012 ;;		 -> stoa@nuls(7), ?_sprintf(2), STR_10(5), STR_9(5), 
  3013 ;;		 -> STR_8(5), STR_7(6), STR_6(4), STR_5(6), 
  3014 ;;		 -> STR_4(4), voltage(4), 
  3015 ;; Auto vars:     Size  Location     Type
  3016 ;;  a               2   39[COMRAM] PTR const unsigned char 
  3017 ;;		 -> stoa@nuls(7), ?_sprintf(2), STR_10(5), STR_9(5), 
  3018 ;;		 -> STR_8(5), STR_7(6), STR_6(4), STR_5(6), 
  3019 ;;		 -> STR_4(4), voltage(4), 
  3020 ;; Return value:  Size  Location     Type
  3021 ;;                  2   37[COMRAM] unsigned int 
  3022 ;; Registers used:
  3023 ;;		wreg, fsr1l, fsr1h, status,2, status,0, tblptrl, tblptrh, tblptru
  3024 ;; Tracked objects:
  3025 ;;		On entry : 0/0
  3026 ;;		On exit  : 0/0
  3027 ;;		Unchanged: 0/0
  3028 ;; Data sizes:     COMRAM   BANK0   BANK1   BANK2   BANK3   BANK4   BANK5   BANK6   BANK7   BANK8   BANK9  BANK10  BANK1
      +1  BANK12  BANK13  BANK14  BANK15
  3029 ;;      Params:         2       0       0       0       0       0       0       0       0       0       0       0       
      +0       0       0       0       0
  3030 ;;      Locals:         2       0       0       0       0       0       0       0       0       0       0       0       
      +0       0       0       0       0
  3031 ;;      Temps:          0       0       0       0       0       0       0       0       0       0       0       0       
      +0       0       0       0       0
  3032 ;;      Totals:         4       0       0       0       0       0       0       0       0       0       0       0       
      +0       0       0       0       0
  3033 ;;Total ram usage:        4 bytes
  3034 ;; Hardware stack levels used: 1
  3035 ;; Hardware stack levels required when called: 3
  3036 ;; This function calls:
  3037 ;;		Nothing
  3038 ;; This function is called by:
  3039 ;;		_stoa
  3040 ;; This function uses a non-reentrant model
  3041 ;;
  3042                           
  3043                           	psect	text6
  3044   004AA6                     __ptext6:
  3045                           	callstack 0
  3046   004AA6                     _strlen:
  3047                           	callstack 23
  3048   004AA6  C026  F028         	movff	strlen@s,strlen@a
  3049   004AAA  C027  F029         	movff	strlen@s+1,strlen@a+1
  3050   004AAE  EF5B  F025         	goto	l6226
  3051   004AB2                     l6224:
  3052   004AB2  4A26               	infsnz	strlen@s^0,f,c
  3053   004AB4  2A27               	incf	(strlen@s+1)^0,f,c
  3054   004AB6                     l6226:
  3055   004AB6  C026  FFF6         	movff	strlen@s,tblptrl
  3056   004ABA  C027  FFF7         	movff	strlen@s+1,tblptrh
  3057   004ABE  0E00               	movlw	low (__smallconst shr (0+16))
  3058   004AC0  6EF8               	movwf	tblptru,c
  3059   004AC2  0E0F               	movlw	(high __ramtop+-1)
  3060   004AC4  64F7               	cpfsgt	tblptrh,c
  3061   004AC6  D003               	bra	u7487
  3062   004AC8  0008               	tblrd		*
  3063   004ACA  50F5               	movf	tablat,w,c
  3064   004ACC  D005               	bra	u7480
  3065   004ACE                     u7487:
  3066   004ACE  CFF6 FFE1          	movff	tblptrl,fsr1l
  3067   004AD2  CFF7 FFE2          	movff	tblptrh,fsr1h
  3068   004AD6  50E7               	movf	indf1,w,c
  3069   004AD8                     u7480:
  3070   004AD8  0900               	iorlw	0
  3071   004ADA  A4D8               	btfss	status,2,c
  3072   004ADC  EF72  F025         	goto	u7491
  3073   004AE0  EF74  F025         	goto	u7490
  3074   004AE4                     u7491:
  3075   004AE4  EF59  F025         	goto	l6224
  3076   004AE8                     u7490:
  3077   004AE8  5028               	movf	strlen@a^0,w,c
  3078   004AEA  5C26               	subwf	strlen@s^0,w,c
  3079   004AEC  6E26               	movwf	?_strlen^0,c
  3080   004AEE  5029               	movf	(strlen@a+1)^0,w,c
  3081   004AF0  5827               	subwfb	(strlen@s+1)^0,w,c
  3082   004AF2  6E27               	movwf	(?_strlen+1)^0,c
  3083   004AF4  0012               	return		;funcret
  3084   004AF6                     __end_of_strlen:
  3085                           	callstack 0
  3086                           
  3087 ;; *************** function _read_prec_or_width *****************
  3088 ;; Defined at:
  3089 ;;		line 1029 in file "C:\Program Files\Microchip\xc8\v2.41\pic\sources\c99\common\doprnt.c"
  3090 ;; Parameters:    Size  Location     Type
  3091 ;;  fmt             2   43[COMRAM] PTR PTR const unsigned c
  3092 ;;		 -> vfprintf@cfmt(2), 
  3093 ;;  ap              2   45[COMRAM] PTR PTR void [1]
  3094 ;;		 -> sprintf@ap(2), 
  3095 ;; Auto vars:     Size  Location     Type
  3096 ;;  c               1    0[BANK0 ] unsigned char 
  3097 ;;  n               2    1[BANK0 ] int 
  3098 ;; Return value:  Size  Location     Type
  3099 ;;                  2   43[COMRAM] int 
  3100 ;; Registers used:
  3101 ;;		wreg, fsr2l, fsr2h, status,2, status,0, tblptrl, tblptrh, tblptru, prodl, prodh, cstack
  3102 ;; Tracked objects:
  3103 ;;		On entry : 0/0
  3104 ;;		On exit  : 0/0
  3105 ;;		Unchanged: 0/0
  3106 ;; Data sizes:     COMRAM   BANK0   BANK1   BANK2   BANK3   BANK4   BANK5   BANK6   BANK7   BANK8   BANK9  BANK10  BANK1
      +1  BANK12  BANK13  BANK14  BANK15
  3107 ;;      Params:         4       0       0       0       0       0       0       0       0       0       0       0       
      +0       0       0       0       0
  3108 ;;      Locals:         0       3       0       0       0       0       0       0       0       0       0       0       
      +0       0       0       0       0
  3109 ;;      Temps:          2       0       0       0       0       0       0       0       0       0       0       0       
      +0       0       0       0       0
  3110 ;;      Totals:         6       3       0       0       0       0       0       0       0       0       0       0       
      +0       0       0       0       0
  3111 ;;Total ram usage:        9 bytes
  3112 ;; Hardware stack levels used: 1
  3113 ;; Hardware stack levels required when called: 4
  3114 ;; This function calls:
  3115 ;;		___wmul
  3116 ;; This function is called by:
  3117 ;;		_vfpfcnvrt
  3118 ;; This function uses a non-reentrant model
  3119 ;;
  3120                           
  3121                           	psect	text7
  3122   00410A                     __ptext7:
  3123                           	callstack 0
  3124   00410A                     _read_prec_or_width:
  3125                           	callstack 23
  3126   00410A                     
  3127                           ;C:\Program Files\Microchip\xc8\v2.41\pic\sources\c99\common\doprnt.c: 1030:     int n =
      +                           0;
  3128   00410A  0E00               	movlw	0
  3129   00410C  0100               	movlb	0	; () banked
  3130   00410E  6F82               	movwf	(read_prec_or_width@n+1)& (0+255),b
  3131   004110  0E00               	movlw	0
  3132   004112  6F81               	movwf	read_prec_or_width@n& (0+255),b
  3133   004114                     
  3134                           ; BSR set to: 0
  3135                           ;C:\Program Files\Microchip\xc8\v2.41\pic\sources\c99\common\doprnt.c: 1031:     if ((*f
      +                          mt)[0] == '*') {
  3136   004114  C02C  FFD9         	movff	read_prec_or_width@fmt,fsr2l
  3137   004118  C02D  FFDA         	movff	read_prec_or_width@fmt+1,fsr2h
  3138   00411C  CFDE FFF6          	movff	postinc2,tblptrl
  3139   004120  CFDD FFF7          	movff	postdec2,tblptrh
  3140   004124                     	if	0	;tblptru may be non-zero
  3141   004124                     	endif
  3142   004124                     	if	0	;tblptru may be non-zero
  3143   004124                     	endif
  3144   004124  0008               	tblrd		*
  3145   004126  50F5               	movf	tablat,w,c
  3146   004128  0A2A               	xorlw	42
  3147   00412A  A4D8               	btfss	status,2,c
  3148   00412C  EF9A  F020         	goto	u8041
  3149   004130  EF9C  F020         	goto	u8040
  3150   004134                     u8041:
  3151   004134  EFD1  F020         	goto	l6574
  3152   004138                     u8040:
  3153   004138                     
  3154                           ; BSR set to: 0
  3155                           ;C:\Program Files\Microchip\xc8\v2.41\pic\sources\c99\common\doprnt.c: 1032:         ++*
      +                          fmt;
  3156   004138  C02C  FFD9         	movff	read_prec_or_width@fmt,fsr2l
  3157   00413C  C02D  FFDA         	movff	read_prec_or_width@fmt+1,fsr2h
  3158   004140  2ADE               	incf	postinc2,f,c
  3159   004142  0E00               	movlw	0
  3160   004144  22DD               	addwfc	postdec2,f,c
  3161                           
  3162                           ;C:\Program Files\Microchip\xc8\v2.41\pic\sources\c99\common\doprnt.c: 1033:         n =
      +                           (*(int *)__va_arg(*(int **)*ap, (int)0));
  3163   004146  C02E  FFD9         	movff	read_prec_or_width@ap,fsr2l
  3164   00414A  C02F  FFDA         	movff	read_prec_or_width@ap+1,fsr2h
  3165   00414E  CFDF F030          	movff	indf2,??_read_prec_or_width
  3166   004152  0E02               	movlw	2
  3167   004154  26DE               	addwf	postinc2,f,c
  3168   004156  CFDF F031          	movff	indf2,??_read_prec_or_width+1
  3169   00415A  0E00               	movlw	0
  3170   00415C  22DD               	addwfc	postdec2,f,c
  3171   00415E  C030  FFD9         	movff	??_read_prec_or_width,fsr2l
  3172   004162  C031  FFDA         	movff	??_read_prec_or_width+1,fsr2h
  3173   004166  CFDE F081          	movff	postinc2,read_prec_or_width@n
  3174   00416A  CFDD F082          	movff	postdec2,read_prec_or_width@n+1
  3175                           
  3176                           ;C:\Program Files\Microchip\xc8\v2.41\pic\sources\c99\common\doprnt.c: 1034:     } else 
      +                          {
  3177   00416E  EFE5  F020         	goto	l1158
  3178   004172                     l6570:
  3179                           
  3180                           ; BSR set to: 0
  3181                           ;C:\Program Files\Microchip\xc8\v2.41\pic\sources\c99\common\doprnt.c: 1037:            
      +                           n = n * 10 + c;
  3182   004172  C081  F026         	movff	read_prec_or_width@n,___wmul@multiplier
  3183   004176  C082  F027         	movff	read_prec_or_width@n+1,___wmul@multiplier+1
  3184   00417A  0E00               	movlw	0
  3185   00417C  6E29               	movwf	(___wmul@multiplicand+1)^0,c
  3186   00417E  0E0A               	movlw	10
  3187   004180  6E28               	movwf	___wmul@multiplicand^0,c
  3188   004182  EC01  F027         	call	___wmul	;wreg free
  3189   004186  0100               	movlb	0	; () banked
  3190   004188  5180               	movf	read_prec_or_width@c& (0+255),w,b
  3191   00418A  2426               	addwf	?___wmul^0,w,c
  3192   00418C  6F81               	movwf	read_prec_or_width@n& (0+255),b
  3193   00418E  0E00               	movlw	0
  3194   004190  2027               	addwfc	(?___wmul+1)^0,w,c
  3195   004192  6F82               	movwf	(read_prec_or_width@n+1)& (0+255),b
  3196   004194                     
  3197                           ; BSR set to: 0
  3198                           ;C:\Program Files\Microchip\xc8\v2.41\pic\sources\c99\common\doprnt.c: 1038:            
      +                           ++*fmt;
  3199   004194  C02C  FFD9         	movff	read_prec_or_width@fmt,fsr2l
  3200   004198  C02D  FFDA         	movff	read_prec_or_width@fmt+1,fsr2h
  3201   00419C  2ADE               	incf	postinc2,f,c
  3202   00419E  0E00               	movlw	0
  3203   0041A0  22DD               	addwfc	postdec2,f,c
  3204   0041A2                     l6574:
  3205                           
  3206                           ; BSR set to: 0
  3207                           ;C:\Program Files\Microchip\xc8\v2.41\pic\sources\c99\common\doprnt.c: 1036:         whi
      +                          le ((c = ((unsigned)(*fmt)[0]) - '0') < 10) {
  3208   0041A2  C02C  FFD9         	movff	read_prec_or_width@fmt,fsr2l
  3209   0041A6  C02D  FFDA         	movff	read_prec_or_width@fmt+1,fsr2h
  3210   0041AA  CFDE FFF6          	movff	postinc2,tblptrl
  3211   0041AE  CFDD FFF7          	movff	postdec2,tblptrh
  3212   0041B2                     	if	0	;tblptru may be non-zero
  3213   0041B2                     	endif
  3214   0041B2                     	if	0	;tblptru may be non-zero
  3215   0041B2                     	endif
  3216   0041B2  0008               	tblrd		*
  3217   0041B4  50F5               	movf	tablat,w,c
  3218   0041B6  0FD0               	addlw	208
  3219   0041B8  6F80               	movwf	read_prec_or_width@c& (0+255),b
  3220   0041BA  0E09               	movlw	9
  3221   0041BC  6580               	cpfsgt	read_prec_or_width@c& (0+255),b
  3222   0041BE  EFE3  F020         	goto	u8051
  3223   0041C2  EFE5  F020         	goto	u8050
  3224   0041C6                     u8051:
  3225   0041C6  EFB9  F020         	goto	l6570
  3226   0041CA                     u8050:
  3227   0041CA                     l1158:
  3228                           
  3229                           ; BSR set to: 0
  3230                           ;C:\Program Files\Microchip\xc8\v2.41\pic\sources\c99\common\doprnt.c: 1041:     return 
      +                          n;
  3231   0041CA  C081  F02C         	movff	read_prec_or_width@n,?_read_prec_or_width
  3232   0041CE  C082  F02D         	movff	read_prec_or_width@n+1,?_read_prec_or_width+1
  3233   0041D2                     
  3234                           ; BSR set to: 0
  3235   0041D2  0012               	return		;funcret
  3236   0041D4                     __end_of_read_prec_or_width:
  3237                           	callstack 0
  3238                           
  3239 ;; *************** function ___wmul *****************
  3240 ;; Defined at:
  3241 ;;		line 15 in file "C:\Program Files\Microchip\xc8\v2.41\pic\sources\c99\common\Umul16.c"
  3242 ;; Parameters:    Size  Location     Type
  3243 ;;  multiplier      2   37[COMRAM] unsigned int 
  3244 ;;  multiplicand    2   39[COMRAM] unsigned int 
  3245 ;; Auto vars:     Size  Location     Type
  3246 ;;  product         2   41[COMRAM] unsigned int 
  3247 ;; Return value:  Size  Location     Type
  3248 ;;                  2   37[COMRAM] unsigned int 
  3249 ;; Registers used:
  3250 ;;		wreg, status,2, status,0, prodl, prodh
  3251 ;; Tracked objects:
  3252 ;;		On entry : 0/0
  3253 ;;		On exit  : 0/0
  3254 ;;		Unchanged: 0/0
  3255 ;; Data sizes:     COMRAM   BANK0   BANK1   BANK2   BANK3   BANK4   BANK5   BANK6   BANK7   BANK8   BANK9  BANK10  BANK1
      +1  BANK12  BANK13  BANK14  BANK15
  3256 ;;      Params:         4       0       0       0       0       0       0       0       0       0       0       0       
      +0       0       0       0       0
  3257 ;;      Locals:         2       0       0       0       0       0       0       0       0       0       0       0       
      +0       0       0       0       0
  3258 ;;      Temps:          0       0       0       0       0       0       0       0       0       0       0       0       
      +0       0       0       0       0
  3259 ;;      Totals:         6       0       0       0       0       0       0       0       0       0       0       0       
      +0       0       0       0       0
  3260 ;;Total ram usage:        6 bytes
  3261 ;; Hardware stack levels used: 1
  3262 ;; Hardware stack levels required when called: 3
  3263 ;; This function calls:
  3264 ;;		Nothing
  3265 ;; This function is called by:
  3266 ;;		_read_prec_or_width
  3267 ;;		_incrementClock
  3268 ;;		_decrementClock
  3269 ;; This function uses a non-reentrant model
  3270 ;;
  3271                           
  3272                           	psect	text8
  3273   004E02                     __ptext8:
  3274                           	callstack 0
  3275   004E02                     ___wmul:
  3276                           	callstack 23
  3277   004E02  5026               	movf	___wmul@multiplier^0,w,c
  3278   004E04  0228               	mulwf	___wmul@multiplicand^0,c
  3279   004E06  CFF3 F02A          	movff	prodl,___wmul@product
  3280   004E0A  CFF4 F02B          	movff	prodh,___wmul@product+1
  3281   004E0E  5026               	movf	___wmul@multiplier^0,w,c
  3282   004E10  0229               	mulwf	(___wmul@multiplicand+1)^0,c
  3283   004E12  50F3               	movf	243,w,c
  3284   004E14  262B               	addwf	(___wmul@product+1)^0,f,c
  3285   004E16  5027               	movf	(___wmul@multiplier+1)^0,w,c
  3286   004E18  0228               	mulwf	___wmul@multiplicand^0,c
  3287   004E1A  50F3               	movf	243,w,c
  3288   004E1C  262B               	addwf	(___wmul@product+1)^0,f,c
  3289   004E1E  C02A  F026         	movff	___wmul@product,?___wmul
  3290   004E22  C02B  F027         	movff	___wmul@product+1,?___wmul+1
  3291   004E26  0012               	return		;funcret
  3292   004E28                     __end_of___wmul:
  3293                           	callstack 0
  3294                           
  3295 ;; *************** function _efgtoa *****************
  3296 ;; Defined at:
  3297 ;;		line 531 in file "C:\Program Files\Microchip\xc8\v2.41\pic\sources\c99\common\doprnt.c"
  3298 ;; Parameters:    Size  Location     Type
  3299 ;;  fp              2   70[BANK0 ] PTR struct _IO_FILE
  3300 ;;		 -> sprintf@f(12), 
  3301 ;;  f               4   72[BANK0 ] PTR struct _IO_FILE
  3302 ;;  c               1   76[BANK0 ] unsigned char 
  3303 ;; Auto vars:     Size  Location     Type
  3304 ;;  u               4   40[BANK1 ] struct flui
  3305 ;;  g               4   34[BANK1 ] struct flui
  3306 ;;  l               4   29[BANK1 ] struct flui
  3307 ;;  h               4   25[BANK1 ] struct flui
  3308 ;;  ou              4   19[BANK1 ] struct flui
  3309 ;;  n               2   38[BANK1 ] int 
  3310 ;;  i               2   23[BANK1 ] int 
  3311 ;;  w               2   17[BANK1 ] int 
  3312 ;;  e               2   15[BANK1 ] int 
  3313 ;;  m               2   13[BANK1 ] int 
  3314 ;;  d               2   11[BANK1 ] int 
  3315 ;;  t               2    4[BANK1 ] int 
  3316 ;;  p               2    2[BANK1 ] int 
  3317 ;;  ne              2    0[BANK1 ] int 
  3318 ;;  sign            1   33[BANK1 ] unsigned char 
  3319 ;;  nmode           1   10[BANK1 ] unsigned char 
  3320 ;;  mode            1    9[BANK1 ] unsigned char 
  3321 ;;  pp              1    8[BANK1 ] unsigned char 
  3322 ;;  esign           1    0        unsigned char 
  3323 ;; Return value:  Size  Location     Type
  3324 ;;                  1    wreg      void 
  3325 ;; Registers used:
  3326 ;;		wreg, fsr1l, fsr1h, fsr2l, fsr2h, status,2, status,0, tblptrl, tblptrh, tblptru, prodl, prodh, cstack
  3327 ;; Tracked objects:
  3328 ;;		On entry : 0/0
  3329 ;;		On exit  : 0/0
  3330 ;;		Unchanged: 0/0
  3331 ;; Data sizes:     COMRAM   BANK0   BANK1   BANK2   BANK3   BANK4   BANK5   BANK6   BANK7   BANK8   BANK9  BANK10  BANK1
      +1  BANK12  BANK13  BANK14  BANK15
  3332 ;;      Params:         0       7       0       0       0       0       0       0       0       0       0       0       
      +0       0       0       0       0
  3333 ;;      Locals:         0       0      44       0       0       0       0       0       0       0       0       0       
      +0       0       0       0       0
  3334 ;;      Temps:          0       2       0       0       0       0       0       0       0       0       0       0       
      +0       0       0       0       0
  3335 ;;      Totals:         0       9      44       0       0       0       0       0       0       0       0       0       
      +0       0       0       0       0
  3336 ;;Total ram usage:       53 bytes
  3337 ;; Hardware stack levels used: 1
  3338 ;; Hardware stack levels required when called: 7
  3339 ;; This function calls:
  3340 ;;		___fladd
  3341 ;;		___fldiv
  3342 ;;		___fleq
  3343 ;;		___flge
  3344 ;;		___flmul
  3345 ;;		___flneg
  3346 ;;		___flsub
  3347 ;;		___fltol
  3348 ;;		___fpclassifyf
  3349 ;;		_floorf
  3350 ;;		_labs
  3351 ;;		_memcpy
  3352 ;;		_pad
  3353 ;;		_strcpy
  3354 ;; This function is called by:
  3355 ;;		_vfpfcnvrt
  3356 ;; This function uses a non-reentrant model
  3357 ;;
  3358                           
  3359                           	psect	text9
  3360   00104A                     __ptext9:
  3361                           	callstack 0
  3362   00104A                     _efgtoa:
  3363                           	callstack 20
  3364   00104A                     
  3365                           ;C:\Program Files\Microchip\xc8\v2.41\pic\sources\c99\common\doprnt.c: 531: static void 
      +                          efgtoa(FILE *fp, long double f, char c);C:\Program Files\Microchip\xc8\v2.41\pic\sources
      +                          \c99\common\doprnt.c: 532: {;C:\Program Files\Microchip\xc8\v2.41\pic\sources\c99\common
      +                          \doprnt.c: 533:     char mode, nmode, pp, sign, esign;;C:\Program Files\Microchip\xc8\v2
      +                          .41\pic\sources\c99\common\doprnt.c: 534:     int d, e, i, m, n, ne, p, t, w;;C:\Program
      +                           Files\Microchip\xc8\v2.41\pic\sources\c99\common\doprnt.c: 535:     long double h, l;
  3366   00104A  0E00               	movlw	0
  3367   00104C  0101               	movlb	1	; () banked
  3368   00104E  6F21               	movwf	efgtoa@sign& (0+255),b
  3369   001050                     
  3370                           ; BSR set to: 1
  3371                           ;C:\Program Files\Microchip\xc8\v2.41\pic\sources\c99\common\doprnt.c: 540:     g.f = f;
  3372   001050  C0C8  F122         	movff	efgtoa@f,efgtoa@g
  3373   001054  C0C9  F123         	movff	efgtoa@f+1,efgtoa@g+1
  3374   001058  C0CA  F124         	movff	efgtoa@f+2,efgtoa@g+2
  3375   00105C  C0CB  F125         	movff	efgtoa@f+3,efgtoa@g+3
  3376   001060                     
  3377                           ; BSR set to: 1
  3378                           ;C:\Program Files\Microchip\xc8\v2.41\pic\sources\c99\common\doprnt.c: 541:     if (g.f 
      +                          < 0.0) {
  3379   001060  BF25               	btfsc	(efgtoa@g+3)& (0+255),7,b
  3380   001062  EF37  F008         	goto	u7620
  3381   001066  EF35  F008         	goto	u7621
  3382   00106A                     u7621:
  3383   00106A  EF4B  F008         	goto	l6310
  3384   00106E                     u7620:
  3385   00106E                     
  3386                           ; BSR set to: 1
  3387                           ;C:\Program Files\Microchip\xc8\v2.41\pic\sources\c99\common\doprnt.c: 542:         sign
      +                           = 1;
  3388   00106E  0E01               	movlw	1
  3389   001070  6F21               	movwf	efgtoa@sign& (0+255),b
  3390   001072                     
  3391                           ; BSR set to: 1
  3392                           ;C:\Program Files\Microchip\xc8\v2.41\pic\sources\c99\common\doprnt.c: 543:         g.f 
      +                          = -g.f;
  3393   001072  C122  F026         	movff	efgtoa@g,___flneg@f1
  3394   001076  C123  F027         	movff	efgtoa@g+1,___flneg@f1+1
  3395   00107A  C124  F028         	movff	efgtoa@g+2,___flneg@f1+2
  3396   00107E  C125  F029         	movff	efgtoa@g+3,___flneg@f1+3
  3397   001082  EC6A  F026         	call	___flneg	;wreg free
  3398   001086  C026  F122         	movff	?___flneg,efgtoa@g
  3399   00108A  C027  F123         	movff	?___flneg+1,efgtoa@g+1
  3400   00108E  C028  F124         	movff	?___flneg+2,efgtoa@g+2
  3401   001092  C029  F125         	movff	?___flneg+3,efgtoa@g+3
  3402   001096                     l6310:
  3403                           
  3404                           ;C:\Program Files\Microchip\xc8\v2.41\pic\sources\c99\common\doprnt.c: 547:     n = 0;
  3405   001096  0E00               	movlw	0
  3406   001098  0101               	movlb	1	; () banked
  3407   00109A  6F27               	movwf	(efgtoa@n+1)& (0+255),b
  3408   00109C  0E00               	movlw	0
  3409   00109E  6F26               	movwf	efgtoa@n& (0+255),b
  3410   0010A0                     
  3411                           ; BSR set to: 1
  3412                           ;C:\Program Files\Microchip\xc8\v2.41\pic\sources\c99\common\doprnt.c: 548:     w = widt
      +                          h;
  3413   0010A0  C040  F111         	movff	_width,efgtoa@w
  3414   0010A4  C041  F112         	movff	_width+1,efgtoa@w+1
  3415   0010A8                     
  3416                           ; BSR set to: 1
  3417                           ;C:\Program Files\Microchip\xc8\v2.41\pic\sources\c99\common\doprnt.c: 549:     if (sign
  3418   0010A8  5121               	movf	efgtoa@sign& (0+255),w,b
  3419   0010AA  B4D8               	btfsc	status,2,c
  3420   0010AC  EF5A  F008         	goto	u7631
  3421   0010B0  EF5C  F008         	goto	u7630
  3422   0010B4                     u7631:
  3423   0010B4  EF70  F008         	goto	l6324
  3424   0010B8                     u7630:
  3425   0010B8                     
  3426                           ; BSR set to: 1
  3427                           ;C:\Program Files\Microchip\xc8\v2.41\pic\sources\c99\common\doprnt.c: 553:    ) {;C:\Pr
      +                          ogram Files\Microchip\xc8\v2.41\pic\sources\c99\common\doprnt.c: 554:   sign = sign ? '-
      +                          ' : '+';
  3428   0010B8  5121               	movf	efgtoa@sign& (0+255),w,b
  3429   0010BA  A4D8               	btfss	status,2,c
  3430   0010BC  EF62  F008         	goto	u7641
  3431   0010C0  EF64  F008         	goto	u7640
  3432   0010C4                     u7641:
  3433   0010C4  EF6A  F008         	goto	l6320
  3434   0010C8                     u7640:
  3435   0010C8                     
  3436                           ; BSR set to: 1
  3437   0010C8  0E00               	movlw	0
  3438   0010CA  6F07               	movwf	(_efgtoa$1836+1)& (0+255),b
  3439   0010CC  0E2B               	movlw	43
  3440   0010CE  6F06               	movwf	_efgtoa$1836& (0+255),b
  3441   0010D0  EF6E  F008         	goto	l6322
  3442   0010D4                     l6320:
  3443                           
  3444                           ; BSR set to: 1
  3445   0010D4  0E00               	movlw	0
  3446   0010D6  6F07               	movwf	(_efgtoa$1836+1)& (0+255),b
  3447   0010D8  0E2D               	movlw	45
  3448   0010DA  6F06               	movwf	_efgtoa$1836& (0+255),b
  3449   0010DC                     l6322:
  3450                           
  3451                           ; BSR set to: 1
  3452   0010DC  C106  F121         	movff	_efgtoa$1836,efgtoa@sign
  3453   0010E0                     l6324:
  3454                           
  3455                           ; BSR set to: 1
  3456                           ;C:\Program Files\Microchip\xc8\v2.41\pic\sources\c99\common\doprnt.c: 563:     if (( __
      +                          fpclassifyf(g.f) == 1 )) {
  3457   0010E0  C122  F026         	movff	efgtoa@g,___fpclassifyf@x
  3458   0010E4  C123  F027         	movff	efgtoa@g+1,___fpclassifyf@x+1
  3459   0010E8  C124  F028         	movff	efgtoa@g+2,___fpclassifyf@x+2
  3460   0010EC  C125  F029         	movff	efgtoa@g+3,___fpclassifyf@x+3
  3461   0010F0  EC24  F01F         	call	___fpclassifyf	;wreg free
  3462   0010F4  0426               	decf	?___fpclassifyf^0,w,c
  3463   0010F6  1027               	iorwf	(?___fpclassifyf+1)^0,w,c
  3464   0010F8  A4D8               	btfss	status,2,c
  3465   0010FA  EF81  F008         	goto	u7651
  3466   0010FE  EF83  F008         	goto	u7650
  3467   001102                     u7651:
  3468   001102  EFB7  F008         	goto	l6342
  3469   001106                     u7650:
  3470   001106                     
  3471                           ;C:\Program Files\Microchip\xc8\v2.41\pic\sources\c99\common\doprnt.c: 564:   if (sign) 
      +                          {
  3472   001106  0101               	movlb	1	; () banked
  3473   001108  5121               	movf	efgtoa@sign& (0+255),w,b
  3474   00110A  B4D8               	btfsc	status,2,c
  3475   00110C  EF8A  F008         	goto	u7661
  3476   001110  EF8C  F008         	goto	u7660
  3477   001114                     u7661:
  3478   001114  EF95  F008         	goto	l6334
  3479   001118                     u7660:
  3480   001118                     
  3481                           ; BSR set to: 1
  3482                           ;C:\Program Files\Microchip\xc8\v2.41\pic\sources\c99\common\doprnt.c: 565:    dbuf[0] =
      +                           sign;
  3483   001118  C121  F177         	movff	efgtoa@sign,_dbuf
  3484   00111C                     
  3485                           ; BSR set to: 1
  3486                           ;C:\Program Files\Microchip\xc8\v2.41\pic\sources\c99\common\doprnt.c: 566:    w--;
  3487   00111C  0711               	decf	efgtoa@w& (0+255),f,b
  3488   00111E  A0D8               	btfss	status,0,c
  3489   001120  0712               	decf	(efgtoa@w+1)& (0+255),f,b
  3490   001122                     
  3491                           ; BSR set to: 1
  3492                           ;C:\Program Files\Microchip\xc8\v2.41\pic\sources\c99\common\doprnt.c: 567:    n = 1;
  3493   001122  0E00               	movlw	0
  3494   001124  6F27               	movwf	(efgtoa@n+1)& (0+255),b
  3495   001126  0E01               	movlw	1
  3496   001128  6F26               	movwf	efgtoa@n& (0+255),b
  3497   00112A                     l6334:
  3498                           
  3499                           ; BSR set to: 1
  3500                           ;C:\Program Files\Microchip\xc8\v2.41\pic\sources\c99\common\doprnt.c: 575:   {;C:\Progr
      +                          am Files\Microchip\xc8\v2.41\pic\sources\c99\common\doprnt.c: 576:             strcpy(&d
      +                          buf[n], "inf");
  3501   00112A  0E77               	movlw	low _dbuf
  3502   00112C  2526               	addwf	efgtoa@n& (0+255),w,b
  3503   00112E  6E26               	movwf	strcpy@dest^0,c
  3504   001130  0E01               	movlw	high _dbuf
  3505   001132  2127               	addwfc	(efgtoa@n+1)& (0+255),w,b
  3506   001134  6E27               	movwf	(strcpy@dest+1)^0,c
  3507   001136  0E3D               	movlw	low STR_12
  3508   001138  6E28               	movwf	strcpy@src^0,c
  3509   00113A  0E10               	movlw	high STR_12
  3510   00113C  6E29               	movwf	(strcpy@src+1)^0,c
  3511   00113E  EC0D  F026         	call	_strcpy	;wreg free
  3512   001142                     l6336:
  3513                           
  3514                           ;C:\Program Files\Microchip\xc8\v2.41\pic\sources\c99\common\doprnt.c: 577:         };C:
      +                          \Program Files\Microchip\xc8\v2.41\pic\sources\c99\common\doprnt.c: 578:         w -= ((
      +                          sizeof("inf")/sizeof("inf"[0]))-1);
  3515   001142  0101               	movlb	1	; () banked
  3516   001144  0EFD               	movlw	253
  3517   001146  2711               	addwf	efgtoa@w& (0+255),f,b
  3518   001148  0EFF               	movlw	255
  3519   00114A  2312               	addwfc	(efgtoa@w+1)& (0+255),f,b
  3520   00114C                     
  3521                           ; BSR set to: 1
  3522                           ;C:\Program Files\Microchip\xc8\v2.41\pic\sources\c99\common\doprnt.c: 579:         retu
      +                          rn (void) pad(fp, &dbuf[0], w);
  3523   00114C  C0C6  F083         	movff	efgtoa@fp,pad@fp
  3524   001150  C0C7  F084         	movff	efgtoa@fp+1,pad@fp+1
  3525   001154  0E77               	movlw	low _dbuf
  3526   001156  0100               	movlb	0	; () banked
  3527   001158  6F85               	movwf	pad@buf& (0+255),b
  3528   00115A  0E01               	movlw	high _dbuf
  3529   00115C  6F86               	movwf	(pad@buf+1)& (0+255),b
  3530   00115E  C111  F087         	movff	efgtoa@w,pad@p
  3531   001162  C112  F088         	movff	efgtoa@w+1,pad@p+1
  3532   001166  EC65  F022         	call	_pad	;wreg free
  3533   00116A  EF3F  F00D         	goto	l1090
  3534   00116E                     l6342:
  3535                           
  3536                           ;C:\Program Files\Microchip\xc8\v2.41\pic\sources\c99\common\doprnt.c: 581:     if (( __
      +                          fpclassifyf(g.f) == 0 )) {
  3537   00116E  C122  F026         	movff	efgtoa@g,___fpclassifyf@x
  3538   001172  C123  F027         	movff	efgtoa@g+1,___fpclassifyf@x+1
  3539   001176  C124  F028         	movff	efgtoa@g+2,___fpclassifyf@x+2
  3540   00117A  C125  F029         	movff	efgtoa@g+3,___fpclassifyf@x+3
  3541   00117E  EC24  F01F         	call	___fpclassifyf	;wreg free
  3542   001182  5026               	movf	?___fpclassifyf^0,w,c
  3543   001184  1027               	iorwf	(?___fpclassifyf+1)^0,w,c
  3544   001186  A4D8               	btfss	status,2,c
  3545   001188  EFC8  F008         	goto	u7671
  3546   00118C  EFCA  F008         	goto	u7670
  3547   001190                     u7671:
  3548   001190  EFEA  F008         	goto	l6360
  3549   001194                     u7670:
  3550   001194                     
  3551                           ;C:\Program Files\Microchip\xc8\v2.41\pic\sources\c99\common\doprnt.c: 582:   if (sign) 
      +                          {
  3552   001194  0101               	movlb	1	; () banked
  3553   001196  5121               	movf	efgtoa@sign& (0+255),w,b
  3554   001198  B4D8               	btfsc	status,2,c
  3555   00119A  EFD1  F008         	goto	u7681
  3556   00119E  EFD3  F008         	goto	u7680
  3557   0011A2                     u7681:
  3558   0011A2  EFDC  F008         	goto	l6352
  3559   0011A6                     u7680:
  3560   0011A6                     
  3561                           ; BSR set to: 1
  3562                           ;C:\Program Files\Microchip\xc8\v2.41\pic\sources\c99\common\doprnt.c: 583:    dbuf[0] =
      +                           sign;
  3563   0011A6  C121  F177         	movff	efgtoa@sign,_dbuf
  3564   0011AA                     
  3565                           ; BSR set to: 1
  3566                           ;C:\Program Files\Microchip\xc8\v2.41\pic\sources\c99\common\doprnt.c: 584:    w--;
  3567   0011AA  0711               	decf	efgtoa@w& (0+255),f,b
  3568   0011AC  A0D8               	btfss	status,0,c
  3569   0011AE  0712               	decf	(efgtoa@w+1)& (0+255),f,b
  3570   0011B0                     
  3571                           ; BSR set to: 1
  3572                           ;C:\Program Files\Microchip\xc8\v2.41\pic\sources\c99\common\doprnt.c: 585:    n = 1;
  3573   0011B0  0E00               	movlw	0
  3574   0011B2  6F27               	movwf	(efgtoa@n+1)& (0+255),b
  3575   0011B4  0E01               	movlw	1
  3576   0011B6  6F26               	movwf	efgtoa@n& (0+255),b
  3577   0011B8                     l6352:
  3578                           
  3579                           ; BSR set to: 1
  3580                           ;C:\Program Files\Microchip\xc8\v2.41\pic\sources\c99\common\doprnt.c: 593:   {;C:\Progr
      +                          am Files\Microchip\xc8\v2.41\pic\sources\c99\common\doprnt.c: 594:             strcpy(&d
      +                          buf[n], "nan");
  3581   0011B8  0E77               	movlw	low _dbuf
  3582   0011BA  2526               	addwf	efgtoa@n& (0+255),w,b
  3583   0011BC  6E26               	movwf	strcpy@dest^0,c
  3584   0011BE  0E01               	movlw	high _dbuf
  3585   0011C0  2127               	addwfc	(efgtoa@n+1)& (0+255),w,b
  3586   0011C2  6E27               	movwf	(strcpy@dest+1)^0,c
  3587   0011C4  0E41               	movlw	low STR_15
  3588   0011C6  6E28               	movwf	strcpy@src^0,c
  3589   0011C8  0E10               	movlw	high STR_15
  3590   0011CA  6E29               	movwf	(strcpy@src+1)^0,c
  3591   0011CC  EC0D  F026         	call	_strcpy	;wreg free
  3592   0011D0  EFA1  F008         	goto	l6336
  3593   0011D4                     l6360:
  3594                           
  3595                           ;C:\Program Files\Microchip\xc8\v2.41\pic\sources\c99\common\doprnt.c: 601:     u.f = 1.
      +                          0;
  3596   0011D4  0E00               	movlw	0
  3597   0011D6  0101               	movlb	1	; () banked
  3598   0011D8  6F28               	movwf	efgtoa@u& (0+255),b
  3599   0011DA  0E00               	movlw	0
  3600   0011DC  6F29               	movwf	(efgtoa@u+1)& (0+255),b
  3601   0011DE  0E80               	movlw	128
  3602   0011E0  6F2A               	movwf	(efgtoa@u+2)& (0+255),b
  3603   0011E2  0E3F               	movlw	63
  3604   0011E4  6F2B               	movwf	(efgtoa@u+3)& (0+255),b
  3605                           
  3606                           ;C:\Program Files\Microchip\xc8\v2.41\pic\sources\c99\common\doprnt.c: 602:     e = 0;
  3607   0011E6  0E00               	movlw	0
  3608   0011E8  6F10               	movwf	(efgtoa@e+1)& (0+255),b
  3609   0011EA  0E00               	movlw	0
  3610   0011EC  6F0F               	movwf	efgtoa@e& (0+255),b
  3611   0011EE                     
  3612                           ; BSR set to: 1
  3613                           ;C:\Program Files\Microchip\xc8\v2.41\pic\sources\c99\common\doprnt.c: 603:  if (!(g.f =
      +                          = 0.0)) {
  3614   0011EE  C122  F026         	movff	efgtoa@g,___fleq@ff1
  3615   0011F2  C123  F027         	movff	efgtoa@g+1,___fleq@ff1+1
  3616   0011F6  C124  F028         	movff	efgtoa@g+2,___fleq@ff1+2
  3617   0011FA  C125  F029         	movff	efgtoa@g+3,___fleq@ff1+3
  3618   0011FE  0E00               	movlw	0
  3619   001200  6E2A               	movwf	___fleq@ff2^0,c
  3620   001202  0E00               	movlw	0
  3621   001204  6E2B               	movwf	(___fleq@ff2+1)^0,c
  3622   001206  0E00               	movlw	0
  3623   001208  6E2C               	movwf	(___fleq@ff2+2)^0,c
  3624   00120A  0E00               	movlw	0
  3625   00120C  6E2D               	movwf	(___fleq@ff2+3)^0,c
  3626   00120E  ECBC  F022         	call	___fleq	;wreg free
  3627   001212  B0D8               	btfsc	status,0,c
  3628   001214  EF0E  F009         	goto	u7691
  3629   001218  EF10  F009         	goto	u7690
  3630   00121C                     u7691:
  3631   00121C  EFF2  F009         	goto	l1093
  3632   001220                     u7690:
  3633   001220  EF1D  F009         	goto	l6368
  3634   001224                     l1095:
  3635                           
  3636                           ;C:\Program Files\Microchip\xc8\v2.41\pic\sources\c99\common\doprnt.c: 605:    u = ou;
  3637   001224  C113  F128         	movff	efgtoa@ou,efgtoa@u
  3638   001228  C114  F129         	movff	efgtoa@ou+1,efgtoa@u+1
  3639   00122C  C115  F12A         	movff	efgtoa@ou+2,efgtoa@u+2
  3640   001230  C116  F12B         	movff	efgtoa@ou+3,efgtoa@u+3
  3641   001234                     
  3642                           ;C:\Program Files\Microchip\xc8\v2.41\pic\sources\c99\common\doprnt.c: 606:    ++e;
  3643   001234  0101               	movlb	1	; () banked
  3644   001236  4B0F               	infsnz	efgtoa@e& (0+255),f,b
  3645   001238  2B10               	incf	(efgtoa@e+1)& (0+255),f,b
  3646   00123A                     l6368:
  3647                           
  3648                           ;C:\Program Files\Microchip\xc8\v2.41\pic\sources\c99\common\doprnt.c: 604:   while ((la
      +                          bs((g).u-((ou.f = u.f*10.0,ou)).u) <= 1) || g.f > ou.f) {
  3649   00123A  C128  F080         	movff	efgtoa@u,___flmul@b
  3650   00123E  C129  F081         	movff	efgtoa@u+1,___flmul@b+1
  3651   001242  C12A  F082         	movff	efgtoa@u+2,___flmul@b+2
  3652   001246  C12B  F083         	movff	efgtoa@u+3,___flmul@b+3
  3653   00124A  0E00               	movlw	0
  3654   00124C  0100               	movlb	0	; () banked
  3655   00124E  6F84               	movwf	___flmul@a& (0+255),b
  3656   001250  0E00               	movlw	0
  3657   001252  6F85               	movwf	(___flmul@a+1)& (0+255),b
  3658   001254  0E20               	movlw	32
  3659   001256  6F86               	movwf	(___flmul@a+2)& (0+255),b
  3660   001258  0E41               	movlw	65
  3661   00125A  6F87               	movwf	(___flmul@a+3)& (0+255),b
  3662   00125C  ECA1  F00F         	call	___flmul	;wreg free
  3663   001260  C080  F113         	movff	?___flmul,efgtoa@ou
  3664   001264  C081  F114         	movff	?___flmul+1,efgtoa@ou+1
  3665   001268  C082  F115         	movff	?___flmul+2,efgtoa@ou+2
  3666   00126C  C083  F116         	movff	?___flmul+3,efgtoa@ou+3
  3667   001270  0101               	movlb	1	; () banked
  3668   001272  5113               	movf	efgtoa@ou& (0+255),w,b
  3669   001274  5D22               	subwf	efgtoa@g& (0+255),w,b
  3670   001276  6E26               	movwf	labs@a^0,c
  3671   001278  5114               	movf	(efgtoa@ou+1)& (0+255),w,b
  3672   00127A  5923               	subwfb	(efgtoa@g+1)& (0+255),w,b
  3673   00127C  6E27               	movwf	(labs@a+1)^0,c
  3674   00127E  5115               	movf	(efgtoa@ou+2)& (0+255),w,b
  3675   001280  5924               	subwfb	(efgtoa@g+2)& (0+255),w,b
  3676   001282  6E28               	movwf	(labs@a+2)^0,c
  3677   001284  5116               	movf	(efgtoa@ou+3)& (0+255),w,b
  3678   001286  5925               	subwfb	(efgtoa@g+3)& (0+255),w,b
  3679   001288  6E29               	movwf	(labs@a+3)^0,c
  3680   00128A  ECA1  F024         	call	_labs	;wreg free
  3681   00128E  BE29               	btfsc	(?_labs+3)^0,7,c
  3682   001290  EF55  F009         	goto	u7701
  3683   001294  5029               	movf	(?_labs+3)^0,w,c
  3684   001296  1028               	iorwf	(?_labs+2)^0,w,c
  3685   001298  1027               	iorwf	(?_labs+1)^0,w,c
  3686   00129A  E109               	bnz	u7700
  3687   00129C  0E02               	movlw	2
  3688   00129E  5C26               	subwf	?_labs^0,w,c
  3689   0012A0  A0D8               	btfss	status,0,c
  3690   0012A2  EF55  F009         	goto	u7701
  3691   0012A6  EF57  F009         	goto	u7700
  3692   0012AA                     u7701:
  3693   0012AA  EF12  F009         	goto	l1095
  3694   0012AE                     u7700:
  3695   0012AE  C113  F099         	movff	efgtoa@ou,___flge@ff1
  3696   0012B2  C114  F09A         	movff	efgtoa@ou+1,___flge@ff1+1
  3697   0012B6  C115  F09B         	movff	efgtoa@ou+2,___flge@ff1+2
  3698   0012BA  C116  F09C         	movff	efgtoa@ou+3,___flge@ff1+3
  3699   0012BE  C122  F09D         	movff	efgtoa@g,___flge@ff2
  3700   0012C2  C123  F09E         	movff	efgtoa@g+1,___flge@ff2+1
  3701   0012C6  C124  F09F         	movff	efgtoa@g+2,___flge@ff2+2
  3702   0012CA  C125  F0A0         	movff	efgtoa@g+3,___flge@ff2+3
  3703   0012CE  EC1F  F01E         	call	___flge	;wreg free
  3704   0012D2  0100               	movlb	0	; () banked
  3705   0012D4  A0D8               	btfss	status,0,c
  3706   0012D6  EF6F  F009         	goto	u7711
  3707   0012DA  EF71  F009         	goto	u7710
  3708   0012DE                     u7711:
  3709   0012DE  EF12  F009         	goto	l1095
  3710   0012E2                     u7710:
  3711   0012E2                     
  3712                           ; BSR set to: 0
  3713                           ;C:\Program Files\Microchip\xc8\v2.41\pic\sources\c99\common\doprnt.c: 608:   if ((labs(
      +                          (g).u-(u).u) <= 1)) {
  3714   0012E2  0101               	movlb	1	; () banked
  3715   0012E4  5128               	movf	efgtoa@u& (0+255),w,b
  3716   0012E6  5D22               	subwf	efgtoa@g& (0+255),w,b
  3717   0012E8  6E26               	movwf	labs@a^0,c
  3718   0012EA  5129               	movf	(efgtoa@u+1)& (0+255),w,b
  3719   0012EC  5923               	subwfb	(efgtoa@g+1)& (0+255),w,b
  3720   0012EE  6E27               	movwf	(labs@a+1)^0,c
  3721   0012F0  512A               	movf	(efgtoa@u+2)& (0+255),w,b
  3722   0012F2  5924               	subwfb	(efgtoa@g+2)& (0+255),w,b
  3723   0012F4  6E28               	movwf	(labs@a+2)^0,c
  3724   0012F6  512B               	movf	(efgtoa@u+3)& (0+255),w,b
  3725   0012F8  5925               	subwfb	(efgtoa@g+3)& (0+255),w,b
  3726   0012FA  6E29               	movwf	(labs@a+3)^0,c
  3727   0012FC  ECA1  F024         	call	_labs	;wreg free
  3728   001300  BE29               	btfsc	(?_labs+3)^0,7,c
  3729   001302  EF90  F009         	goto	u7720
  3730   001306  5029               	movf	(?_labs+3)^0,w,c
  3731   001308  1028               	iorwf	(?_labs+2)^0,w,c
  3732   00130A  1027               	iorwf	(?_labs+1)^0,w,c
  3733   00130C  E107               	bnz	u7721
  3734   00130E  0E02               	movlw	2
  3735   001310  5C26               	subwf	?_labs^0,w,c
  3736   001312  B0D8               	btfsc	status,0,c
  3737   001314  EF8E  F009         	goto	u7721
  3738   001318  EF90  F009         	goto	u7720
  3739   00131C                     u7721:
  3740   00131C  EFD8  F009         	goto	l6386
  3741   001320                     u7720:
  3742   001320                     l6376:
  3743                           
  3744                           ;C:\Program Files\Microchip\xc8\v2.41\pic\sources\c99\common\doprnt.c: 609:    g = u;
  3745   001320  C128  F122         	movff	efgtoa@u,efgtoa@g
  3746   001324  C129  F123         	movff	efgtoa@u+1,efgtoa@g+1
  3747   001328  C12A  F124         	movff	efgtoa@u+2,efgtoa@g+2
  3748   00132C  C12B  F125         	movff	efgtoa@u+3,efgtoa@g+3
  3749                           
  3750                           ;C:\Program Files\Microchip\xc8\v2.41\pic\sources\c99\common\doprnt.c: 610:   }
  3751   001330  EFF2  F009         	goto	l1093
  3752   001334                     l6378:
  3753                           
  3754                           ; BSR set to: 0
  3755                           ;C:\Program Files\Microchip\xc8\v2.41\pic\sources\c99\common\doprnt.c: 613:     u.f = u.
      +                          f/10.0;
  3756   001334  C128  F099         	movff	efgtoa@u,___fldiv@b
  3757   001338  C129  F09A         	movff	efgtoa@u+1,___fldiv@b+1
  3758   00133C  C12A  F09B         	movff	efgtoa@u+2,___fldiv@b+2
  3759   001340  C12B  F09C         	movff	efgtoa@u+3,___fldiv@b+3
  3760   001344  0E00               	movlw	0
  3761   001346  6F9D               	movwf	___fldiv@a& (0+255),b
  3762   001348  0E00               	movlw	0
  3763   00134A  6F9E               	movwf	(___fldiv@a+1)& (0+255),b
  3764   00134C  0E20               	movlw	32
  3765   00134E  6F9F               	movwf	(___fldiv@a+2)& (0+255),b
  3766   001350  0E41               	movlw	65
  3767   001352  6FA0               	movwf	(___fldiv@a+3)& (0+255),b
  3768   001354  ECA7  F015         	call	___fldiv	;wreg free
  3769   001358  C099  F128         	movff	?___fldiv,efgtoa@u
  3770   00135C  C09A  F129         	movff	?___fldiv+1,efgtoa@u+1
  3771   001360  C09B  F12A         	movff	?___fldiv+2,efgtoa@u+2
  3772   001364  C09C  F12B         	movff	?___fldiv+3,efgtoa@u+3
  3773   001368                     
  3774                           ;C:\Program Files\Microchip\xc8\v2.41\pic\sources\c99\common\doprnt.c: 614:     --e;
  3775   001368  0101               	movlb	1	; () banked
  3776   00136A  070F               	decf	efgtoa@e& (0+255),f,b
  3777   00136C  A0D8               	btfss	status,0,c
  3778   00136E  0710               	decf	(efgtoa@e+1)& (0+255),f,b
  3779   001370                     
  3780                           ; BSR set to: 1
  3781                           ;C:\Program Files\Microchip\xc8\v2.41\pic\sources\c99\common\doprnt.c: 615:     if ((lab
      +                          s((g).u-(u).u) <= 1)) {
  3782   001370  5128               	movf	efgtoa@u& (0+255),w,b
  3783   001372  5D22               	subwf	efgtoa@g& (0+255),w,b
  3784   001374  6E26               	movwf	labs@a^0,c
  3785   001376  5129               	movf	(efgtoa@u+1)& (0+255),w,b
  3786   001378  5923               	subwfb	(efgtoa@g+1)& (0+255),w,b
  3787   00137A  6E27               	movwf	(labs@a+1)^0,c
  3788   00137C  512A               	movf	(efgtoa@u+2)& (0+255),w,b
  3789   00137E  5924               	subwfb	(efgtoa@g+2)& (0+255),w,b
  3790   001380  6E28               	movwf	(labs@a+2)^0,c
  3791   001382  512B               	movf	(efgtoa@u+3)& (0+255),w,b
  3792   001384  5925               	subwfb	(efgtoa@g+3)& (0+255),w,b
  3793   001386  6E29               	movwf	(labs@a+3)^0,c
  3794   001388  ECA1  F024         	call	_labs	;wreg free
  3795   00138C  BE29               	btfsc	(?_labs+3)^0,7,c
  3796   00138E  EFD6  F009         	goto	u7730
  3797   001392  5029               	movf	(?_labs+3)^0,w,c
  3798   001394  1028               	iorwf	(?_labs+2)^0,w,c
  3799   001396  1027               	iorwf	(?_labs+1)^0,w,c
  3800   001398  E107               	bnz	u7731
  3801   00139A  0E02               	movlw	2
  3802   00139C  5C26               	subwf	?_labs^0,w,c
  3803   00139E  B0D8               	btfsc	status,0,c
  3804   0013A0  EFD4  F009         	goto	u7731
  3805   0013A4  EFD6  F009         	goto	u7730
  3806   0013A8                     u7731:
  3807   0013A8  EFD8  F009         	goto	l6386
  3808   0013AC                     u7730:
  3809   0013AC  EF90  F009         	goto	l6376
  3810   0013B0                     l6386:
  3811                           
  3812                           ;C:\Program Files\Microchip\xc8\v2.41\pic\sources\c99\common\doprnt.c: 612:    while (g.
      +                          f < u.f) {
  3813   0013B0  C122  F099         	movff	efgtoa@g,___flge@ff1
  3814   0013B4  C123  F09A         	movff	efgtoa@g+1,___flge@ff1+1
  3815   0013B8  C124  F09B         	movff	efgtoa@g+2,___flge@ff1+2
  3816   0013BC  C125  F09C         	movff	efgtoa@g+3,___flge@ff1+3
  3817   0013C0  C128  F09D         	movff	efgtoa@u,___flge@ff2
  3818   0013C4  C129  F09E         	movff	efgtoa@u+1,___flge@ff2+1
  3819   0013C8  C12A  F09F         	movff	efgtoa@u+2,___flge@ff2+2
  3820   0013CC  C12B  F0A0         	movff	efgtoa@u+3,___flge@ff2+3
  3821   0013D0  EC1F  F01E         	call	___flge	;wreg free
  3822   0013D4  0100               	movlb	0	; () banked
  3823   0013D6  A0D8               	btfss	status,0,c
  3824   0013D8  EFF0  F009         	goto	u7741
  3825   0013DC  EFF2  F009         	goto	u7740
  3826   0013E0                     u7741:
  3827   0013E0  EF9A  F009         	goto	l6378
  3828   0013E4                     u7740:
  3829   0013E4                     l1093:
  3830                           
  3831                           ;C:\Program Files\Microchip\xc8\v2.41\pic\sources\c99\common\doprnt.c: 627:  mode = c;
  3832   0013E4  C0CC  F109         	movff	efgtoa@c,efgtoa@mode
  3833                           
  3834                           ;C:\Program Files\Microchip\xc8\v2.41\pic\sources\c99\common\doprnt.c: 629:     nmode = 
      +                          mode;
  3835   0013E8  C109  F10A         	movff	efgtoa@mode,efgtoa@nmode
  3836   0013EC                     
  3837                           ;C:\Program Files\Microchip\xc8\v2.41\pic\sources\c99\common\doprnt.c: 639:  {;C:\Progra
      +                          m Files\Microchip\xc8\v2.41\pic\sources\c99\common\doprnt.c: 640:         p = (prec < 0)
      +                           ? 6 : prec;
  3838   0013EC  BE43               	btfsc	(_prec+1)^0,7,c
  3839   0013EE  EFFB  F009         	goto	u7751
  3840   0013F2  EFFD  F009         	goto	u7750
  3841   0013F6                     u7751:
  3842   0013F6  EF03  F00A         	goto	l6392
  3843   0013FA                     u7750:
  3844   0013FA  C042  F102         	movff	_prec,efgtoa@p
  3845   0013FE  C043  F103         	movff	_prec+1,efgtoa@p+1
  3846   001402  EF08  F00A         	goto	l6394
  3847   001406                     l6392:
  3848   001406  0E00               	movlw	0
  3849   001408  0101               	movlb	1	; () banked
  3850   00140A  6F03               	movwf	(efgtoa@p+1)& (0+255),b
  3851   00140C  0E06               	movlw	6
  3852   00140E  6F02               	movwf	efgtoa@p& (0+255),b
  3853   001410                     l6394:
  3854                           
  3855                           ;C:\Program Files\Microchip\xc8\v2.41\pic\sources\c99\common\doprnt.c: 641:     };C:\Pro
      +                          gram Files\Microchip\xc8\v2.41\pic\sources\c99\common\doprnt.c: 655:     m = p;
  3856   001410  C102  F10D         	movff	efgtoa@p,efgtoa@m
  3857   001414  C103  F10E         	movff	efgtoa@p+1,efgtoa@m+1
  3858   001418                     
  3859                           ;C:\Program Files\Microchip\xc8\v2.41\pic\sources\c99\common\doprnt.c: 659:  {;C:\Progra
      +                          m Files\Microchip\xc8\v2.41\pic\sources\c99\common\doprnt.c: 660:         ++m;
  3860   001418  0101               	movlb	1	; () banked
  3861   00141A  4B0D               	infsnz	efgtoa@m& (0+255),f,b
  3862   00141C  2B0E               	incf	(efgtoa@m+1)& (0+255),f,b
  3863   00141E                     
  3864                           ; BSR set to: 1
  3865                           ;C:\Program Files\Microchip\xc8\v2.41\pic\sources\c99\common\doprnt.c: 661:     };C:\Pro
      +                          gram Files\Microchip\xc8\v2.41\pic\sources\c99\common\doprnt.c: 665:     if (nmode == 'f
      +                          ') {
  3866   00141E  0E66               	movlw	102
  3867   001420  190A               	xorwf	efgtoa@nmode& (0+255),w,b
  3868   001422  A4D8               	btfss	status,2,c
  3869   001424  EF16  F00A         	goto	u7761
  3870   001428  EF18  F00A         	goto	u7760
  3871   00142C                     u7761:
  3872   00142C  EF38  F00A         	goto	l6408
  3873   001430                     u7760:
  3874   001430                     
  3875                           ; BSR set to: 1
  3876                           ;C:\Program Files\Microchip\xc8\v2.41\pic\sources\c99\common\doprnt.c: 666:         if (
      +                          e < 0) {
  3877   001430  BF10               	btfsc	(efgtoa@e+1)& (0+255),7,b
  3878   001432  EF1F  F00A         	goto	u7770
  3879   001436  EF1D  F00A         	goto	u7771
  3880   00143A                     u7771:
  3881   00143A  EF2B  F00A         	goto	l6404
  3882   00143E                     u7770:
  3883   00143E                     
  3884                           ; BSR set to: 1
  3885                           ;C:\Program Files\Microchip\xc8\v2.41\pic\sources\c99\common\doprnt.c: 667:             
      +                          u.f = 1.0;
  3886   00143E  0E00               	movlw	0
  3887   001440  6F28               	movwf	efgtoa@u& (0+255),b
  3888   001442  0E00               	movlw	0
  3889   001444  6F29               	movwf	(efgtoa@u+1)& (0+255),b
  3890   001446  0E80               	movlw	128
  3891   001448  6F2A               	movwf	(efgtoa@u+2)& (0+255),b
  3892   00144A  0E3F               	movlw	63
  3893   00144C  6F2B               	movwf	(efgtoa@u+3)& (0+255),b
  3894                           
  3895                           ;C:\Program Files\Microchip\xc8\v2.41\pic\sources\c99\common\doprnt.c: 668:             
      +                          e = 0;
  3896   00144E  0E00               	movlw	0
  3897   001450  6F10               	movwf	(efgtoa@e+1)& (0+255),b
  3898   001452  0E00               	movlw	0
  3899   001454  6F0F               	movwf	efgtoa@e& (0+255),b
  3900   001456                     l6404:
  3901                           
  3902                           ; BSR set to: 1
  3903                           ;C:\Program Files\Microchip\xc8\v2.41\pic\sources\c99\common\doprnt.c: 670:         if (
      +                          !(mode == 'g')) {
  3904   001456  0E67               	movlw	103
  3905   001458  1909               	xorwf	efgtoa@mode& (0+255),w,b
  3906   00145A  B4D8               	btfsc	status,2,c
  3907   00145C  EF32  F00A         	goto	u7781
  3908   001460  EF34  F00A         	goto	u7780
  3909   001464                     u7781:
  3910   001464  EF38  F00A         	goto	l6408
  3911   001468                     u7780:
  3912   001468                     
  3913                           ; BSR set to: 1
  3914                           ;C:\Program Files\Microchip\xc8\v2.41\pic\sources\c99\common\doprnt.c: 671:             
      +                          m += e;
  3915   001468  510F               	movf	efgtoa@e& (0+255),w,b
  3916   00146A  270D               	addwf	efgtoa@m& (0+255),f,b
  3917   00146C  5110               	movf	(efgtoa@e+1)& (0+255),w,b
  3918   00146E  230E               	addwfc	(efgtoa@m+1)& (0+255),f,b
  3919   001470                     l6408:
  3920                           
  3921                           ; BSR set to: 1
  3922                           ;C:\Program Files\Microchip\xc8\v2.41\pic\sources\c99\common\doprnt.c: 677:     i = 0;
  3923   001470  0E00               	movlw	0
  3924   001472  6F18               	movwf	(efgtoa@i+1)& (0+255),b
  3925   001474  0E00               	movlw	0
  3926   001476  6F17               	movwf	efgtoa@i& (0+255),b
  3927   001478                     
  3928                           ; BSR set to: 1
  3929                           ;C:\Program Files\Microchip\xc8\v2.41\pic\sources\c99\common\doprnt.c: 678:     h = g.f;
  3930   001478  C122  F119         	movff	efgtoa@g,efgtoa@h
  3931   00147C  C123  F11A         	movff	efgtoa@g+1,efgtoa@h+1
  3932   001480  C124  F11B         	movff	efgtoa@g+2,efgtoa@h+2
  3933   001484  C125  F11C         	movff	efgtoa@g+3,efgtoa@h+3
  3934   001488                     
  3935                           ; BSR set to: 1
  3936                           ;C:\Program Files\Microchip\xc8\v2.41\pic\sources\c99\common\doprnt.c: 679:     ou = u;
  3937   001488  C128  F113         	movff	efgtoa@u,efgtoa@ou
  3938   00148C  C129  F114         	movff	efgtoa@u+1,efgtoa@ou+1
  3939   001490  C12A  F115         	movff	efgtoa@u+2,efgtoa@ou+2
  3940   001494  C12B  F116         	movff	efgtoa@u+3,efgtoa@ou+3
  3941                           
  3942                           ;C:\Program Files\Microchip\xc8\v2.41\pic\sources\c99\common\doprnt.c: 680:     while (i
      +                           < m) {
  3943   001498  EFCA  F00A         	goto	l6422
  3944   00149C                     l6414:
  3945                           
  3946                           ; BSR set to: 0
  3947                           ;C:\Program Files\Microchip\xc8\v2.41\pic\sources\c99\common\doprnt.c: 681:         l = 
      +                          floorf(h/u.f);
  3948   00149C  C119  F099         	movff	efgtoa@h,___fldiv@b
  3949   0014A0  C11A  F09A         	movff	efgtoa@h+1,___fldiv@b+1
  3950   0014A4  C11B  F09B         	movff	efgtoa@h+2,___fldiv@b+2
  3951   0014A8  C11C  F09C         	movff	efgtoa@h+3,___fldiv@b+3
  3952   0014AC  C128  F09D         	movff	efgtoa@u,___fldiv@a
  3953   0014B0  C129  F09E         	movff	efgtoa@u+1,___fldiv@a+1
  3954   0014B4  C12A  F09F         	movff	efgtoa@u+2,___fldiv@a+2
  3955   0014B8  C12B  F0A0         	movff	efgtoa@u+3,___fldiv@a+3
  3956   0014BC  ECA7  F015         	call	___fldiv	;wreg free
  3957   0014C0  C099  F0B2         	movff	?___fldiv,floorf@x
  3958   0014C4  C09A  F0B3         	movff	?___fldiv+1,floorf@x+1
  3959   0014C8  C09B  F0B4         	movff	?___fldiv+2,floorf@x+2
  3960   0014CC  C09C  F0B5         	movff	?___fldiv+3,floorf@x+3
  3961   0014D0  EC42  F019         	call	_floorf	;wreg free
  3962   0014D4  C0B2  F11D         	movff	?_floorf,efgtoa@l
  3963   0014D8  C0B3  F11E         	movff	?_floorf+1,efgtoa@l+1
  3964   0014DC  C0B4  F11F         	movff	?_floorf+2,efgtoa@l+2
  3965   0014E0  C0B5  F120         	movff	?_floorf+3,efgtoa@l+3
  3966                           
  3967                           ;C:\Program Files\Microchip\xc8\v2.41\pic\sources\c99\common\doprnt.c: 682:         d = 
      +                          (int)l;
  3968   0014E4  C11D  F026         	movff	efgtoa@l,___fltol@f1
  3969   0014E8  C11E  F027         	movff	efgtoa@l+1,___fltol@f1+1
  3970   0014EC  C11F  F028         	movff	efgtoa@l+2,___fltol@f1+2
  3971   0014F0  C120  F029         	movff	efgtoa@l+3,___fltol@f1+3
  3972   0014F4  EC9C  F01D         	call	___fltol	;wreg free
  3973   0014F8  C026  F10B         	movff	?___fltol,efgtoa@d
  3974   0014FC  C027  F10C         	movff	?___fltol+1,efgtoa@d+1
  3975   001500                     
  3976                           ;C:\Program Files\Microchip\xc8\v2.41\pic\sources\c99\common\doprnt.c: 683:         h -=
      +                           l*u.f;
  3977   001500  C119  F099         	movff	efgtoa@h,___flsub@b
  3978   001504  C11A  F09A         	movff	efgtoa@h+1,___flsub@b+1
  3979   001508  C11B  F09B         	movff	efgtoa@h+2,___flsub@b+2
  3980   00150C  C11C  F09C         	movff	efgtoa@h+3,___flsub@b+3
  3981   001510  C11D  F084         	movff	efgtoa@l,___flmul@a
  3982   001514  C11E  F085         	movff	efgtoa@l+1,___flmul@a+1
  3983   001518  C11F  F086         	movff	efgtoa@l+2,___flmul@a+2
  3984   00151C  C120  F087         	movff	efgtoa@l+3,___flmul@a+3
  3985   001520  C128  F080         	movff	efgtoa@u,___flmul@b
  3986   001524  C129  F081         	movff	efgtoa@u+1,___flmul@b+1
  3987   001528  C12A  F082         	movff	efgtoa@u+2,___flmul@b+2
  3988   00152C  C12B  F083         	movff	efgtoa@u+3,___flmul@b+3
  3989   001530  ECA1  F00F         	call	___flmul	;wreg free
  3990   001534  C080  F09D         	movff	?___flmul,___flsub@a
  3991   001538  C081  F09E         	movff	?___flmul+1,___flsub@a+1
  3992   00153C  C082  F09F         	movff	?___flmul+2,___flsub@a+2
  3993   001540  C083  F0A0         	movff	?___flmul+3,___flsub@a+3
  3994   001544  ECA3  F025         	call	___flsub	;wreg free
  3995   001548  C099  F119         	movff	?___flsub,efgtoa@h
  3996   00154C  C09A  F11A         	movff	?___flsub+1,efgtoa@h+1
  3997   001550  C09B  F11B         	movff	?___flsub+2,efgtoa@h+2
  3998   001554  C09C  F11C         	movff	?___flsub+3,efgtoa@h+3
  3999   001558                     
  4000                           ;C:\Program Files\Microchip\xc8\v2.41\pic\sources\c99\common\doprnt.c: 684:         u.f 
      +                          = u.f/10.0;
  4001   001558  C128  F099         	movff	efgtoa@u,___fldiv@b
  4002   00155C  C129  F09A         	movff	efgtoa@u+1,___fldiv@b+1
  4003   001560  C12A  F09B         	movff	efgtoa@u+2,___fldiv@b+2
  4004   001564  C12B  F09C         	movff	efgtoa@u+3,___fldiv@b+3
  4005   001568  0E00               	movlw	0
  4006   00156A  0100               	movlb	0	; () banked
  4007   00156C  6F9D               	movwf	___fldiv@a& (0+255),b
  4008   00156E  0E00               	movlw	0
  4009   001570  6F9E               	movwf	(___fldiv@a+1)& (0+255),b
  4010   001572  0E20               	movlw	32
  4011   001574  6F9F               	movwf	(___fldiv@a+2)& (0+255),b
  4012   001576  0E41               	movlw	65
  4013   001578  6FA0               	movwf	(___fldiv@a+3)& (0+255),b
  4014   00157A  ECA7  F015         	call	___fldiv	;wreg free
  4015   00157E  C099  F128         	movff	?___fldiv,efgtoa@u
  4016   001582  C09A  F129         	movff	?___fldiv+1,efgtoa@u+1
  4017   001586  C09B  F12A         	movff	?___fldiv+2,efgtoa@u+2
  4018   00158A  C09C  F12B         	movff	?___fldiv+3,efgtoa@u+3
  4019   00158E                     
  4020                           ;C:\Program Files\Microchip\xc8\v2.41\pic\sources\c99\common\doprnt.c: 685:         ++i;
  4021   00158E  0101               	movlb	1	; () banked
  4022   001590  4B17               	infsnz	efgtoa@i& (0+255),f,b
  4023   001592  2B18               	incf	(efgtoa@i+1)& (0+255),f,b
  4024   001594                     l6422:
  4025                           
  4026                           ; BSR set to: 1
  4027                           ;C:\Program Files\Microchip\xc8\v2.41\pic\sources\c99\common\doprnt.c: 680:     while (i
      +                           < m) {
  4028   001594  510D               	movf	efgtoa@m& (0+255),w,b
  4029   001596  5D17               	subwf	efgtoa@i& (0+255),w,b
  4030   001598  5118               	movf	(efgtoa@i+1)& (0+255),w,b
  4031   00159A  0A80               	xorlw	128
  4032   00159C  0100               	movlb	0	; () banked
  4033   00159E  6FCD               	movwf	??_efgtoa& (0+255),b
  4034   0015A0  0101               	movlb	1	; () banked
  4035   0015A2  510E               	movf	(efgtoa@m+1)& (0+255),w,b
  4036   0015A4  0A80               	xorlw	128
  4037   0015A6  0100               	movlb	0	; () banked
  4038   0015A8  59CD               	subwfb	??_efgtoa& (0+255),w,b
  4039   0015AA  A0D8               	btfss	status,0,c
  4040   0015AC  EFDA  F00A         	goto	u7791
  4041   0015B0  EFDC  F00A         	goto	u7790
  4042   0015B4                     u7791:
  4043   0015B4  EF4E  F00A         	goto	l6414
  4044   0015B8                     u7790:
  4045   0015B8                     
  4046                           ; BSR set to: 0
  4047                           ;C:\Program Files\Microchip\xc8\v2.41\pic\sources\c99\common\doprnt.c: 689:     l = u.f*
      +                          5.0;
  4048   0015B8  C128  F080         	movff	efgtoa@u,___flmul@b
  4049   0015BC  C129  F081         	movff	efgtoa@u+1,___flmul@b+1
  4050   0015C0  C12A  F082         	movff	efgtoa@u+2,___flmul@b+2
  4051   0015C4  C12B  F083         	movff	efgtoa@u+3,___flmul@b+3
  4052   0015C8  0E00               	movlw	0
  4053   0015CA  6F84               	movwf	___flmul@a& (0+255),b
  4054   0015CC  0E00               	movlw	0
  4055   0015CE  6F85               	movwf	(___flmul@a+1)& (0+255),b
  4056   0015D0  0EA0               	movlw	160
  4057   0015D2  6F86               	movwf	(___flmul@a+2)& (0+255),b
  4058   0015D4  0E40               	movlw	64
  4059   0015D6  6F87               	movwf	(___flmul@a+3)& (0+255),b
  4060   0015D8  ECA1  F00F         	call	___flmul	;wreg free
  4061   0015DC  C080  F11D         	movff	?___flmul,efgtoa@l
  4062   0015E0  C081  F11E         	movff	?___flmul+1,efgtoa@l+1
  4063   0015E4  C082  F11F         	movff	?___flmul+2,efgtoa@l+2
  4064   0015E8  C083  F120         	movff	?___flmul+3,efgtoa@l+3
  4065   0015EC                     
  4066                           ;C:\Program Files\Microchip\xc8\v2.41\pic\sources\c99\common\doprnt.c: 690:     if (h < 
      +                          l) {
  4067   0015EC  C119  F099         	movff	efgtoa@h,___flge@ff1
  4068   0015F0  C11A  F09A         	movff	efgtoa@h+1,___flge@ff1+1
  4069   0015F4  C11B  F09B         	movff	efgtoa@h+2,___flge@ff1+2
  4070   0015F8  C11C  F09C         	movff	efgtoa@h+3,___flge@ff1+3
  4071   0015FC  C11D  F09D         	movff	efgtoa@l,___flge@ff2
  4072   001600  C11E  F09E         	movff	efgtoa@l+1,___flge@ff2+1
  4073   001604  C11F  F09F         	movff	efgtoa@l+2,___flge@ff2+2
  4074   001608  C120  F0A0         	movff	efgtoa@l+3,___flge@ff2+3
  4075   00160C  EC1F  F01E         	call	___flge	;wreg free
  4076   001610  0100               	movlb	0	; () banked
  4077   001612  B0D8               	btfsc	status,0,c
  4078   001614  EF0E  F00B         	goto	u7801
  4079   001618  EF10  F00B         	goto	u7800
  4080   00161C                     u7801:
  4081   00161C  EF1B  F00B         	goto	l6430
  4082   001620                     u7800:
  4083   001620                     
  4084                           ; BSR set to: 0
  4085                           ;C:\Program Files\Microchip\xc8\v2.41\pic\sources\c99\common\doprnt.c: 691:         l = 
      +                          0.0;
  4086   001620  0E00               	movlw	0
  4087   001622  0101               	movlb	1	; () banked
  4088   001624  6F1D               	movwf	efgtoa@l& (0+255),b
  4089   001626  0E00               	movlw	0
  4090   001628  6F1E               	movwf	(efgtoa@l+1)& (0+255),b
  4091   00162A  0E00               	movlw	0
  4092   00162C  6F1F               	movwf	(efgtoa@l+2)& (0+255),b
  4093   00162E  0E00               	movlw	0
  4094   001630  6F20               	movwf	(efgtoa@l+3)& (0+255),b
  4095                           
  4096                           ;C:\Program Files\Microchip\xc8\v2.41\pic\sources\c99\common\doprnt.c: 692:     } else {
  4097   001632  EF44  F00B         	goto	l6436
  4098   001636                     l6430:
  4099                           
  4100                           ; BSR set to: 0
  4101                           ;C:\Program Files\Microchip\xc8\v2.41\pic\sources\c99\common\doprnt.c: 694:         if (
      +                          (h == l) && !(d % 2)) {
  4102   001636  C119  F026         	movff	efgtoa@h,___fleq@ff1
  4103   00163A  C11A  F027         	movff	efgtoa@h+1,___fleq@ff1+1
  4104   00163E  C11B  F028         	movff	efgtoa@h+2,___fleq@ff1+2
  4105   001642  C11C  F029         	movff	efgtoa@h+3,___fleq@ff1+3
  4106   001646  C11D  F02A         	movff	efgtoa@l,___fleq@ff2
  4107   00164A  C11E  F02B         	movff	efgtoa@l+1,___fleq@ff2+1
  4108   00164E  C11F  F02C         	movff	efgtoa@l+2,___fleq@ff2+2
  4109   001652  C120  F02D         	movff	efgtoa@l+3,___fleq@ff2+3
  4110   001656  ECBC  F022         	call	___fleq	;wreg free
  4111   00165A  A0D8               	btfss	status,0,c
  4112   00165C  EF32  F00B         	goto	u7811
  4113   001660  EF34  F00B         	goto	u7810
  4114   001664                     u7811:
  4115   001664  EF44  F00B         	goto	l6436
  4116   001668                     u7810:
  4117   001668  0101               	movlb	1	; () banked
  4118   00166A  B10B               	btfsc	efgtoa@d& (0+255),0,b
  4119   00166C  EF3A  F00B         	goto	u7821
  4120   001670  EF3C  F00B         	goto	u7820
  4121   001674                     u7821:
  4122   001674  EF44  F00B         	goto	l6436
  4123   001678                     u7820:
  4124   001678                     
  4125                           ; BSR set to: 1
  4126                           ;C:\Program Files\Microchip\xc8\v2.41\pic\sources\c99\common\doprnt.c: 695:             
      +                          l = 0.0;
  4127   001678  0E00               	movlw	0
  4128   00167A  6F1D               	movwf	efgtoa@l& (0+255),b
  4129   00167C  0E00               	movlw	0
  4130   00167E  6F1E               	movwf	(efgtoa@l+1)& (0+255),b
  4131   001680  0E00               	movlw	0
  4132   001682  6F1F               	movwf	(efgtoa@l+2)& (0+255),b
  4133   001684  0E00               	movlw	0
  4134   001686  6F20               	movwf	(efgtoa@l+3)& (0+255),b
  4135   001688                     l6436:
  4136                           
  4137                           ;C:\Program Files\Microchip\xc8\v2.41\pic\sources\c99\common\doprnt.c: 700:     h = g.f 
      +                          + l;
  4138   001688  C122  F026         	movff	efgtoa@g,___fladd@b
  4139   00168C  C123  F027         	movff	efgtoa@g+1,___fladd@b+1
  4140   001690  C124  F028         	movff	efgtoa@g+2,___fladd@b+2
  4141   001694  C125  F029         	movff	efgtoa@g+3,___fladd@b+3
  4142   001698  C11D  F02A         	movff	efgtoa@l,___fladd@a
  4143   00169C  C11E  F02B         	movff	efgtoa@l+1,___fladd@a+1
  4144   0016A0  C11F  F02C         	movff	efgtoa@l+2,___fladd@a+2
  4145   0016A4  C120  F02D         	movff	efgtoa@l+3,___fladd@a+3
  4146   0016A8  EC40  F00D         	call	___fladd	;wreg free
  4147   0016AC  C026  F119         	movff	?___fladd,efgtoa@h
  4148   0016B0  C027  F11A         	movff	?___fladd+1,efgtoa@h+1
  4149   0016B4  C028  F11B         	movff	?___fladd+2,efgtoa@h+2
  4150   0016B8  C029  F11C         	movff	?___fladd+3,efgtoa@h+3
  4151   0016BC                     
  4152                           ;C:\Program Files\Microchip\xc8\v2.41\pic\sources\c99\common\doprnt.c: 702:  if (h >= (o
      +                          u.f*10.0)) {
  4153   0016BC  C119  F099         	movff	efgtoa@h,___flge@ff1
  4154   0016C0  C11A  F09A         	movff	efgtoa@h+1,___flge@ff1+1
  4155   0016C4  C11B  F09B         	movff	efgtoa@h+2,___flge@ff1+2
  4156   0016C8  C11C  F09C         	movff	efgtoa@h+3,___flge@ff1+3
  4157   0016CC  0E00               	movlw	0
  4158   0016CE  0100               	movlb	0	; () banked
  4159   0016D0  6F84               	movwf	___flmul@a& (0+255),b
  4160   0016D2  0E00               	movlw	0
  4161   0016D4  6F85               	movwf	(___flmul@a+1)& (0+255),b
  4162   0016D6  0E20               	movlw	32
  4163   0016D8  6F86               	movwf	(___flmul@a+2)& (0+255),b
  4164   0016DA  0E41               	movlw	65
  4165   0016DC  6F87               	movwf	(___flmul@a+3)& (0+255),b
  4166   0016DE  C113  F080         	movff	efgtoa@ou,___flmul@b
  4167   0016E2  C114  F081         	movff	efgtoa@ou+1,___flmul@b+1
  4168   0016E6  C115  F082         	movff	efgtoa@ou+2,___flmul@b+2
  4169   0016EA  C116  F083         	movff	efgtoa@ou+3,___flmul@b+3
  4170   0016EE  ECA1  F00F         	call	___flmul	;wreg free
  4171   0016F2  C080  F09D         	movff	?___flmul,___flge@ff2
  4172   0016F6  C081  F09E         	movff	?___flmul+1,___flge@ff2+1
  4173   0016FA  C082  F09F         	movff	?___flmul+2,___flge@ff2+2
  4174   0016FE  C083  F0A0         	movff	?___flmul+3,___flge@ff2+3
  4175   001702  EC1F  F01E         	call	___flge	;wreg free
  4176   001706  0100               	movlb	0	; () banked
  4177   001708  A0D8               	btfss	status,0,c
  4178   00170A  EF89  F00B         	goto	u7831
  4179   00170E  EF8B  F00B         	goto	u7830
  4180   001712                     u7831:
  4181   001712  EFB5  F00B         	goto	l6448
  4182   001716                     u7830:
  4183   001716                     
  4184                           ; BSR set to: 0
  4185                           ;C:\Program Files\Microchip\xc8\v2.41\pic\sources\c99\common\doprnt.c: 703:   e++;
  4186   001716  0101               	movlb	1	; () banked
  4187   001718  4B0F               	infsnz	efgtoa@e& (0+255),f,b
  4188   00171A  2B10               	incf	(efgtoa@e+1)& (0+255),f,b
  4189   00171C                     
  4190                           ; BSR set to: 1
  4191                           ;C:\Program Files\Microchip\xc8\v2.41\pic\sources\c99\common\doprnt.c: 704:   ou.f *= 10
      +                          .0;
  4192   00171C  C113  F080         	movff	efgtoa@ou,___flmul@b
  4193   001720  C114  F081         	movff	efgtoa@ou+1,___flmul@b+1
  4194   001724  C115  F082         	movff	efgtoa@ou+2,___flmul@b+2
  4195   001728  C116  F083         	movff	efgtoa@ou+3,___flmul@b+3
  4196   00172C  0E00               	movlw	0
  4197   00172E  0100               	movlb	0	; () banked
  4198   001730  6F84               	movwf	___flmul@a& (0+255),b
  4199   001732  0E00               	movlw	0
  4200   001734  6F85               	movwf	(___flmul@a+1)& (0+255),b
  4201   001736  0E20               	movlw	32
  4202   001738  6F86               	movwf	(___flmul@a+2)& (0+255),b
  4203   00173A  0E41               	movlw	65
  4204   00173C  6F87               	movwf	(___flmul@a+3)& (0+255),b
  4205   00173E  ECA1  F00F         	call	___flmul	;wreg free
  4206   001742  C080  F113         	movff	?___flmul,efgtoa@ou
  4207   001746  C081  F114         	movff	?___flmul+1,efgtoa@ou+1
  4208   00174A  C082  F115         	movff	?___flmul+2,efgtoa@ou+2
  4209   00174E  C083  F116         	movff	?___flmul+3,efgtoa@ou+3
  4210   001752                     
  4211                           ;C:\Program Files\Microchip\xc8\v2.41\pic\sources\c99\common\doprnt.c: 706:   if (nmode 
      +                          == 'f') {
  4212   001752  0E66               	movlw	102
  4213   001754  0101               	movlb	1	; () banked
  4214   001756  190A               	xorwf	efgtoa@nmode& (0+255),w,b
  4215   001758  A4D8               	btfss	status,2,c
  4216   00175A  EFB1  F00B         	goto	u7841
  4217   00175E  EFB3  F00B         	goto	u7840
  4218   001762                     u7841:
  4219   001762  EFB5  F00B         	goto	l6448
  4220   001766                     u7840:
  4221   001766                     
  4222                           ; BSR set to: 1
  4223                           ;C:\Program Files\Microchip\xc8\v2.41\pic\sources\c99\common\doprnt.c: 708:    m++;
  4224   001766  4B0D               	infsnz	efgtoa@m& (0+255),f,b
  4225   001768  2B0E               	incf	(efgtoa@m+1)& (0+255),f,b
  4226   00176A                     l6448:
  4227                           
  4228                           ;C:\Program Files\Microchip\xc8\v2.41\pic\sources\c99\common\doprnt.c: 714:     u = ou;
  4229   00176A  C113  F128         	movff	efgtoa@ou,efgtoa@u
  4230   00176E  C114  F129         	movff	efgtoa@ou+1,efgtoa@u+1
  4231   001772  C115  F12A         	movff	efgtoa@ou+2,efgtoa@u+2
  4232   001776  C116  F12B         	movff	efgtoa@ou+3,efgtoa@u+3
  4233   00177A                     
  4234                           ;C:\Program Files\Microchip\xc8\v2.41\pic\sources\c99\common\doprnt.c: 718:  ne = e;
  4235   00177A  C10F  F100         	movff	efgtoa@e,efgtoa@ne
  4236   00177E  C110  F101         	movff	efgtoa@e+1,efgtoa@ne+1
  4237   001782                     
  4238                           ;C:\Program Files\Microchip\xc8\v2.41\pic\sources\c99\common\doprnt.c: 720:     pp = 0;
  4239   001782  0E00               	movlw	0
  4240   001784  0101               	movlb	1	; () banked
  4241   001786  6F08               	movwf	efgtoa@pp& (0+255),b
  4242   001788                     
  4243                           ; BSR set to: 1
  4244                           ;C:\Program Files\Microchip\xc8\v2.41\pic\sources\c99\common\doprnt.c: 721:     t = 0;
  4245   001788  0E00               	movlw	0
  4246   00178A  6F05               	movwf	(efgtoa@t+1)& (0+255),b
  4247   00178C  0E00               	movlw	0
  4248   00178E  6F04               	movwf	efgtoa@t& (0+255),b
  4249   001790                     
  4250                           ; BSR set to: 1
  4251                           ;C:\Program Files\Microchip\xc8\v2.41\pic\sources\c99\common\doprnt.c: 722:     i = 0;
  4252   001790  0E00               	movlw	0
  4253   001792  6F18               	movwf	(efgtoa@i+1)& (0+255),b
  4254   001794  0E00               	movlw	0
  4255   001796  6F17               	movwf	efgtoa@i& (0+255),b
  4256                           
  4257                           ;C:\Program Files\Microchip\xc8\v2.41\pic\sources\c99\common\doprnt.c: 723:     while ((
      +                          i < m) && (n < (80 - 5))) {
  4258   001798  EFB4  F00C         	goto	l6498
  4259   00179C                     l6458:
  4260                           
  4261                           ; BSR set to: 1
  4262                           ;C:\Program Files\Microchip\xc8\v2.41\pic\sources\c99\common\doprnt.c: 724:         l = 
      +                          floorf(h/u.f);
  4263   00179C  C119  F099         	movff	efgtoa@h,___fldiv@b
  4264   0017A0  C11A  F09A         	movff	efgtoa@h+1,___fldiv@b+1
  4265   0017A4  C11B  F09B         	movff	efgtoa@h+2,___fldiv@b+2
  4266   0017A8  C11C  F09C         	movff	efgtoa@h+3,___fldiv@b+3
  4267   0017AC  C128  F09D         	movff	efgtoa@u,___fldiv@a
  4268   0017B0  C129  F09E         	movff	efgtoa@u+1,___fldiv@a+1
  4269   0017B4  C12A  F09F         	movff	efgtoa@u+2,___fldiv@a+2
  4270   0017B8  C12B  F0A0         	movff	efgtoa@u+3,___fldiv@a+3
  4271   0017BC  ECA7  F015         	call	___fldiv	;wreg free
  4272   0017C0  C099  F0B2         	movff	?___fldiv,floorf@x
  4273   0017C4  C09A  F0B3         	movff	?___fldiv+1,floorf@x+1
  4274   0017C8  C09B  F0B4         	movff	?___fldiv+2,floorf@x+2
  4275   0017CC  C09C  F0B5         	movff	?___fldiv+3,floorf@x+3
  4276   0017D0  EC42  F019         	call	_floorf	;wreg free
  4277   0017D4  C0B2  F11D         	movff	?_floorf,efgtoa@l
  4278   0017D8  C0B3  F11E         	movff	?_floorf+1,efgtoa@l+1
  4279   0017DC  C0B4  F11F         	movff	?_floorf+2,efgtoa@l+2
  4280   0017E0  C0B5  F120         	movff	?_floorf+3,efgtoa@l+3
  4281                           
  4282                           ;C:\Program Files\Microchip\xc8\v2.41\pic\sources\c99\common\doprnt.c: 725:         d = 
      +                          (int)l > 9 ? 9 : (int)l;
  4283   0017E4  C11D  F026         	movff	efgtoa@l,___fltol@f1
  4284   0017E8  C11E  F027         	movff	efgtoa@l+1,___fltol@f1+1
  4285   0017EC  C11F  F028         	movff	efgtoa@l+2,___fltol@f1+2
  4286   0017F0  C120  F029         	movff	efgtoa@l+3,___fltol@f1+3
  4287   0017F4  EC9C  F01D         	call	___fltol	;wreg free
  4288   0017F8  BE27               	btfsc	(?___fltol+1)^0,7,c
  4289   0017FA  EF0A  F00C         	goto	u7850
  4290   0017FE  5027               	movf	(?___fltol+1)^0,w,c
  4291   001800  E107               	bnz	u7851
  4292   001802  0E0A               	movlw	10
  4293   001804  5C26               	subwf	?___fltol^0,w,c
  4294   001806  B0D8               	btfsc	status,0,c
  4295   001808  EF08  F00C         	goto	u7851
  4296   00180C  EF0A  F00C         	goto	u7850
  4297   001810                     u7851:
  4298   001810  EF1A  F00C         	goto	l6462
  4299   001814                     u7850:
  4300   001814  C11D  F026         	movff	efgtoa@l,___fltol@f1
  4301   001818  C11E  F027         	movff	efgtoa@l+1,___fltol@f1+1
  4302   00181C  C11F  F028         	movff	efgtoa@l+2,___fltol@f1+2
  4303   001820  C120  F029         	movff	efgtoa@l+3,___fltol@f1+3
  4304   001824  EC9C  F01D         	call	___fltol	;wreg free
  4305   001828  C026  F10B         	movff	?___fltol,efgtoa@d
  4306   00182C  C027  F10C         	movff	?___fltol+1,efgtoa@d+1
  4307   001830  EF1F  F00C         	goto	l1123
  4308   001834                     l6462:
  4309   001834  0E00               	movlw	0
  4310   001836  0101               	movlb	1	; () banked
  4311   001838  6F0C               	movwf	(efgtoa@d+1)& (0+255),b
  4312   00183A  0E09               	movlw	9
  4313   00183C  6F0B               	movwf	efgtoa@d& (0+255),b
  4314   00183E                     l1123:
  4315                           
  4316                           ;C:\Program Files\Microchip\xc8\v2.41\pic\sources\c99\common\doprnt.c: 736:   {;C:\Progr
      +                          am Files\Microchip\xc8\v2.41\pic\sources\c99\common\doprnt.c: 737:             if (!pp &
      +                          & (ne < 0)) {
  4317   00183E  0101               	movlb	1	; () banked
  4318   001840  5108               	movf	efgtoa@pp& (0+255),w,b
  4319   001842  A4D8               	btfss	status,2,c
  4320   001844  EF26  F00C         	goto	u7861
  4321   001848  EF28  F00C         	goto	u7860
  4322   00184C                     u7861:
  4323   00184C  EF50  F00C         	goto	l6482
  4324   001850                     u7860:
  4325   001850                     
  4326                           ; BSR set to: 1
  4327   001850  BF01               	btfsc	(efgtoa@ne+1)& (0+255),7,b
  4328   001852  EF2F  F00C         	goto	u7870
  4329   001856  EF2D  F00C         	goto	u7871
  4330   00185A                     u7871:
  4331   00185A  EF50  F00C         	goto	l6482
  4332   00185E                     u7870:
  4333   00185E                     
  4334                           ; BSR set to: 1
  4335                           ;C:\Program Files\Microchip\xc8\v2.41\pic\sources\c99\common\doprnt.c: 738:             
      +                              dbuf[n++] = '.';
  4336   00185E  0E77               	movlw	low _dbuf
  4337   001860  2526               	addwf	efgtoa@n& (0+255),w,b
  4338   001862  6ED9               	movwf	fsr2l,c
  4339   001864  0E01               	movlw	high _dbuf
  4340   001866  2127               	addwfc	(efgtoa@n+1)& (0+255),w,b
  4341   001868  6EDA               	movwf	fsr2h,c
  4342   00186A  0E2E               	movlw	46
  4343   00186C  6EDF               	movwf	indf2,c
  4344   00186E                     
  4345                           ; BSR set to: 1
  4346   00186E  4B26               	infsnz	efgtoa@n& (0+255),f,b
  4347   001870  2B27               	incf	(efgtoa@n+1)& (0+255),f,b
  4348   001872                     
  4349                           ; BSR set to: 1
  4350                           ;C:\Program Files\Microchip\xc8\v2.41\pic\sources\c99\common\doprnt.c: 739:             
      +                              --w;
  4351   001872  0711               	decf	efgtoa@w& (0+255),f,b
  4352   001874  A0D8               	btfss	status,0,c
  4353   001876  0712               	decf	(efgtoa@w+1)& (0+255),f,b
  4354   001878                     
  4355                           ; BSR set to: 1
  4356                           ;C:\Program Files\Microchip\xc8\v2.41\pic\sources\c99\common\doprnt.c: 740:             
      +                              pp = 1;
  4357   001878  0E01               	movlw	1
  4358   00187A  6F08               	movwf	efgtoa@pp& (0+255),b
  4359   00187C  EF50  F00C         	goto	l6482
  4360   001880                     l6474:
  4361                           
  4362                           ; BSR set to: 1
  4363                           ;C:\Program Files\Microchip\xc8\v2.41\pic\sources\c99\common\doprnt.c: 743:             
      +                              dbuf[n++] = '0';
  4364   001880  0E77               	movlw	low _dbuf
  4365   001882  2526               	addwf	efgtoa@n& (0+255),w,b
  4366   001884  6ED9               	movwf	fsr2l,c
  4367   001886  0E01               	movlw	high _dbuf
  4368   001888  2127               	addwfc	(efgtoa@n+1)& (0+255),w,b
  4369   00188A  6EDA               	movwf	fsr2h,c
  4370   00188C  0E30               	movlw	48
  4371   00188E  6EDF               	movwf	indf2,c
  4372   001890                     
  4373                           ; BSR set to: 1
  4374   001890  4B26               	infsnz	efgtoa@n& (0+255),f,b
  4375   001892  2B27               	incf	(efgtoa@n+1)& (0+255),f,b
  4376   001894                     
  4377                           ; BSR set to: 1
  4378                           ;C:\Program Files\Microchip\xc8\v2.41\pic\sources\c99\common\doprnt.c: 744:             
      +                              --w;
  4379   001894  0711               	decf	efgtoa@w& (0+255),f,b
  4380   001896  A0D8               	btfss	status,0,c
  4381   001898  0712               	decf	(efgtoa@w+1)& (0+255),f,b
  4382   00189A                     
  4383                           ; BSR set to: 1
  4384                           ;C:\Program Files\Microchip\xc8\v2.41\pic\sources\c99\common\doprnt.c: 745:             
      +                              --t;
  4385   00189A  0704               	decf	efgtoa@t& (0+255),f,b
  4386   00189C  A0D8               	btfss	status,0,c
  4387   00189E  0705               	decf	(efgtoa@t+1)& (0+255),f,b
  4388   0018A0                     l6482:
  4389                           
  4390                           ; BSR set to: 1
  4391                           ;C:\Program Files\Microchip\xc8\v2.41\pic\sources\c99\common\doprnt.c: 742:             
      +                          while (t) {
  4392   0018A0  5104               	movf	efgtoa@t& (0+255),w,b
  4393   0018A2  1105               	iorwf	(efgtoa@t+1)& (0+255),w,b
  4394   0018A4  A4D8               	btfss	status,2,c
  4395   0018A6  EF57  F00C         	goto	u7881
  4396   0018AA  EF59  F00C         	goto	u7880
  4397   0018AE                     u7881:
  4398   0018AE  EF40  F00C         	goto	l6474
  4399   0018B2                     u7880:
  4400   0018B2                     
  4401                           ; BSR set to: 1
  4402                           ;C:\Program Files\Microchip\xc8\v2.41\pic\sources\c99\common\doprnt.c: 747:             
      +                          dbuf[n++] = (char)((int)'0' + d);
  4403   0018B2  0E77               	movlw	low _dbuf
  4404   0018B4  2526               	addwf	efgtoa@n& (0+255),w,b
  4405   0018B6  6ED9               	movwf	fsr2l,c
  4406   0018B8  0E01               	movlw	high _dbuf
  4407   0018BA  2127               	addwfc	(efgtoa@n+1)& (0+255),w,b
  4408   0018BC  6EDA               	movwf	fsr2h,c
  4409   0018BE  510B               	movf	efgtoa@d& (0+255),w,b
  4410   0018C0  0F30               	addlw	48
  4411   0018C2  6EDF               	movwf	indf2,c
  4412   0018C4                     
  4413                           ; BSR set to: 1
  4414   0018C4  4B26               	infsnz	efgtoa@n& (0+255),f,b
  4415   0018C6  2B27               	incf	(efgtoa@n+1)& (0+255),f,b
  4416   0018C8                     
  4417                           ; BSR set to: 1
  4418                           ;C:\Program Files\Microchip\xc8\v2.41\pic\sources\c99\common\doprnt.c: 748:             
      +                          --w;
  4419   0018C8  0711               	decf	efgtoa@w& (0+255),f,b
  4420   0018CA  A0D8               	btfss	status,0,c
  4421   0018CC  0712               	decf	(efgtoa@w+1)& (0+255),f,b
  4422   0018CE                     
  4423                           ; BSR set to: 1
  4424                           ;C:\Program Files\Microchip\xc8\v2.41\pic\sources\c99\common\doprnt.c: 749:         };C:
      +                          \Program Files\Microchip\xc8\v2.41\pic\sources\c99\common\doprnt.c: 750:         h -= l*
      +                          u.f;
  4425   0018CE  C119  F099         	movff	efgtoa@h,___flsub@b
  4426   0018D2  C11A  F09A         	movff	efgtoa@h+1,___flsub@b+1
  4427   0018D6  C11B  F09B         	movff	efgtoa@h+2,___flsub@b+2
  4428   0018DA  C11C  F09C         	movff	efgtoa@h+3,___flsub@b+3
  4429   0018DE  C11D  F084         	movff	efgtoa@l,___flmul@a
  4430   0018E2  C11E  F085         	movff	efgtoa@l+1,___flmul@a+1
  4431   0018E6  C11F  F086         	movff	efgtoa@l+2,___flmul@a+2
  4432   0018EA  C120  F087         	movff	efgtoa@l+3,___flmul@a+3
  4433   0018EE  C128  F080         	movff	efgtoa@u,___flmul@b
  4434   0018F2  C129  F081         	movff	efgtoa@u+1,___flmul@b+1
  4435   0018F6  C12A  F082         	movff	efgtoa@u+2,___flmul@b+2
  4436   0018FA  C12B  F083         	movff	efgtoa@u+3,___flmul@b+3
  4437   0018FE  ECA1  F00F         	call	___flmul	;wreg free
  4438   001902  C080  F09D         	movff	?___flmul,___flsub@a
  4439   001906  C081  F09E         	movff	?___flmul+1,___flsub@a+1
  4440   00190A  C082  F09F         	movff	?___flmul+2,___flsub@a+2
  4441   00190E  C083  F0A0         	movff	?___flmul+3,___flsub@a+3
  4442   001912  ECA3  F025         	call	___flsub	;wreg free
  4443   001916  C099  F119         	movff	?___flsub,efgtoa@h
  4444   00191A  C09A  F11A         	movff	?___flsub+1,efgtoa@h+1
  4445   00191E  C09B  F11B         	movff	?___flsub+2,efgtoa@h+2
  4446   001922  C09C  F11C         	movff	?___flsub+3,efgtoa@h+3
  4447   001926                     
  4448                           ;C:\Program Files\Microchip\xc8\v2.41\pic\sources\c99\common\doprnt.c: 751:         u.f 
      +                          = u.f/10.0;
  4449   001926  C128  F099         	movff	efgtoa@u,___fldiv@b
  4450   00192A  C129  F09A         	movff	efgtoa@u+1,___fldiv@b+1
  4451   00192E  C12A  F09B         	movff	efgtoa@u+2,___fldiv@b+2
  4452   001932  C12B  F09C         	movff	efgtoa@u+3,___fldiv@b+3
  4453   001936  0E00               	movlw	0
  4454   001938  0100               	movlb	0	; () banked
  4455   00193A  6F9D               	movwf	___fldiv@a& (0+255),b
  4456   00193C  0E00               	movlw	0
  4457   00193E  6F9E               	movwf	(___fldiv@a+1)& (0+255),b
  4458   001940  0E20               	movlw	32
  4459   001942  6F9F               	movwf	(___fldiv@a+2)& (0+255),b
  4460   001944  0E41               	movlw	65
  4461   001946  6FA0               	movwf	(___fldiv@a+3)& (0+255),b
  4462   001948  ECA7  F015         	call	___fldiv	;wreg free
  4463   00194C  C099  F128         	movff	?___fldiv,efgtoa@u
  4464   001950  C09A  F129         	movff	?___fldiv+1,efgtoa@u+1
  4465   001954  C09B  F12A         	movff	?___fldiv+2,efgtoa@u+2
  4466   001958  C09C  F12B         	movff	?___fldiv+3,efgtoa@u+3
  4467   00195C                     
  4468                           ;C:\Program Files\Microchip\xc8\v2.41\pic\sources\c99\common\doprnt.c: 752:         --ne
      +                          ;
  4469   00195C  0101               	movlb	1	; () banked
  4470   00195E  0700               	decf	efgtoa@ne& (0+255),f,b
  4471   001960  A0D8               	btfss	status,0,c
  4472   001962  0701               	decf	(efgtoa@ne+1)& (0+255),f,b
  4473   001964                     
  4474                           ; BSR set to: 1
  4475                           ;C:\Program Files\Microchip\xc8\v2.41\pic\sources\c99\common\doprnt.c: 753:         ++i;
  4476   001964  4B17               	infsnz	efgtoa@i& (0+255),f,b
  4477   001966  2B18               	incf	(efgtoa@i+1)& (0+255),f,b
  4478   001968                     l6498:
  4479                           
  4480                           ; BSR set to: 1
  4481                           ;C:\Program Files\Microchip\xc8\v2.41\pic\sources\c99\common\doprnt.c: 723:     while ((
      +                          i < m) && (n < (80 - 5))) {
  4482   001968  510D               	movf	efgtoa@m& (0+255),w,b
  4483   00196A  5D17               	subwf	efgtoa@i& (0+255),w,b
  4484   00196C  5118               	movf	(efgtoa@i+1)& (0+255),w,b
  4485   00196E  0A80               	xorlw	128
  4486   001970  0100               	movlb	0	; () banked
  4487   001972  6FCD               	movwf	??_efgtoa& (0+255),b
  4488   001974  0101               	movlb	1	; () banked
  4489   001976  510E               	movf	(efgtoa@m+1)& (0+255),w,b
  4490   001978  0A80               	xorlw	128
  4491   00197A  0100               	movlb	0	; () banked
  4492   00197C  59CD               	subwfb	??_efgtoa& (0+255),w,b
  4493   00197E  B0D8               	btfsc	status,0,c
  4494   001980  EFC4  F00C         	goto	u7891
  4495   001984  EFC6  F00C         	goto	u7890
  4496   001988                     u7891:
  4497   001988  EFD5  F00C         	goto	l6502
  4498   00198C                     u7890:
  4499   00198C                     
  4500                           ; BSR set to: 0
  4501   00198C  0101               	movlb	1	; () banked
  4502   00198E  BF27               	btfsc	(efgtoa@n+1)& (0+255),7,b
  4503   001990  EFD3  F00C         	goto	u7901
  4504   001994  5127               	movf	(efgtoa@n+1)& (0+255),w,b
  4505   001996  E109               	bnz	u7900
  4506   001998  0E4B               	movlw	75
  4507   00199A  5D26               	subwf	efgtoa@n& (0+255),w,b
  4508   00199C  A0D8               	btfss	status,0,c
  4509   00199E  EFD3  F00C         	goto	u7901
  4510   0019A2  EFD5  F00C         	goto	u7900
  4511   0019A6                     u7901:
  4512   0019A6  EFCE  F00B         	goto	l6458
  4513   0019AA                     u7900:
  4514   0019AA                     l6502:
  4515                           
  4516                           ;C:\Program Files\Microchip\xc8\v2.41\pic\sources\c99\common\doprnt.c: 760:  i = sizeof(
      +                          dbuf) - 1;
  4517   0019AA  0E00               	movlw	0
  4518   0019AC  0101               	movlb	1	; () banked
  4519   0019AE  6F18               	movwf	(efgtoa@i+1)& (0+255),b
  4520   0019B0  0E4F               	movlw	79
  4521   0019B2  6F17               	movwf	efgtoa@i& (0+255),b
  4522   0019B4                     
  4523                           ; BSR set to: 1
  4524                           ;C:\Program Files\Microchip\xc8\v2.41\pic\sources\c99\common\doprnt.c: 761:     dbuf[i] 
      +                          = '\0';
  4525   0019B4  0E77               	movlw	low _dbuf
  4526   0019B6  2517               	addwf	efgtoa@i& (0+255),w,b
  4527   0019B8  6ED9               	movwf	fsr2l,c
  4528   0019BA  0E01               	movlw	high _dbuf
  4529   0019BC  2118               	addwfc	(efgtoa@i+1)& (0+255),w,b
  4530   0019BE  6EDA               	movwf	fsr2h,c
  4531   0019C0  6ADF               	clrf	indf2,c
  4532   0019C2                     
  4533                           ; BSR set to: 1
  4534                           ;C:\Program Files\Microchip\xc8\v2.41\pic\sources\c99\common\doprnt.c: 792:  memcpy(&dbu
      +                          f[i-n], &dbuf[0], (size_t)n);
  4535   0019C2  0E77               	movlw	low _dbuf
  4536   0019C4  0100               	movlb	0	; () banked
  4537   0019C6  6FCD               	movwf	??_efgtoa& (0+255),b
  4538   0019C8  0E01               	movlw	high _dbuf
  4539   0019CA  6FCE               	movwf	(??_efgtoa+1)& (0+255),b
  4540   0019CC  0101               	movlb	1	; () banked
  4541   0019CE  5126               	movf	efgtoa@n& (0+255),w,b
  4542   0019D0  0100               	movlb	0	; () banked
  4543   0019D2  5FCD               	subwf	??_efgtoa& (0+255),f,b
  4544   0019D4  0101               	movlb	1	; () banked
  4545   0019D6  5127               	movf	(efgtoa@n+1)& (0+255),w,b
  4546   0019D8  0100               	movlb	0	; () banked
  4547   0019DA  5BCE               	subwfb	(??_efgtoa+1)& (0+255),f,b
  4548   0019DC  0101               	movlb	1	; () banked
  4549   0019DE  5117               	movf	efgtoa@i& (0+255),w,b
  4550   0019E0  0100               	movlb	0	; () banked
  4551   0019E2  25CD               	addwf	??_efgtoa& (0+255),w,b
  4552   0019E4  6E26               	movwf	memcpy@d1^0,c
  4553   0019E6  0101               	movlb	1	; () banked
  4554   0019E8  5118               	movf	(efgtoa@i+1)& (0+255),w,b
  4555   0019EA  0100               	movlb	0	; () banked
  4556   0019EC  21CE               	addwfc	(??_efgtoa+1)& (0+255),w,b
  4557   0019EE  6E27               	movwf	(memcpy@d1+1)^0,c
  4558   0019F0  0E77               	movlw	low _dbuf
  4559   0019F2  6E28               	movwf	memcpy@s1^0,c
  4560   0019F4  0E01               	movlw	high _dbuf
  4561   0019F6  6E29               	movwf	(memcpy@s1+1)^0,c
  4562   0019F8  C126  F02A         	movff	efgtoa@n,memcpy@n
  4563   0019FC  C127  F02B         	movff	efgtoa@n+1,memcpy@n+1
  4564   001A00  EC7B  F025         	call	_memcpy	;wreg free
  4565   001A04                     
  4566                           ;C:\Program Files\Microchip\xc8\v2.41\pic\sources\c99\common\doprnt.c: 793:  n = i-n;
  4567   001A04  0101               	movlb	1	; () banked
  4568   001A06  5126               	movf	efgtoa@n& (0+255),w,b
  4569   001A08  5D17               	subwf	efgtoa@i& (0+255),w,b
  4570   001A0A  6F26               	movwf	efgtoa@n& (0+255),b
  4571   001A0C  5127               	movf	(efgtoa@n+1)& (0+255),w,b
  4572   001A0E  5918               	subwfb	(efgtoa@i+1)& (0+255),w,b
  4573   001A10  6F27               	movwf	(efgtoa@n+1)& (0+255),b
  4574   001A12                     
  4575                           ; BSR set to: 1
  4576                           ;C:\Program Files\Microchip\xc8\v2.41\pic\sources\c99\common\doprnt.c: 794:  i = sign ==
      +                           0 ? 0 : 1;
  4577   001A12  5121               	movf	efgtoa@sign& (0+255),w,b
  4578   001A14  A4D8               	btfss	status,2,c
  4579   001A16  EF0F  F00D         	goto	u7911
  4580   001A1A  EF12  F00D         	goto	u7910
  4581   001A1E                     u7911:
  4582   001A1E  0E01               	movlw	1
  4583   001A20  EF13  F00D         	goto	u7920
  4584   001A24                     u7910:
  4585   001A24  0E00               	movlw	0
  4586   001A26                     u7920:
  4587   001A26  6F17               	movwf	efgtoa@i& (0+255),b
  4588   001A28  6B18               	clrf	(efgtoa@i+1)& (0+255),b
  4589   001A2A                     
  4590                           ; BSR set to: 1
  4591                           ;C:\Program Files\Microchip\xc8\v2.41\pic\sources\c99\common\doprnt.c: 805:  if (sign) {
  4592   001A2A  5121               	movf	efgtoa@sign& (0+255),w,b
  4593   001A2C  B4D8               	btfsc	status,2,c
  4594   001A2E  EF1B  F00D         	goto	u7931
  4595   001A32  EF1D  F00D         	goto	u7930
  4596   001A36                     u7931:
  4597   001A36  EF28  F00D         	goto	l6516
  4598   001A3A                     u7930:
  4599   001A3A                     
  4600                           ; BSR set to: 1
  4601                           ;C:\Program Files\Microchip\xc8\v2.41\pic\sources\c99\common\doprnt.c: 806:   dbuf[--n] 
      +                          = sign;
  4602   001A3A  0726               	decf	efgtoa@n& (0+255),f,b
  4603   001A3C  A0D8               	btfss	status,0,c
  4604   001A3E  0727               	decf	(efgtoa@n+1)& (0+255),f,b
  4605   001A40  0E77               	movlw	low _dbuf
  4606   001A42  2526               	addwf	efgtoa@n& (0+255),w,b
  4607   001A44  6ED9               	movwf	fsr2l,c
  4608   001A46  0E01               	movlw	high _dbuf
  4609   001A48  2127               	addwfc	(efgtoa@n+1)& (0+255),w,b
  4610   001A4A  6EDA               	movwf	fsr2h,c
  4611   001A4C  C121  FFDF         	movff	efgtoa@sign,indf2
  4612   001A50                     l6516:
  4613                           
  4614                           ; BSR set to: 1
  4615                           ;C:\Program Files\Microchip\xc8\v2.41\pic\sources\c99\common\doprnt.c: 808:  w -= i;
  4616   001A50  5117               	movf	efgtoa@i& (0+255),w,b
  4617   001A52  5F11               	subwf	efgtoa@w& (0+255),f,b
  4618   001A54  5118               	movf	(efgtoa@i+1)& (0+255),w,b
  4619   001A56  5B12               	subwfb	(efgtoa@w+1)& (0+255),f,b
  4620   001A58                     
  4621                           ; BSR set to: 1
  4622                           ;C:\Program Files\Microchip\xc8\v2.41\pic\sources\c99\common\doprnt.c: 811:     return (
      +                          void) pad(fp, &dbuf[n], w);
  4623   001A58  C0C6  F083         	movff	efgtoa@fp,pad@fp
  4624   001A5C  C0C7  F084         	movff	efgtoa@fp+1,pad@fp+1
  4625   001A60  0E77               	movlw	low _dbuf
  4626   001A62  2526               	addwf	efgtoa@n& (0+255),w,b
  4627   001A64  0100               	movlb	0	; () banked
  4628   001A66  6F85               	movwf	pad@buf& (0+255),b
  4629   001A68  0E01               	movlw	high _dbuf
  4630   001A6A  0101               	movlb	1	; () banked
  4631   001A6C  2127               	addwfc	(efgtoa@n+1)& (0+255),w,b
  4632   001A6E  0100               	movlb	0	; () banked
  4633   001A70  6F86               	movwf	(pad@buf+1)& (0+255),b
  4634   001A72  C111  F087         	movff	efgtoa@w,pad@p
  4635   001A76  C112  F088         	movff	efgtoa@w+1,pad@p+1
  4636   001A7A  EC65  F022         	call	_pad	;wreg free
  4637   001A7E                     l1090:
  4638   001A7E  0012               	return		;funcret
  4639   001A80                     __end_of_efgtoa:
  4640                           	callstack 0
  4641                           
  4642 ;; *************** function _strcpy *****************
  4643 ;; Defined at:
  4644 ;;		line 3 in file "C:\Program Files\Microchip\xc8\v2.41\pic\sources\c99\common\strcpy.c"
  4645 ;; Parameters:    Size  Location     Type
  4646 ;;  dest            2   37[COMRAM] PTR unsigned char 
  4647 ;;		 -> dbuf(80), 
  4648 ;;  src             2   39[COMRAM] PTR const unsigned char 
  4649 ;;		 -> STR_15(4), STR_12(4), 
  4650 ;; Auto vars:     Size  Location     Type
  4651 ;;  d               2   43[COMRAM] PTR unsigned char 
  4652 ;;		 -> dbuf(80), 
  4653 ;;  s               2   41[COMRAM] PTR const unsigned char 
  4654 ;;		 -> STR_15(4), STR_12(4), 
  4655 ;; Return value:  Size  Location     Type
  4656 ;;                  2   37[COMRAM] PTR unsigned char 
  4657 ;; Registers used:
  4658 ;;		wreg, fsr2l, fsr2h, status,2, status,0, tblptrl, tblptrh, tblptru
  4659 ;; Tracked objects:
  4660 ;;		On entry : 0/0
  4661 ;;		On exit  : 0/0
  4662 ;;		Unchanged: 0/0
  4663 ;; Data sizes:     COMRAM   BANK0   BANK1   BANK2   BANK3   BANK4   BANK5   BANK6   BANK7   BANK8   BANK9  BANK10  BANK1
      +1  BANK12  BANK13  BANK14  BANK15
  4664 ;;      Params:         4       0       0       0       0       0       0       0       0       0       0       0       
      +0       0       0       0       0
  4665 ;;      Locals:         4       0       0       0       0       0       0       0       0       0       0       0       
      +0       0       0       0       0
  4666 ;;      Temps:          0       0       0       0       0       0       0       0       0       0       0       0       
      +0       0       0       0       0
  4667 ;;      Totals:         8       0       0       0       0       0       0       0       0       0       0       0       
      +0       0       0       0       0
  4668 ;;Total ram usage:        8 bytes
  4669 ;; Hardware stack levels used: 1
  4670 ;; Hardware stack levels required when called: 3
  4671 ;; This function calls:
  4672 ;;		Nothing
  4673 ;; This function is called by:
  4674 ;;		_efgtoa
  4675 ;; This function uses a non-reentrant model
  4676 ;;
  4677                           
  4678                           	psect	text10
  4679   004C1A                     __ptext10:
  4680                           	callstack 0
  4681   004C1A                     _strcpy:
  4682                           	callstack 23
  4683   004C1A  C028  F02A         	movff	strcpy@src,strcpy@s
  4684   004C1E  C029  F02B         	movff	strcpy@src+1,strcpy@s+1
  4685   004C22  C026  F02C         	movff	strcpy@dest,strcpy@d
  4686   004C26  C027  F02D         	movff	strcpy@dest+1,strcpy@d+1
  4687   004C2A                     l6176:
  4688   004C2A  C02A  FFF6         	movff	strcpy@s,tblptrl
  4689   004C2E  C02B  FFF7         	movff	strcpy@s+1,tblptrh
  4690   004C32  4A2A               	infsnz	strcpy@s^0,f,c
  4691   004C34  2A2B               	incf	(strcpy@s+1)^0,f,c
  4692   004C36                     	if	0	;tblptru may be non-zero
  4693   004C36                     	endif
  4694   004C36                     	if	0	;tblptru may be non-zero
  4695   004C36                     	endif
  4696   004C36  C02C  FFD9         	movff	strcpy@d,fsr2l
  4697   004C3A  C02D  FFDA         	movff	strcpy@d+1,fsr2h
  4698   004C3E  4A2C               	infsnz	strcpy@d^0,f,c
  4699   004C40  2A2D               	incf	(strcpy@d+1)^0,f,c
  4700   004C42  0008               	tblrd		*
  4701   004C44  CFF5 FFDF          	movff	tablat,indf2
  4702   004C48  50DF               	movf	indf2,w,c
  4703   004C4A  A4D8               	btfss	status,2,c
  4704   004C4C  EF2A  F026         	goto	u7351
  4705   004C50  EF2C  F026         	goto	u7350
  4706   004C54                     u7351:
  4707   004C54  EF15  F026         	goto	l6176
  4708   004C58                     u7350:
  4709   004C58  0012               	return		;funcret
  4710   004C5A                     __end_of_strcpy:
  4711                           	callstack 0
  4712                           
  4713 ;; *************** function _memcpy *****************
  4714 ;; Defined at:
  4715 ;;		line 4 in file "C:\Program Files\Microchip\xc8\v2.41\pic\sources\c99\common\memcpy.c"
  4716 ;; Parameters:    Size  Location     Type
  4717 ;;  d1              2   37[COMRAM] PTR void 
  4718 ;;		 -> dbuf(80), 
  4719 ;;  s1              2   39[COMRAM] PTR const void 
  4720 ;;		 -> dbuf(80), 
  4721 ;;  n               2   41[COMRAM] unsigned int 
  4722 ;; Auto vars:     Size  Location     Type
  4723 ;;  s               2   46[COMRAM] PTR const unsigned char 
  4724 ;;		 -> dbuf(80), 
  4725 ;;  d               2   44[COMRAM] PTR unsigned char 
  4726 ;;		 -> dbuf(80), 
  4727 ;;  tmp             1   43[COMRAM] unsigned char 
  4728 ;; Return value:  Size  Location     Type
  4729 ;;                  2   37[COMRAM] PTR void 
  4730 ;; Registers used:
  4731 ;;		wreg, fsr2l, fsr2h, status,2, status,0
  4732 ;; Tracked objects:
  4733 ;;		On entry : 0/0
  4734 ;;		On exit  : 0/0
  4735 ;;		Unchanged: 0/0
  4736 ;; Data sizes:     COMRAM   BANK0   BANK1   BANK2   BANK3   BANK4   BANK5   BANK6   BANK7   BANK8   BANK9  BANK10  BANK1
      +1  BANK12  BANK13  BANK14  BANK15
  4737 ;;      Params:         6       0       0       0       0       0       0       0       0       0       0       0       
      +0       0       0       0       0
  4738 ;;      Locals:         5       0       0       0       0       0       0       0       0       0       0       0       
      +0       0       0       0       0
  4739 ;;      Temps:          0       0       0       0       0       0       0       0       0       0       0       0       
      +0       0       0       0       0
  4740 ;;      Totals:        11       0       0       0       0       0       0       0       0       0       0       0       
      +0       0       0       0       0
  4741 ;;Total ram usage:       11 bytes
  4742 ;; Hardware stack levels used: 1
  4743 ;; Hardware stack levels required when called: 3
  4744 ;; This function calls:
  4745 ;;		Nothing
  4746 ;; This function is called by:
  4747 ;;		_efgtoa
  4748 ;; This function uses a non-reentrant model
  4749 ;;
  4750                           
  4751                           	psect	text11
  4752   004AF6                     __ptext11:
  4753                           	callstack 0
  4754   004AF6                     _memcpy:
  4755                           	callstack 23
  4756   004AF6  C028  F02F         	movff	memcpy@s1,memcpy@s
  4757   004AFA  C029  F030         	movff	memcpy@s1+1,memcpy@s+1
  4758   004AFE  C026  F02D         	movff	memcpy@d1,memcpy@d
  4759   004B02  C027  F02E         	movff	memcpy@d1+1,memcpy@d+1
  4760   004B06  EF95  F025         	goto	l6220
  4761   004B0A                     l6212:
  4762   004B0A  C02F  FFD9         	movff	memcpy@s,fsr2l
  4763   004B0E  C030  FFDA         	movff	memcpy@s+1,fsr2h
  4764   004B12  50DF               	movf	indf2,w,c
  4765   004B14  6E2C               	movwf	memcpy@tmp^0,c
  4766   004B16  4A2F               	infsnz	memcpy@s^0,f,c
  4767   004B18  2A30               	incf	(memcpy@s+1)^0,f,c
  4768   004B1A  C02D  FFD9         	movff	memcpy@d,fsr2l
  4769   004B1E  C02E  FFDA         	movff	memcpy@d+1,fsr2h
  4770   004B22  C02C  FFDF         	movff	memcpy@tmp,indf2
  4771   004B26  4A2D               	infsnz	memcpy@d^0,f,c
  4772   004B28  2A2E               	incf	(memcpy@d+1)^0,f,c
  4773   004B2A                     l6220:
  4774   004B2A  062A               	decf	memcpy@n^0,f,c
  4775   004B2C  A0D8               	btfss	status,0,c
  4776   004B2E  062B               	decf	(memcpy@n+1)^0,f,c
  4777   004B30  282A               	incf	memcpy@n^0,w,c
  4778   004B32  E106               	bnz	u7471
  4779   004B34  282B               	incf	(memcpy@n+1)^0,w,c
  4780   004B36  A4D8               	btfss	status,2,c
  4781   004B38  EFA0  F025         	goto	u7471
  4782   004B3C  EFA2  F025         	goto	u7470
  4783   004B40                     u7471:
  4784   004B40  EF85  F025         	goto	l6212
  4785   004B44                     u7470:
  4786   004B44  0012               	return		;funcret
  4787   004B46                     __end_of_memcpy:
  4788                           	callstack 0
  4789                           
  4790 ;; *************** function _labs *****************
  4791 ;; Defined at:
  4792 ;;		line 1 in file "C:\Program Files\Microchip\xc8\v2.41\pic\sources\c99\common\labs.c"
  4793 ;; Parameters:    Size  Location     Type
  4794 ;;  a               4   37[COMRAM] long 
  4795 ;; Auto vars:     Size  Location     Type
  4796 ;;		None
  4797 ;; Return value:  Size  Location     Type
  4798 ;;                  4   37[COMRAM] long 
  4799 ;; Registers used:
  4800 ;;		wreg, status,2, status,0
  4801 ;; Tracked objects:
  4802 ;;		On entry : 0/0
  4803 ;;		On exit  : 0/0
  4804 ;;		Unchanged: 0/0
  4805 ;; Data sizes:     COMRAM   BANK0   BANK1   BANK2   BANK3   BANK4   BANK5   BANK6   BANK7   BANK8   BANK9  BANK10  BANK1
      +1  BANK12  BANK13  BANK14  BANK15
  4806 ;;      Params:         4       0       0       0       0       0       0       0       0       0       0       0       
      +0       0       0       0       0
  4807 ;;      Locals:         0       0       0       0       0       0       0       0       0       0       0       0       
      +0       0       0       0       0
  4808 ;;      Temps:          4       0       0       0       0       0       0       0       0       0       0       0       
      +0       0       0       0       0
  4809 ;;      Totals:         8       0       0       0       0       0       0       0       0       0       0       0       
      +0       0       0       0       0
  4810 ;;Total ram usage:        8 bytes
  4811 ;; Hardware stack levels used: 1
  4812 ;; Hardware stack levels required when called: 3
  4813 ;; This function calls:
  4814 ;;		Nothing
  4815 ;; This function is called by:
  4816 ;;		_efgtoa
  4817 ;; This function uses a non-reentrant model
  4818 ;;
  4819                           
  4820                           	psect	text12
  4821   004942                     __ptext12:
  4822                           	callstack 0
  4823   004942                     _labs:
  4824                           	callstack 23
  4825   004942  BE29               	btfsc	(labs@a+3)^0,7,c
  4826   004944  EFB0  F024         	goto	u7360
  4827   004948  5029               	movf	(labs@a+3)^0,w,c
  4828   00494A  1028               	iorwf	(labs@a+2)^0,w,c
  4829   00494C  1027               	iorwf	(labs@a+1)^0,w,c
  4830   00494E  E106               	bnz	u7361
  4831   004950  0426               	decf	labs@a^0,w,c
  4832   004952  B0D8               	btfsc	status,0,c
  4833   004954  EFAE  F024         	goto	u7361
  4834   004958  EFB0  F024         	goto	u7360
  4835   00495C                     u7361:
  4836   00495C  EFCB  F024         	goto	l1235
  4837   004960                     u7360:
  4838   004960  C026  F02A         	movff	labs@a,??_labs
  4839   004964  C027  F02B         	movff	labs@a+1,??_labs+1
  4840   004968  C028  F02C         	movff	labs@a+2,??_labs+2
  4841   00496C  C029  F02D         	movff	labs@a+3,??_labs+3
  4842   004970  1E2A               	comf	??_labs^0,f,c
  4843   004972  1E2B               	comf	(??_labs+1)^0,f,c
  4844   004974  1E2C               	comf	(??_labs+2)^0,f,c
  4845   004976  1E2D               	comf	(??_labs+3)^0,f,c
  4846   004978  2A2A               	incf	??_labs^0,f,c
  4847   00497A  0E00               	movlw	0
  4848   00497C  222B               	addwfc	(??_labs+1)^0,f,c
  4849   00497E  222C               	addwfc	(??_labs+2)^0,f,c
  4850   004980  222D               	addwfc	(??_labs+3)^0,f,c
  4851   004982  C02A  F026         	movff	??_labs,?_labs
  4852   004986  C02B  F027         	movff	??_labs+1,?_labs+1
  4853   00498A  C02C  F028         	movff	??_labs+2,?_labs+2
  4854   00498E  C02D  F029         	movff	??_labs+3,?_labs+3
  4855   004992  EFD3  F024         	goto	l1238
  4856   004996                     l1235:
  4857   004996  C026  F026         	movff	labs@a,?_labs
  4858   00499A  C027  F027         	movff	labs@a+1,?_labs+1
  4859   00499E  C028  F028         	movff	labs@a+2,?_labs+2
  4860   0049A2  C029  F029         	movff	labs@a+3,?_labs+3
  4861   0049A6                     l1238:
  4862   0049A6  0012               	return		;funcret
  4863   0049A8                     __end_of_labs:
  4864                           	callstack 0
  4865                           
  4866 ;; *************** function _floorf *****************
  4867 ;; Defined at:
  4868 ;;		line 3 in file "C:\Program Files\Microchip\xc8\v2.41\pic\sources\c99\common\floorf.c"
  4869 ;; Parameters:    Size  Location     Type
  4870 ;;  x               4   50[BANK0 ] float 
  4871 ;; Auto vars:     Size  Location     Type
  4872 ;;  u               4   66[BANK0 ] struct .
  4873 ;;  m               4   60[BANK0 ] unsigned long 
  4874 ;;  e               2   64[BANK0 ] int 
  4875 ;; Return value:  Size  Location     Type
  4876 ;;                  4   50[BANK0 ] float 
  4877 ;; Registers used:
  4878 ;;		wreg, status,2, status,0
  4879 ;; Tracked objects:
  4880 ;;		On entry : 0/0
  4881 ;;		On exit  : 0/0
  4882 ;;		Unchanged: 0/0
  4883 ;; Data sizes:     COMRAM   BANK0   BANK1   BANK2   BANK3   BANK4   BANK5   BANK6   BANK7   BANK8   BANK9  BANK10  BANK1
      +1  BANK12  BANK13  BANK14  BANK15
  4884 ;;      Params:         0       4       0       0       0       0       0       0       0       0       0       0       
      +0       0       0       0       0
  4885 ;;      Locals:         0      10       0       0       0       0       0       0       0       0       0       0       
      +0       0       0       0       0
  4886 ;;      Temps:          0       6       0       0       0       0       0       0       0       0       0       0       
      +0       0       0       0       0
  4887 ;;      Totals:         0      20       0       0       0       0       0       0       0       0       0       0       
      +0       0       0       0       0
  4888 ;;Total ram usage:       20 bytes
  4889 ;; Hardware stack levels used: 1
  4890 ;; Hardware stack levels required when called: 3
  4891 ;; This function calls:
  4892 ;;		Nothing
  4893 ;; This function is called by:
  4894 ;;		_efgtoa
  4895 ;; This function uses a non-reentrant model
  4896 ;;
  4897                           
  4898                           	psect	text13
  4899   003284                     __ptext13:
  4900                           	callstack 0
  4901   003284                     _floorf:
  4902                           	callstack 23
  4903   003284  C0F0  F0C2         	movff	floorf@F526,floorf@u
  4904   003288  C0F1  F0C3         	movff	floorf@F526+1,floorf@u+1
  4905   00328C  C0F2  F0C4         	movff	floorf@F526+2,floorf@u+2
  4906   003290  C0F3  F0C5         	movff	floorf@F526+3,floorf@u+3
  4907   003294  C0B2  F0C2         	movff	floorf@x,floorf@u
  4908   003298  C0B3  F0C3         	movff	floorf@x+1,floorf@u+1
  4909   00329C  C0B4  F0C4         	movff	floorf@x+2,floorf@u+2
  4910   0032A0  C0B5  F0C5         	movff	floorf@x+3,floorf@u+3
  4911   0032A4  0E81               	movlw	129
  4912   0032A6  0100               	movlb	0	; () banked
  4913   0032A8  6FB6               	movwf	??_floorf& (0+255),b
  4914   0032AA  0EFF               	movlw	255
  4915   0032AC  6FB7               	movwf	(??_floorf+1)& (0+255),b
  4916   0032AE  C0C2  F0B8         	movff	floorf@u,??_floorf+2
  4917   0032B2  C0C3  F0B9         	movff	floorf@u+1,??_floorf+3
  4918   0032B6  C0C4  F0BA         	movff	floorf@u+2,??_floorf+4
  4919   0032BA  C0C5  F0BB         	movff	floorf@u+3,??_floorf+5
  4920   0032BE  0E18               	movlw	24
  4921   0032C0  EF67  F019         	goto	u7370
  4922   0032C4                     u7375:
  4923   0032C4  90D8               	bcf	status,0,c
  4924   0032C6  33BB               	rrcf	(??_floorf+5)& (0+255),f,b
  4925   0032C8  33BA               	rrcf	(??_floorf+4)& (0+255),f,b
  4926   0032CA  33B9               	rrcf	(??_floorf+3)& (0+255),f,b
  4927   0032CC  33B8               	rrcf	(??_floorf+2)& (0+255),f,b
  4928   0032CE                     u7370:
  4929   0032CE  2EE8               	decfsz	wreg,f,c
  4930   0032D0  EF62  F019         	goto	u7375
  4931   0032D4  51B8               	movf	(??_floorf+2)& (0+255),w,b
  4932   0032D6  25B6               	addwf	??_floorf& (0+255),w,b
  4933   0032D8  6FC0               	movwf	floorf@e& (0+255),b
  4934   0032DA  0E00               	movlw	0
  4935   0032DC  21B7               	addwfc	(??_floorf+1)& (0+255),w,b
  4936   0032DE  6FC1               	movwf	(floorf@e+1)& (0+255),b
  4937   0032E0  BFC1               	btfsc	(floorf@e+1)& (0+255),7,b
  4938   0032E2  EF7C  F019         	goto	u7381
  4939   0032E6  51C1               	movf	(floorf@e+1)& (0+255),w,b
  4940   0032E8  E109               	bnz	u7380
  4941   0032EA  0E17               	movlw	23
  4942   0032EC  5DC0               	subwf	floorf@e& (0+255),w,b
  4943   0032EE  A0D8               	btfss	status,0,c
  4944   0032F0  EF7C  F019         	goto	u7381
  4945   0032F4  EF7E  F019         	goto	u7380
  4946   0032F8                     u7381:
  4947   0032F8  EF88  F019         	goto	l6188
  4948   0032FC                     u7380:
  4949   0032FC                     l6186:
  4950                           
  4951                           ; BSR set to: 0
  4952   0032FC  C0B2  F0B2         	movff	floorf@x,?_floorf
  4953   003300  C0B3  F0B3         	movff	floorf@x+1,?_floorf+1
  4954   003304  C0B4  F0B4         	movff	floorf@x+2,?_floorf+2
  4955   003308  C0B5  F0B5         	movff	floorf@x+3,?_floorf+3
  4956   00330C  EF4C  F01A         	goto	l1224
  4957   003310                     l6188:
  4958                           
  4959                           ; BSR set to: 0
  4960   003310  BFC1               	btfsc	(floorf@e+1)& (0+255),7,b
  4961   003312  EF8D  F019         	goto	u7391
  4962   003316  EF8F  F019         	goto	u7390
  4963   00331A                     u7391:
  4964   00331A  EF00  F01A         	goto	l6198
  4965   00331E                     u7390:
  4966   00331E                     
  4967                           ; BSR set to: 0
  4968   00331E  C0C0  F0B6         	movff	floorf@e,??_floorf
  4969   003322  0EFF               	movlw	255
  4970   003324  6FB7               	movwf	(??_floorf+1)& (0+255),b
  4971   003326  0EFF               	movlw	255
  4972   003328  6FB8               	movwf	(??_floorf+2)& (0+255),b
  4973   00332A  0E7F               	movlw	127
  4974   00332C  6FB9               	movwf	(??_floorf+3)& (0+255),b
  4975   00332E  0E00               	movlw	0
  4976   003330  6FBA               	movwf	(??_floorf+4)& (0+255),b
  4977   003332                     u7405:
  4978   003332  67B6               	tstfsz	??_floorf& (0+255),b
  4979   003334  EF9E  F019         	goto	u7406
  4980   003338  EFA6  F019         	goto	u7407
  4981   00333C                     u7406:
  4982   00333C  35BA               	rlcf	(??_floorf+4)& (0+255),w,b
  4983   00333E  33BA               	rrcf	(??_floorf+4)& (0+255),f,b
  4984   003340  33B9               	rrcf	(??_floorf+3)& (0+255),f,b
  4985   003342  33B8               	rrcf	(??_floorf+2)& (0+255),f,b
  4986   003344  33B7               	rrcf	(??_floorf+1)& (0+255),f,b
  4987   003346  2FB6               	decfsz	??_floorf& (0+255),f,b
  4988   003348  EF99  F019         	goto	u7405
  4989   00334C                     u7407:
  4990   00334C  C0B7  F0BC         	movff	??_floorf+1,floorf@m
  4991   003350  C0B8  F0BD         	movff	??_floorf+2,floorf@m+1
  4992   003354  C0B9  F0BE         	movff	??_floorf+3,floorf@m+2
  4993   003358  C0BA  F0BF         	movff	??_floorf+4,floorf@m+3
  4994   00335C  0100               	movlb	0	; () banked
  4995   00335E  51BC               	movf	floorf@m& (0+255),w,b
  4996   003360  15C2               	andwf	floorf@u& (0+255),w,b
  4997   003362  6FB6               	movwf	??_floorf& (0+255),b
  4998   003364  51BD               	movf	(floorf@m+1)& (0+255),w,b
  4999   003366  15C3               	andwf	(floorf@u+1)& (0+255),w,b
  5000   003368  6FB7               	movwf	(??_floorf+1)& (0+255),b
  5001   00336A  51BE               	movf	(floorf@m+2)& (0+255),w,b
  5002   00336C  15C4               	andwf	(floorf@u+2)& (0+255),w,b
  5003   00336E  6FB8               	movwf	(??_floorf+2)& (0+255),b
  5004   003370  51BF               	movf	(floorf@m+3)& (0+255),w,b
  5005   003372  15C5               	andwf	(floorf@u+3)& (0+255),w,b
  5006   003374  6FB9               	movwf	(??_floorf+3)& (0+255),b
  5007   003376  51B6               	movf	??_floorf& (0+255),w,b
  5008   003378  11B7               	iorwf	(??_floorf+1)& (0+255),w,b
  5009   00337A  11B8               	iorwf	(??_floorf+2)& (0+255),w,b
  5010   00337C  11B9               	iorwf	(??_floorf+3)& (0+255),w,b
  5011   00337E  A4D8               	btfss	status,2,c
  5012   003380  EFC4  F019         	goto	u7411
  5013   003384  EFC6  F019         	goto	u7410
  5014   003388                     u7411:
  5015   003388  EFC8  F019         	goto	l6194
  5016   00338C                     u7410:
  5017   00338C  EF7E  F019         	goto	l6186
  5018   003390                     l6194:
  5019                           
  5020                           ; BSR set to: 0
  5021   003390  C0C2  F0B6         	movff	floorf@u,??_floorf
  5022   003394  C0C3  F0B7         	movff	floorf@u+1,??_floorf+1
  5023   003398  C0C4  F0B8         	movff	floorf@u+2,??_floorf+2
  5024   00339C  C0C5  F0B9         	movff	floorf@u+3,??_floorf+3
  5025   0033A0  0E20               	movlw	32
  5026   0033A2  EFD8  F019         	goto	u7420
  5027   0033A6                     u7425:
  5028   0033A6  90D8               	bcf	status,0,c
  5029   0033A8  33B9               	rrcf	(??_floorf+3)& (0+255),f,b
  5030   0033AA  33B8               	rrcf	(??_floorf+2)& (0+255),f,b
  5031   0033AC  33B7               	rrcf	(??_floorf+1)& (0+255),f,b
  5032   0033AE  33B6               	rrcf	??_floorf& (0+255),f,b
  5033   0033B0                     u7420:
  5034   0033B0  2EE8               	decfsz	wreg,f,c
  5035   0033B2  EFD3  F019         	goto	u7425
  5036   0033B6  51B6               	movf	??_floorf& (0+255),w,b
  5037   0033B8  11B7               	iorwf	(??_floorf+1)& (0+255),w,b
  5038   0033BA  11B8               	iorwf	(??_floorf+2)& (0+255),w,b
  5039   0033BC  11B9               	iorwf	(??_floorf+3)& (0+255),w,b
  5040   0033BE  B4D8               	btfsc	status,2,c
  5041   0033C0  EFE4  F019         	goto	u7431
  5042   0033C4  EFE6  F019         	goto	u7430
  5043   0033C8                     u7431:
  5044   0033C8  EFEE  F019         	goto	l1227
  5045   0033CC                     u7430:
  5046   0033CC                     
  5047                           ; BSR set to: 0
  5048   0033CC  51BC               	movf	floorf@m& (0+255),w,b
  5049   0033CE  27C2               	addwf	floorf@u& (0+255),f,b
  5050   0033D0  51BD               	movf	(floorf@m+1)& (0+255),w,b
  5051   0033D2  23C3               	addwfc	(floorf@u+1)& (0+255),f,b
  5052   0033D4  51BE               	movf	(floorf@m+2)& (0+255),w,b
  5053   0033D6  23C4               	addwfc	(floorf@u+2)& (0+255),f,b
  5054   0033D8  51BF               	movf	(floorf@m+3)& (0+255),w,b
  5055   0033DA  23C5               	addwfc	(floorf@u+3)& (0+255),f,b
  5056   0033DC                     l1227:
  5057                           
  5058                           ; BSR set to: 0
  5059   0033DC  1DBC               	comf	floorf@m& (0+255),w,b
  5060   0033DE  6FB6               	movwf	??_floorf& (0+255),b
  5061   0033E0  1DBD               	comf	(floorf@m+1)& (0+255),w,b
  5062   0033E2  6FB7               	movwf	(??_floorf+1)& (0+255),b
  5063   0033E4  1DBE               	comf	(floorf@m+2)& (0+255),w,b
  5064   0033E6  6FB8               	movwf	(??_floorf+2)& (0+255),b
  5065   0033E8  1DBF               	comf	(floorf@m+3)& (0+255),w,b
  5066   0033EA  6FB9               	movwf	(??_floorf+3)& (0+255),b
  5067   0033EC  51B6               	movf	??_floorf& (0+255),w,b
  5068   0033EE  17C2               	andwf	floorf@u& (0+255),f,b
  5069   0033F0  51B7               	movf	(??_floorf+1)& (0+255),w,b
  5070   0033F2  17C3               	andwf	(floorf@u+1)& (0+255),f,b
  5071   0033F4  51B8               	movf	(??_floorf+2)& (0+255),w,b
  5072   0033F6  17C4               	andwf	(floorf@u+2)& (0+255),f,b
  5073   0033F8  51B9               	movf	(??_floorf+3)& (0+255),w,b
  5074   0033FA  17C5               	andwf	(floorf@u+3)& (0+255),f,b
  5075   0033FC  EF44  F01A         	goto	l6206
  5076   003400                     l6198:
  5077                           
  5078                           ; BSR set to: 0
  5079   003400  C0C2  F0B6         	movff	floorf@u,??_floorf
  5080   003404  C0C3  F0B7         	movff	floorf@u+1,??_floorf+1
  5081   003408  C0C4  F0B8         	movff	floorf@u+2,??_floorf+2
  5082   00340C  C0C5  F0B9         	movff	floorf@u+3,??_floorf+3
  5083   003410  0E20               	movlw	32
  5084   003412  EF10  F01A         	goto	u7440
  5085   003416                     u7445:
  5086   003416  90D8               	bcf	status,0,c
  5087   003418  33B9               	rrcf	(??_floorf+3)& (0+255),f,b
  5088   00341A  33B8               	rrcf	(??_floorf+2)& (0+255),f,b
  5089   00341C  33B7               	rrcf	(??_floorf+1)& (0+255),f,b
  5090   00341E  33B6               	rrcf	??_floorf& (0+255),f,b
  5091   003420                     u7440:
  5092   003420  2EE8               	decfsz	wreg,f,c
  5093   003422  EF0B  F01A         	goto	u7445
  5094   003426  51B6               	movf	??_floorf& (0+255),w,b
  5095   003428  11B7               	iorwf	(??_floorf+1)& (0+255),w,b
  5096   00342A  11B8               	iorwf	(??_floorf+2)& (0+255),w,b
  5097   00342C  11B9               	iorwf	(??_floorf+3)& (0+255),w,b
  5098   00342E  A4D8               	btfss	status,2,c
  5099   003430  EF1C  F01A         	goto	u7451
  5100   003434  EF1E  F01A         	goto	u7450
  5101   003438                     u7451:
  5102   003438  EF28  F01A         	goto	l6202
  5103   00343C                     u7450:
  5104   00343C                     
  5105                           ; BSR set to: 0
  5106   00343C  0E00               	movlw	0
  5107   00343E  6FC2               	movwf	floorf@u& (0+255),b
  5108   003440  0E00               	movlw	0
  5109   003442  6FC3               	movwf	(floorf@u+1)& (0+255),b
  5110   003444  0E00               	movlw	0
  5111   003446  6FC4               	movwf	(floorf@u+2)& (0+255),b
  5112   003448  0E00               	movlw	0
  5113   00344A  6FC5               	movwf	(floorf@u+3)& (0+255),b
  5114   00344C  EF44  F01A         	goto	l6206
  5115   003450                     l6202:
  5116                           
  5117                           ; BSR set to: 0
  5118   003450  90D8               	bcf	status,0,c
  5119   003452  35C2               	rlcf	floorf@u& (0+255),w,b
  5120   003454  6FB6               	movwf	??_floorf& (0+255),b
  5121   003456  35C3               	rlcf	(floorf@u+1)& (0+255),w,b
  5122   003458  6FB7               	movwf	(??_floorf+1)& (0+255),b
  5123   00345A  35C4               	rlcf	(floorf@u+2)& (0+255),w,b
  5124   00345C  6FB8               	movwf	(??_floorf+2)& (0+255),b
  5125   00345E  35C5               	rlcf	(floorf@u+3)& (0+255),w,b
  5126   003460  6FB9               	movwf	(??_floorf+3)& (0+255),b
  5127   003462  51B6               	movf	??_floorf& (0+255),w,b
  5128   003464  11B7               	iorwf	(??_floorf+1)& (0+255),w,b
  5129   003466  11B8               	iorwf	(??_floorf+2)& (0+255),w,b
  5130   003468  11B9               	iorwf	(??_floorf+3)& (0+255),w,b
  5131   00346A  B4D8               	btfsc	status,2,c
  5132   00346C  EF3A  F01A         	goto	u7461
  5133   003470  EF3C  F01A         	goto	u7460
  5134   003474                     u7461:
  5135   003474  EF44  F01A         	goto	l6206
  5136   003478                     u7460:
  5137   003478                     
  5138                           ; BSR set to: 0
  5139   003478  0E00               	movlw	0
  5140   00347A  6FC2               	movwf	floorf@u& (0+255),b
  5141   00347C  0E00               	movlw	0
  5142   00347E  6FC3               	movwf	(floorf@u+1)& (0+255),b
  5143   003480  0E80               	movlw	128
  5144   003482  6FC4               	movwf	(floorf@u+2)& (0+255),b
  5145   003484  0EBF               	movlw	191
  5146   003486  6FC5               	movwf	(floorf@u+3)& (0+255),b
  5147   003488                     l6206:
  5148                           
  5149                           ; BSR set to: 0
  5150   003488  C0C2  F0B2         	movff	floorf@u,?_floorf
  5151   00348C  C0C3  F0B3         	movff	floorf@u+1,?_floorf+1
  5152   003490  C0C4  F0B4         	movff	floorf@u+2,?_floorf+2
  5153   003494  C0C5  F0B5         	movff	floorf@u+3,?_floorf+3
  5154   003498                     l1224:
  5155                           
  5156                           ; BSR set to: 0
  5157   003498  0012               	return		;funcret
  5158   00349A                     __end_of_floorf:
  5159                           	callstack 0
  5160                           
  5161 ;; *************** function ___fpclassifyf *****************
  5162 ;; Defined at:
  5163 ;;		line 4 in file "C:\Program Files\Microchip\xc8\v2.41\pic\sources\c99\common\__fpclassifyf.c"
  5164 ;; Parameters:    Size  Location     Type
  5165 ;;  x               4   37[COMRAM] float 
  5166 ;; Auto vars:     Size  Location     Type
  5167 ;;  u               4   47[COMRAM] struct .
  5168 ;;  e               2   45[COMRAM] int 
  5169 ;; Return value:  Size  Location     Type
  5170 ;;                  2   37[COMRAM] int 
  5171 ;; Registers used:
  5172 ;;		wreg, status,2, status,0
  5173 ;; Tracked objects:
  5174 ;;		On entry : 0/0
  5175 ;;		On exit  : 0/0
  5176 ;;		Unchanged: 0/0
  5177 ;; Data sizes:     COMRAM   BANK0   BANK1   BANK2   BANK3   BANK4   BANK5   BANK6   BANK7   BANK8   BANK9  BANK10  BANK1
      +1  BANK12  BANK13  BANK14  BANK15
  5178 ;;      Params:         4       0       0       0       0       0       0       0       0       0       0       0       
      +0       0       0       0       0
  5179 ;;      Locals:         6       0       0       0       0       0       0       0       0       0       0       0       
      +0       0       0       0       0
  5180 ;;      Temps:          4       0       0       0       0       0       0       0       0       0       0       0       
      +0       0       0       0       0
  5181 ;;      Totals:        14       0       0       0       0       0       0       0       0       0       0       0       
      +0       0       0       0       0
  5182 ;;Total ram usage:       14 bytes
  5183 ;; Hardware stack levels used: 1
  5184 ;; Hardware stack levels required when called: 3
  5185 ;; This function calls:
  5186 ;;		Nothing
  5187 ;; This function is called by:
  5188 ;;		_efgtoa
  5189 ;; This function uses a non-reentrant model
  5190 ;;
  5191                           
  5192                           	psect	text14
  5193   003E48                     __ptext14:
  5194                           	callstack 0
  5195   003E48                     ___fpclassifyf:
  5196                           	callstack 23
  5197   003E48  C034  F030         	movff	___fpclassifyf@F465,___fpclassifyf@u
  5198   003E4C  C035  F031         	movff	___fpclassifyf@F465+1,___fpclassifyf@u+1
  5199   003E50  C036  F032         	movff	___fpclassifyf@F465+2,___fpclassifyf@u+2
  5200   003E54  C037  F033         	movff	___fpclassifyf@F465+3,___fpclassifyf@u+3
  5201   003E58  C026  F030         	movff	___fpclassifyf@x,___fpclassifyf@u
  5202   003E5C  C027  F031         	movff	___fpclassifyf@x+1,___fpclassifyf@u+1
  5203   003E60  C028  F032         	movff	___fpclassifyf@x+2,___fpclassifyf@u+2
  5204   003E64  C029  F033         	movff	___fpclassifyf@x+3,___fpclassifyf@u+3
  5205   003E68  C030  F02A         	movff	___fpclassifyf@u,??___fpclassifyf
  5206   003E6C  C031  F02B         	movff	___fpclassifyf@u+1,??___fpclassifyf+1
  5207   003E70  C032  F02C         	movff	___fpclassifyf@u+2,??___fpclassifyf+2
  5208   003E74  C033  F02D         	movff	___fpclassifyf@u+3,??___fpclassifyf+3
  5209   003E78  0E18               	movlw	24
  5210   003E7A  EF44  F01F         	goto	u7280
  5211   003E7E                     u7285:
  5212   003E7E  90D8               	bcf	status,0,c
  5213   003E80  322D               	rrcf	(??___fpclassifyf+3)^0,f,c
  5214   003E82  322C               	rrcf	(??___fpclassifyf+2)^0,f,c
  5215   003E84  322B               	rrcf	(??___fpclassifyf+1)^0,f,c
  5216   003E86  322A               	rrcf	??___fpclassifyf^0,f,c
  5217   003E88                     u7280:
  5218   003E88  2EE8               	decfsz	wreg,f,c
  5219   003E8A  EF3F  F01F         	goto	u7285
  5220   003E8E  502A               	movf	??___fpclassifyf^0,w,c
  5221   003E90  6E2E               	movwf	___fpclassifyf@e^0,c
  5222   003E92  6A2F               	clrf	(___fpclassifyf@e+1)^0,c
  5223   003E94  502E               	movf	___fpclassifyf@e^0,w,c
  5224   003E96  102F               	iorwf	(___fpclassifyf@e+1)^0,w,c
  5225   003E98  A4D8               	btfss	status,2,c
  5226   003E9A  EF51  F01F         	goto	u7291
  5227   003E9E  EF53  F01F         	goto	u7290
  5228   003EA2                     u7291:
  5229   003EA2  EF73  F01F         	goto	l6164
  5230   003EA6                     u7290:
  5231   003EA6  90D8               	bcf	status,0,c
  5232   003EA8  3430               	rlcf	___fpclassifyf@u^0,w,c
  5233   003EAA  6E2A               	movwf	??___fpclassifyf^0,c
  5234   003EAC  3431               	rlcf	(___fpclassifyf@u+1)^0,w,c
  5235   003EAE  6E2B               	movwf	(??___fpclassifyf+1)^0,c
  5236   003EB0  3432               	rlcf	(___fpclassifyf@u+2)^0,w,c
  5237   003EB2  6E2C               	movwf	(??___fpclassifyf+2)^0,c
  5238   003EB4  3433               	rlcf	(___fpclassifyf@u+3)^0,w,c
  5239   003EB6  6E2D               	movwf	(??___fpclassifyf+3)^0,c
  5240   003EB8  502A               	movf	??___fpclassifyf^0,w,c
  5241   003EBA  102B               	iorwf	(??___fpclassifyf+1)^0,w,c
  5242   003EBC  102C               	iorwf	(??___fpclassifyf+2)^0,w,c
  5243   003EBE  102D               	iorwf	(??___fpclassifyf+3)^0,w,c
  5244   003EC0  A4D8               	btfss	status,2,c
  5245   003EC2  EF65  F01F         	goto	u7301
  5246   003EC6  EF67  F01F         	goto	u7300
  5247   003ECA                     u7301:
  5248   003ECA  EF6D  F01F         	goto	l6160
  5249   003ECE                     u7300:
  5250   003ECE  0E00               	movlw	0
  5251   003ED0  6E27               	movwf	(?___fpclassifyf+1)^0,c
  5252   003ED2  0E02               	movlw	2
  5253   003ED4  6E26               	movwf	?___fpclassifyf^0,c
  5254   003ED6  EFA2  F01F         	goto	l1210
  5255   003EDA                     l6160:
  5256   003EDA  0E00               	movlw	0
  5257   003EDC  6E27               	movwf	(?___fpclassifyf+1)^0,c
  5258   003EDE  0E03               	movlw	3
  5259   003EE0  6E26               	movwf	?___fpclassifyf^0,c
  5260   003EE2  EFA2  F01F         	goto	l1210
  5261   003EE6                     l6164:
  5262   003EE6  282E               	incf	___fpclassifyf@e^0,w,c
  5263   003EE8  102F               	iorwf	(___fpclassifyf@e+1)^0,w,c
  5264   003EEA  A4D8               	btfss	status,2,c
  5265   003EEC  EF7A  F01F         	goto	u7311
  5266   003EF0  EF7C  F01F         	goto	u7310
  5267   003EF4                     u7311:
  5268   003EF4  EF9E  F01F         	goto	l6170
  5269   003EF8                     u7310:
  5270   003EF8  C030  F02A         	movff	___fpclassifyf@u,??___fpclassifyf
  5271   003EFC  C031  F02B         	movff	___fpclassifyf@u+1,??___fpclassifyf+1
  5272   003F00  C032  F02C         	movff	___fpclassifyf@u+2,??___fpclassifyf+2
  5273   003F04  C033  F02D         	movff	___fpclassifyf@u+3,??___fpclassifyf+3
  5274   003F08  0E09               	movlw	9
  5275   003F0A                     u7325:
  5276   003F0A  90D8               	bcf	status,0,c
  5277   003F0C  362A               	rlcf	??___fpclassifyf^0,f,c
  5278   003F0E  362B               	rlcf	(??___fpclassifyf+1)^0,f,c
  5279   003F10  362C               	rlcf	(??___fpclassifyf+2)^0,f,c
  5280   003F12  362D               	rlcf	(??___fpclassifyf+3)^0,f,c
  5281   003F14  2EE8               	decfsz	wreg,f,c
  5282   003F16  EF85  F01F         	goto	u7325
  5283   003F1A  502A               	movf	??___fpclassifyf^0,w,c
  5284   003F1C  102B               	iorwf	(??___fpclassifyf+1)^0,w,c
  5285   003F1E  102C               	iorwf	(??___fpclassifyf+2)^0,w,c
  5286   003F20  102D               	iorwf	(??___fpclassifyf+3)^0,w,c
  5287   003F22  B4D8               	btfsc	status,2,c
  5288   003F24  EF96  F01F         	goto	u7331
  5289   003F28  EF99  F01F         	goto	u7330
  5290   003F2C                     u7331:
  5291   003F2C  0E01               	movlw	1
  5292   003F2E  EF9A  F01F         	goto	u7340
  5293   003F32                     u7330:
  5294   003F32  0E00               	movlw	0
  5295   003F34                     u7340:
  5296   003F34  6E26               	movwf	?___fpclassifyf^0,c
  5297   003F36  6A27               	clrf	(?___fpclassifyf+1)^0,c
  5298   003F38  EFA2  F01F         	goto	l1210
  5299   003F3C                     l6170:
  5300   003F3C  0E00               	movlw	0
  5301   003F3E  6E27               	movwf	(?___fpclassifyf+1)^0,c
  5302   003F40  0E04               	movlw	4
  5303   003F42  6E26               	movwf	?___fpclassifyf^0,c
  5304   003F44                     l1210:
  5305   003F44  0012               	return		;funcret
  5306   003F46                     __end_of___fpclassifyf:
  5307                           	callstack 0
  5308                           
  5309 ;; *************** function ___fltol *****************
  5310 ;; Defined at:
  5311 ;;		line 43 in file "C:\Program Files\Microchip\xc8\v2.41\pic\sources\c99\common\fltol.c"
  5312 ;; Parameters:    Size  Location     Type
  5313 ;;  f1              4   37[COMRAM] int 
  5314 ;; Auto vars:     Size  Location     Type
  5315 ;;  exp1            1   46[COMRAM] unsigned char 
  5316 ;;  sign1           1   45[COMRAM] unsigned char 
  5317 ;; Return value:  Size  Location     Type
  5318 ;;                  4   37[COMRAM] long 
  5319 ;; Registers used:
  5320 ;;		wreg, status,2, status,0
  5321 ;; Tracked objects:
  5322 ;;		On entry : 0/0
  5323 ;;		On exit  : 0/0
  5324 ;;		Unchanged: 0/0
  5325 ;; Data sizes:     COMRAM   BANK0   BANK1   BANK2   BANK3   BANK4   BANK5   BANK6   BANK7   BANK8   BANK9  BANK10  BANK1
      +1  BANK12  BANK13  BANK14  BANK15
  5326 ;;      Params:         4       0       0       0       0       0       0       0       0       0       0       0       
      +0       0       0       0       0
  5327 ;;      Locals:         2       0       0       0       0       0       0       0       0       0       0       0       
      +0       0       0       0       0
  5328 ;;      Temps:          4       0       0       0       0       0       0       0       0       0       0       0       
      +0       0       0       0       0
  5329 ;;      Totals:        10       0       0       0       0       0       0       0       0       0       0       0       
      +0       0       0       0       0
  5330 ;;Total ram usage:       10 bytes
  5331 ;; Hardware stack levels used: 1
  5332 ;; Hardware stack levels required when called: 3
  5333 ;; This function calls:
  5334 ;;		Nothing
  5335 ;; This function is called by:
  5336 ;;		_efgtoa
  5337 ;; This function uses a non-reentrant model
  5338 ;;
  5339                           
  5340                           	psect	text15
  5341   003B38                     __ptext15:
  5342                           	callstack 0
  5343   003B38                     ___fltol:
  5344                           	callstack 23
  5345   003B38  3428               	rlcf	(___fltol@f1+2)^0,w,c
  5346   003B3A  3429               	rlcf	(___fltol@f1+3)^0,w,c
  5347   003B3C  6E2F               	movwf	___fltol@exp1^0,c
  5348   003B3E  502F               	movf	___fltol@exp1^0,w,c
  5349   003B40  A4D8               	btfss	status,2,c
  5350   003B42  EFA5  F01D         	goto	u7161
  5351   003B46  EFA7  F01D         	goto	u7160
  5352   003B4A                     u7161:
  5353   003B4A  EFB1  F01D         	goto	l6092
  5354   003B4E                     u7160:
  5355   003B4E                     l6088:
  5356   003B4E  0E00               	movlw	0
  5357   003B50  6E26               	movwf	?___fltol^0,c
  5358   003B52  0E00               	movlw	0
  5359   003B54  6E27               	movwf	(?___fltol+1)^0,c
  5360   003B56  0E00               	movlw	0
  5361   003B58  6E28               	movwf	(?___fltol+2)^0,c
  5362   003B5A  0E00               	movlw	0
  5363   003B5C  6E29               	movwf	(?___fltol+3)^0,c
  5364   003B5E  EF1E  F01E         	goto	l637
  5365   003B62                     l6092:
  5366   003B62  C026  F02A         	movff	___fltol@f1,??___fltol
  5367   003B66  C027  F02B         	movff	___fltol@f1+1,??___fltol+1
  5368   003B6A  C028  F02C         	movff	___fltol@f1+2,??___fltol+2
  5369   003B6E  C029  F02D         	movff	___fltol@f1+3,??___fltol+3
  5370   003B72  0E20               	movlw	32
  5371   003B74  EFC1  F01D         	goto	u7170
  5372   003B78                     u7175:
  5373   003B78  90D8               	bcf	status,0,c
  5374   003B7A  322D               	rrcf	(??___fltol+3)^0,f,c
  5375   003B7C  322C               	rrcf	(??___fltol+2)^0,f,c
  5376   003B7E  322B               	rrcf	(??___fltol+1)^0,f,c
  5377   003B80  322A               	rrcf	??___fltol^0,f,c
  5378   003B82                     u7170:
  5379   003B82  2EE8               	decfsz	wreg,f,c
  5380   003B84  EFBC  F01D         	goto	u7175
  5381   003B88  502A               	movf	??___fltol^0,w,c
  5382   003B8A  6E2E               	movwf	___fltol@sign1^0,c
  5383   003B8C  8E28               	bsf	(___fltol@f1+2)^0,7,c
  5384   003B8E  0EFF               	movlw	255
  5385   003B90  1626               	andwf	___fltol@f1^0,f,c
  5386   003B92  0EFF               	movlw	255
  5387   003B94  1627               	andwf	(___fltol@f1+1)^0,f,c
  5388   003B96  0EFF               	movlw	255
  5389   003B98  1628               	andwf	(___fltol@f1+2)^0,f,c
  5390   003B9A  0E00               	movlw	0
  5391   003B9C  1629               	andwf	(___fltol@f1+3)^0,f,c
  5392   003B9E  0E96               	movlw	150
  5393   003BA0  5E2F               	subwf	___fltol@exp1^0,f,c
  5394   003BA2  BE2F               	btfsc	___fltol@exp1^0,7,c
  5395   003BA4  EFD8  F01D         	goto	u7180
  5396   003BA8  EFD6  F01D         	goto	u7181
  5397   003BAC                     u7181:
  5398   003BAC  EFEE  F01D         	goto	l6112
  5399   003BB0                     u7180:
  5400   003BB0  502F               	movf	___fltol@exp1^0,w,c
  5401   003BB2  0A80               	xorlw	128
  5402   003BB4  0F97               	addlw	151
  5403   003BB6  B0D8               	btfsc	status,0,c
  5404   003BB8  EFE0  F01D         	goto	u7191
  5405   003BBC  EFE2  F01D         	goto	u7190
  5406   003BC0                     u7191:
  5407   003BC0  EFE4  F01D         	goto	l6108
  5408   003BC4                     u7190:
  5409   003BC4  EFA7  F01D         	goto	l6088
  5410   003BC8                     l6108:
  5411   003BC8  90D8               	bcf	status,0,c
  5412   003BCA  3229               	rrcf	(___fltol@f1+3)^0,f,c
  5413   003BCC  3228               	rrcf	(___fltol@f1+2)^0,f,c
  5414   003BCE  3227               	rrcf	(___fltol@f1+1)^0,f,c
  5415   003BD0  3226               	rrcf	___fltol@f1^0,f,c
  5416   003BD2  3E2F               	incfsz	___fltol@exp1^0,f,c
  5417   003BD4  EFE4  F01D         	goto	l6108
  5418   003BD8  EF06  F01E         	goto	l6122
  5419   003BDC                     l6112:
  5420   003BDC  0E1F               	movlw	31
  5421   003BDE  642F               	cpfsgt	___fltol@exp1^0,c
  5422   003BE0  EFF4  F01D         	goto	u7201
  5423   003BE4  EFF6  F01D         	goto	u7200
  5424   003BE8                     u7201:
  5425   003BE8  EFFE  F01D         	goto	l6120
  5426   003BEC                     u7200:
  5427   003BEC  EFA7  F01D         	goto	l6088
  5428   003BF0                     l6118:
  5429   003BF0  90D8               	bcf	status,0,c
  5430   003BF2  3626               	rlcf	___fltol@f1^0,f,c
  5431   003BF4  3627               	rlcf	(___fltol@f1+1)^0,f,c
  5432   003BF6  3628               	rlcf	(___fltol@f1+2)^0,f,c
  5433   003BF8  3629               	rlcf	(___fltol@f1+3)^0,f,c
  5434   003BFA  062F               	decf	___fltol@exp1^0,f,c
  5435   003BFC                     l6120:
  5436   003BFC  502F               	movf	___fltol@exp1^0,w,c
  5437   003BFE  A4D8               	btfss	status,2,c
  5438   003C00  EF04  F01E         	goto	u7211
  5439   003C04  EF06  F01E         	goto	u7210
  5440   003C08                     u7211:
  5441   003C08  EFF8  F01D         	goto	l6118
  5442   003C0C                     u7210:
  5443   003C0C                     l6122:
  5444   003C0C  502E               	movf	___fltol@sign1^0,w,c
  5445   003C0E  B4D8               	btfsc	status,2,c
  5446   003C10  EF0C  F01E         	goto	u7221
  5447   003C14  EF0E  F01E         	goto	u7220
  5448   003C18                     u7221:
  5449   003C18  EF16  F01E         	goto	l6126
  5450   003C1C                     u7220:
  5451   003C1C  1E29               	comf	(___fltol@f1+3)^0,f,c
  5452   003C1E  1E28               	comf	(___fltol@f1+2)^0,f,c
  5453   003C20  1E27               	comf	(___fltol@f1+1)^0,f,c
  5454   003C22  6C26               	negf	___fltol@f1^0,c
  5455   003C24  0E00               	movlw	0
  5456   003C26  2227               	addwfc	(___fltol@f1+1)^0,f,c
  5457   003C28  2228               	addwfc	(___fltol@f1+2)^0,f,c
  5458   003C2A  2229               	addwfc	(___fltol@f1+3)^0,f,c
  5459   003C2C                     l6126:
  5460   003C2C  C026  F026         	movff	___fltol@f1,?___fltol
  5461   003C30  C027  F027         	movff	___fltol@f1+1,?___fltol+1
  5462   003C34  C028  F028         	movff	___fltol@f1+2,?___fltol+2
  5463   003C38  C029  F029         	movff	___fltol@f1+3,?___fltol+3
  5464   003C3C                     l637:
  5465   003C3C  0012               	return		;funcret
  5466   003C3E                     __end_of___fltol:
  5467                           	callstack 0
  5468                           
  5469 ;; *************** function ___flsub *****************
  5470 ;; Defined at:
  5471 ;;		line 245 in file "C:\Program Files\Microchip\xc8\v2.41\pic\sources\c99\common\sprcadd.c"
  5472 ;; Parameters:    Size  Location     Type
  5473 ;;  b               4   25[BANK0 ] long 
  5474 ;;  a               4   29[BANK0 ] long 
  5475 ;; Auto vars:     Size  Location     Type
  5476 ;;		None
  5477 ;; Return value:  Size  Location     Type
  5478 ;;                  4   25[BANK0 ] long 
  5479 ;; Registers used:
  5480 ;;		wreg, status,2, status,0, cstack
  5481 ;; Tracked objects:
  5482 ;;		On entry : 0/0
  5483 ;;		On exit  : 0/0
  5484 ;;		Unchanged: 0/0
  5485 ;; Data sizes:     COMRAM   BANK0   BANK1   BANK2   BANK3   BANK4   BANK5   BANK6   BANK7   BANK8   BANK9  BANK10  BANK1
      +1  BANK12  BANK13  BANK14  BANK15
  5486 ;;      Params:         0       8       0       0       0       0       0       0       0       0       0       0       
      +0       0       0       0       0
  5487 ;;      Locals:         0       0       0       0       0       0       0       0       0       0       0       0       
      +0       0       0       0       0
  5488 ;;      Temps:          0       0       0       0       0       0       0       0       0       0       0       0       
      +0       0       0       0       0
  5489 ;;      Totals:         0       8       0       0       0       0       0       0       0       0       0       0       
      +0       0       0       0       0
  5490 ;;Total ram usage:        8 bytes
  5491 ;; Hardware stack levels used: 1
  5492 ;; Hardware stack levels required when called: 4
  5493 ;; This function calls:
  5494 ;;		___fladd
  5495 ;; This function is called by:
  5496 ;;		_main
  5497 ;;		_efgtoa
  5498 ;; This function uses a non-reentrant model
  5499 ;;
  5500                           
  5501                           	psect	text16
  5502   004B46                     __ptext16:
  5503                           	callstack 0
  5504   004B46                     ___flsub:
  5505                           	callstack 22
  5506   004B46  0E00               	movlw	0
  5507   004B48  0100               	movlb	0	; () banked
  5508   004B4A  1B9D               	xorwf	___flsub@a& (0+255),f,b
  5509   004B4C  0E00               	movlw	0
  5510   004B4E  1B9E               	xorwf	(___flsub@a+1)& (0+255),f,b
  5511   004B50  0E00               	movlw	0
  5512   004B52  1B9F               	xorwf	(___flsub@a+2)& (0+255),f,b
  5513   004B54  0E80               	movlw	128
  5514   004B56  1BA0               	xorwf	(___flsub@a+3)& (0+255),f,b
  5515   004B58                     
  5516                           ; BSR set to: 0
  5517   004B58  C099  F026         	movff	___flsub@b,___fladd@b
  5518   004B5C  C09A  F027         	movff	___flsub@b+1,___fladd@b+1
  5519   004B60  C09B  F028         	movff	___flsub@b+2,___fladd@b+2
  5520   004B64  C09C  F029         	movff	___flsub@b+3,___fladd@b+3
  5521   004B68  C09D  F02A         	movff	___flsub@a,___fladd@a
  5522   004B6C  C09E  F02B         	movff	___flsub@a+1,___fladd@a+1
  5523   004B70  C09F  F02C         	movff	___flsub@a+2,___fladd@a+2
  5524   004B74  C0A0  F02D         	movff	___flsub@a+3,___fladd@a+3
  5525   004B78  EC40  F00D         	call	___fladd	;wreg free
  5526   004B7C  C026  F099         	movff	?___fladd,?___flsub
  5527   004B80  C027  F09A         	movff	?___fladd+1,?___flsub+1
  5528   004B84  C028  F09B         	movff	?___fladd+2,?___flsub+2
  5529   004B88  C029  F09C         	movff	?___fladd+3,?___flsub+3
  5530   004B8C  0012               	return		;funcret
  5531   004B8E                     __end_of___flsub:
  5532                           	callstack 0
  5533                           
  5534 ;; *************** function ___fladd *****************
  5535 ;; Defined at:
  5536 ;;		line 10 in file "C:\Program Files\Microchip\xc8\v2.41\pic\sources\c99\common\sprcadd.c"
  5537 ;; Parameters:    Size  Location     Type
  5538 ;;  b               4   37[COMRAM] long 
  5539 ;;  a               4   41[COMRAM] long 
  5540 ;; Auto vars:     Size  Location     Type
  5541 ;;  grs             1    3[BANK0 ] unsigned char 
  5542 ;;  bexp            1    2[BANK0 ] unsigned char 
  5543 ;;  aexp            1    1[BANK0 ] unsigned char 
  5544 ;;  signs           1    0[BANK0 ] unsigned char 
  5545 ;; Return value:  Size  Location     Type
  5546 ;;                  4   37[COMRAM] unsigned char 
  5547 ;; Registers used:
  5548 ;;		wreg, status,2, status,0
  5549 ;; Tracked objects:
  5550 ;;		On entry : 0/0
  5551 ;;		On exit  : 0/0
  5552 ;;		Unchanged: 0/0
  5553 ;; Data sizes:     COMRAM   BANK0   BANK1   BANK2   BANK3   BANK4   BANK5   BANK6   BANK7   BANK8   BANK9  BANK10  BANK1
      +1  BANK12  BANK13  BANK14  BANK15
  5554 ;;      Params:         8       0       0       0       0       0       0       0       0       0       0       0       
      +0       0       0       0       0
  5555 ;;      Locals:         0       4       0       0       0       0       0       0       0       0       0       0       
      +0       0       0       0       0
  5556 ;;      Temps:          4       0       0       0       0       0       0       0       0       0       0       0       
      +0       0       0       0       0
  5557 ;;      Totals:        12       4       0       0       0       0       0       0       0       0       0       0       
      +0       0       0       0       0
  5558 ;;Total ram usage:       16 bytes
  5559 ;; Hardware stack levels used: 1
  5560 ;; Hardware stack levels required when called: 3
  5561 ;; This function calls:
  5562 ;;		Nothing
  5563 ;; This function is called by:
  5564 ;;		_main
  5565 ;;		___flsub
  5566 ;;		_efgtoa
  5567 ;; This function uses a non-reentrant model
  5568 ;;
  5569                           
  5570                           	psect	text17
  5571   001A80                     __ptext17:
  5572                           	callstack 0
  5573   001A80                     ___fladd:
  5574                           	callstack 22
  5575   001A80  5029               	movf	(___fladd@b+3)^0,w,c
  5576   001A82  0B80               	andlw	128
  5577   001A84  0100               	movlb	0	; () banked
  5578   001A86  6F80               	movwf	___fladd@signs& (0+255),b
  5579   001A88  5029               	movf	(___fladd@b+3)^0,w,c
  5580   001A8A  2429               	addwf	(___fladd@b+3)^0,w,c
  5581   001A8C  6F82               	movwf	___fladd@bexp& (0+255),b
  5582   001A8E                     
  5583                           ; BSR set to: 0
  5584   001A8E  AE28               	btfss	(___fladd@b+2)^0,7,c
  5585   001A90  EF4C  F00D         	goto	u6121
  5586   001A94  EF4E  F00D         	goto	u6120
  5587   001A98                     u6121:
  5588   001A98  EF4F  F00D         	goto	l5460
  5589   001A9C                     u6120:
  5590   001A9C                     
  5591                           ; BSR set to: 0
  5592   001A9C  8182               	bsf	___fladd@bexp& (0+255),0,b
  5593   001A9E                     l5460:
  5594                           
  5595                           ; BSR set to: 0
  5596   001A9E  5182               	movf	___fladd@bexp& (0+255),w,b
  5597   001AA0  B4D8               	btfsc	status,2,c
  5598   001AA2  EF55  F00D         	goto	u6131
  5599   001AA6  EF57  F00D         	goto	u6130
  5600   001AAA                     u6131:
  5601   001AAA  EF6C  F00D         	goto	l5470
  5602   001AAE                     u6130:
  5603   001AAE                     
  5604                           ; BSR set to: 0
  5605   001AAE  2982               	incf	___fladd@bexp& (0+255),w,b
  5606   001AB0  A4D8               	btfss	status,2,c
  5607   001AB2  EF5D  F00D         	goto	u6141
  5608   001AB6  EF5F  F00D         	goto	u6140
  5609   001ABA                     u6141:
  5610   001ABA  EF67  F00D         	goto	l5466
  5611   001ABE                     u6140:
  5612   001ABE                     
  5613                           ; BSR set to: 0
  5614   001ABE  0E00               	movlw	0
  5615   001AC0  6E26               	movwf	___fladd@b^0,c
  5616   001AC2  0E00               	movlw	0
  5617   001AC4  6E27               	movwf	(___fladd@b+1)^0,c
  5618   001AC6  0E00               	movlw	0
  5619   001AC8  6E28               	movwf	(___fladd@b+2)^0,c
  5620   001ACA  0E00               	movlw	0
  5621   001ACC  6E29               	movwf	(___fladd@b+3)^0,c
  5622   001ACE                     l5466:
  5623                           
  5624                           ; BSR set to: 0
  5625   001ACE  8E28               	bsf	(___fladd@b+2)^0,7,c
  5626   001AD0                     
  5627                           ; BSR set to: 0
  5628   001AD0  0E00               	movlw	0
  5629   001AD2  6E29               	movwf	(___fladd@b+3)^0,c
  5630   001AD4  EF74  F00D         	goto	l5472
  5631   001AD8                     l5470:
  5632                           
  5633                           ; BSR set to: 0
  5634   001AD8  0E00               	movlw	0
  5635   001ADA  6E26               	movwf	___fladd@b^0,c
  5636   001ADC  0E00               	movlw	0
  5637   001ADE  6E27               	movwf	(___fladd@b+1)^0,c
  5638   001AE0  0E00               	movlw	0
  5639   001AE2  6E28               	movwf	(___fladd@b+2)^0,c
  5640   001AE4  0E00               	movlw	0
  5641   001AE6  6E29               	movwf	(___fladd@b+3)^0,c
  5642   001AE8                     l5472:
  5643                           
  5644                           ; BSR set to: 0
  5645   001AE8  502D               	movf	(___fladd@a+3)^0,w,c
  5646   001AEA  0B80               	andlw	128
  5647   001AEC  6F81               	movwf	___fladd@aexp& (0+255),b
  5648   001AEE                     
  5649                           ; BSR set to: 0
  5650   001AEE  5180               	movf	___fladd@signs& (0+255),w,b
  5651   001AF0  1981               	xorwf	___fladd@aexp& (0+255),w,b
  5652   001AF2  B4D8               	btfsc	status,2,c
  5653   001AF4  EF7E  F00D         	goto	u6151
  5654   001AF8  EF80  F00D         	goto	u6150
  5655   001AFC                     u6151:
  5656   001AFC  EF81  F00D         	goto	l5478
  5657   001B00                     u6150:
  5658   001B00                     
  5659                           ; BSR set to: 0
  5660   001B00  8D80               	bsf	___fladd@signs& (0+255),6,b
  5661   001B02                     l5478:
  5662                           
  5663                           ; BSR set to: 0
  5664   001B02  502D               	movf	(___fladd@a+3)^0,w,c
  5665   001B04  242D               	addwf	(___fladd@a+3)^0,w,c
  5666   001B06  6F81               	movwf	___fladd@aexp& (0+255),b
  5667   001B08                     
  5668                           ; BSR set to: 0
  5669   001B08  AE2C               	btfss	(___fladd@a+2)^0,7,c
  5670   001B0A  EF89  F00D         	goto	u6161
  5671   001B0E  EF8B  F00D         	goto	u6160
  5672   001B12                     u6161:
  5673   001B12  EF8C  F00D         	goto	l5484
  5674   001B16                     u6160:
  5675   001B16                     
  5676                           ; BSR set to: 0
  5677   001B16  8181               	bsf	___fladd@aexp& (0+255),0,b
  5678   001B18                     l5484:
  5679                           
  5680                           ; BSR set to: 0
  5681   001B18  5181               	movf	___fladd@aexp& (0+255),w,b
  5682   001B1A  B4D8               	btfsc	status,2,c
  5683   001B1C  EF92  F00D         	goto	u6171
  5684   001B20  EF94  F00D         	goto	u6170
  5685   001B24                     u6171:
  5686   001B24  EFA9  F00D         	goto	l5494
  5687   001B28                     u6170:
  5688   001B28                     
  5689                           ; BSR set to: 0
  5690   001B28  2981               	incf	___fladd@aexp& (0+255),w,b
  5691   001B2A  A4D8               	btfss	status,2,c
  5692   001B2C  EF9A  F00D         	goto	u6181
  5693   001B30  EF9C  F00D         	goto	u6180
  5694   001B34                     u6181:
  5695   001B34  EFA4  F00D         	goto	l5490
  5696   001B38                     u6180:
  5697   001B38                     
  5698                           ; BSR set to: 0
  5699   001B38  0E00               	movlw	0
  5700   001B3A  6E2A               	movwf	___fladd@a^0,c
  5701   001B3C  0E00               	movlw	0
  5702   001B3E  6E2B               	movwf	(___fladd@a+1)^0,c
  5703   001B40  0E00               	movlw	0
  5704   001B42  6E2C               	movwf	(___fladd@a+2)^0,c
  5705   001B44  0E00               	movlw	0
  5706   001B46  6E2D               	movwf	(___fladd@a+3)^0,c
  5707   001B48                     l5490:
  5708                           
  5709                           ; BSR set to: 0
  5710   001B48  8E2C               	bsf	(___fladd@a+2)^0,7,c
  5711   001B4A                     
  5712                           ; BSR set to: 0
  5713   001B4A  0E00               	movlw	0
  5714   001B4C  6E2D               	movwf	(___fladd@a+3)^0,c
  5715   001B4E  EFB1  F00D         	goto	l5496
  5716   001B52                     l5494:
  5717                           
  5718                           ; BSR set to: 0
  5719   001B52  0E00               	movlw	0
  5720   001B54  6E2A               	movwf	___fladd@a^0,c
  5721   001B56  0E00               	movlw	0
  5722   001B58  6E2B               	movwf	(___fladd@a+1)^0,c
  5723   001B5A  0E00               	movlw	0
  5724   001B5C  6E2C               	movwf	(___fladd@a+2)^0,c
  5725   001B5E  0E00               	movlw	0
  5726   001B60  6E2D               	movwf	(___fladd@a+3)^0,c
  5727   001B62                     l5496:
  5728                           
  5729                           ; BSR set to: 0
  5730   001B62  5182               	movf	___fladd@bexp& (0+255),w,b
  5731   001B64  5D81               	subwf	___fladd@aexp& (0+255),w,b
  5732   001B66  B0D8               	btfsc	status,0,c
  5733   001B68  EFB8  F00D         	goto	u6191
  5734   001B6C  EFBA  F00D         	goto	u6190
  5735   001B70                     u6191:
  5736   001B70  EFE1  F00D         	goto	l5532
  5737   001B74                     u6190:
  5738   001B74                     
  5739                           ; BSR set to: 0
  5740   001B74  AD80               	btfss	___fladd@signs& (0+255),6,b
  5741   001B76  EFBF  F00D         	goto	u6201
  5742   001B7A  EFC1  F00D         	goto	u6200
  5743   001B7E                     u6201:
  5744   001B7E  EFC3  F00D         	goto	l5502
  5745   001B82                     u6200:
  5746   001B82                     
  5747                           ; BSR set to: 0
  5748   001B82  0E80               	movlw	128
  5749   001B84  1B80               	xorwf	___fladd@signs& (0+255),f,b
  5750   001B86                     l5502:
  5751                           
  5752                           ; BSR set to: 0
  5753   001B86  C082  F083         	movff	___fladd@bexp,___fladd@grs
  5754   001B8A                     
  5755                           ; BSR set to: 0
  5756   001B8A  C081  F082         	movff	___fladd@aexp,___fladd@bexp
  5757   001B8E                     
  5758                           ; BSR set to: 0
  5759   001B8E  C083  F081         	movff	___fladd@grs,___fladd@aexp
  5760   001B92                     
  5761                           ; BSR set to: 0
  5762   001B92  C026  F083         	movff	___fladd@b,___fladd@grs
  5763   001B96                     
  5764                           ; BSR set to: 0
  5765   001B96  C02A  F026         	movff	___fladd@a,___fladd@b
  5766   001B9A                     
  5767                           ; BSR set to: 0
  5768   001B9A  C083  F02A         	movff	___fladd@grs,___fladd@a
  5769   001B9E                     
  5770                           ; BSR set to: 0
  5771   001B9E  C027  F083         	movff	___fladd@b+1,___fladd@grs
  5772   001BA2                     
  5773                           ; BSR set to: 0
  5774   001BA2  C02B  F027         	movff	___fladd@a+1,___fladd@b+1
  5775   001BA6                     
  5776                           ; BSR set to: 0
  5777   001BA6  C083  F02B         	movff	___fladd@grs,___fladd@a+1
  5778   001BAA                     
  5779                           ; BSR set to: 0
  5780   001BAA  C028  F083         	movff	___fladd@b+2,___fladd@grs
  5781   001BAE                     
  5782                           ; BSR set to: 0
  5783   001BAE  C02C  F028         	movff	___fladd@a+2,___fladd@b+2
  5784   001BB2                     
  5785                           ; BSR set to: 0
  5786   001BB2  C083  F02C         	movff	___fladd@grs,___fladd@a+2
  5787   001BB6                     
  5788                           ; BSR set to: 0
  5789   001BB6  C029  F083         	movff	___fladd@b+3,___fladd@grs
  5790   001BBA                     
  5791                           ; BSR set to: 0
  5792   001BBA  C02D  F029         	movff	___fladd@a+3,___fladd@b+3
  5793   001BBE                     
  5794                           ; BSR set to: 0
  5795   001BBE  C083  F02D         	movff	___fladd@grs,___fladd@a+3
  5796   001BC2                     l5532:
  5797                           
  5798                           ; BSR set to: 0
  5799   001BC2  0E00               	movlw	0
  5800   001BC4  6F83               	movwf	___fladd@grs& (0+255),b
  5801   001BC6                     
  5802                           ; BSR set to: 0
  5803   001BC6  5182               	movf	___fladd@bexp& (0+255),w,b
  5804   001BC8  C081  F02E         	movff	___fladd@aexp,??___fladd
  5805   001BCC  6A2F               	clrf	(??___fladd+1)^0,c
  5806   001BCE  5E2E               	subwf	??___fladd^0,f,c
  5807   001BD0  0E00               	movlw	0
  5808   001BD2  5A2F               	subwfb	(??___fladd+1)^0,f,c
  5809   001BD4  BE2F               	btfsc	(??___fladd+1)^0,7,c
  5810   001BD6  EFF6  F00D         	goto	u6211
  5811   001BDA  502F               	movf	(??___fladd+1)^0,w,c
  5812   001BDC  E109               	bnz	u6210
  5813   001BDE  0E1A               	movlw	26
  5814   001BE0  5C2E               	subwf	??___fladd^0,w,c
  5815   001BE2  A0D8               	btfss	status,0,c
  5816   001BE4  EFF6  F00D         	goto	u6211
  5817   001BE8  EFF8  F00D         	goto	u6210
  5818   001BEC                     u6211:
  5819   001BEC  EF2F  F00E         	goto	l869
  5820   001BF0                     u6210:
  5821   001BF0                     
  5822                           ; BSR set to: 0
  5823   001BF0  5026               	movf	___fladd@b^0,w,c
  5824   001BF2  1027               	iorwf	(___fladd@b+1)^0,w,c
  5825   001BF4  1028               	iorwf	(___fladd@b+2)^0,w,c
  5826   001BF6  1029               	iorwf	(___fladd@b+3)^0,w,c
  5827   001BF8  A4D8               	btfss	status,2,c
  5828   001BFA  EF01  F00E         	goto	u6221
  5829   001BFE  EF04  F00E         	goto	u6220
  5830   001C02                     u6221:
  5831   001C02  0E01               	movlw	1
  5832   001C04  EF05  F00E         	goto	u6230
  5833   001C08                     u6220:
  5834   001C08  0E00               	movlw	0
  5835   001C0A                     u6230:
  5836   001C0A  6F83               	movwf	___fladd@grs& (0+255),b
  5837   001C0C                     
  5838                           ; BSR set to: 0
  5839   001C0C  0E00               	movlw	0
  5840   001C0E  6E26               	movwf	___fladd@b^0,c
  5841   001C10  0E00               	movlw	0
  5842   001C12  6E27               	movwf	(___fladd@b+1)^0,c
  5843   001C14  0E00               	movlw	0
  5844   001C16  6E28               	movwf	(___fladd@b+2)^0,c
  5845   001C18  0E00               	movlw	0
  5846   001C1A  6E29               	movwf	(___fladd@b+3)^0,c
  5847   001C1C                     
  5848                           ; BSR set to: 0
  5849   001C1C  C081  F082         	movff	___fladd@aexp,___fladd@bexp
  5850   001C20  EF38  F00E         	goto	l868
  5851   001C24                     l870:
  5852                           
  5853                           ; BSR set to: 0
  5854   001C24  A183               	btfss	___fladd@grs& (0+255),0,b
  5855   001C26  EF17  F00E         	goto	u6241
  5856   001C2A  EF19  F00E         	goto	u6240
  5857   001C2E                     u6241:
  5858   001C2E  EF1F  F00E         	goto	l5544
  5859   001C32                     u6240:
  5860   001C32                     
  5861                           ; BSR set to: 0
  5862   001C32  90D8               	bcf	status,0,c
  5863   001C34  3183               	rrcf	___fladd@grs& (0+255),w,b
  5864   001C36  0901               	iorlw	1
  5865   001C38  6F83               	movwf	___fladd@grs& (0+255),b
  5866   001C3A  EF21  F00E         	goto	l5546
  5867   001C3E                     l5544:
  5868                           
  5869                           ; BSR set to: 0
  5870   001C3E  90D8               	bcf	status,0,c
  5871   001C40  3383               	rrcf	___fladd@grs& (0+255),f,b
  5872   001C42                     l5546:
  5873                           
  5874                           ; BSR set to: 0
  5875   001C42  A026               	btfss	___fladd@b^0,0,c
  5876   001C44  EF26  F00E         	goto	u6251
  5877   001C48  EF28  F00E         	goto	u6250
  5878   001C4C                     u6251:
  5879   001C4C  EF29  F00E         	goto	l5550
  5880   001C50                     u6250:
  5881   001C50                     
  5882                           ; BSR set to: 0
  5883   001C50  8F83               	bsf	___fladd@grs& (0+255),7,b
  5884   001C52                     l5550:
  5885                           
  5886                           ; BSR set to: 0
  5887   001C52  3429               	rlcf	(___fladd@b+3)^0,w,c
  5888   001C54  3229               	rrcf	(___fladd@b+3)^0,f,c
  5889   001C56  3228               	rrcf	(___fladd@b+2)^0,f,c
  5890   001C58  3227               	rrcf	(___fladd@b+1)^0,f,c
  5891   001C5A  3226               	rrcf	___fladd@b^0,f,c
  5892   001C5C                     
  5893                           ; BSR set to: 0
  5894   001C5C  2B82               	incf	___fladd@bexp& (0+255),f,b
  5895   001C5E                     l869:
  5896                           
  5897                           ; BSR set to: 0
  5898   001C5E  5181               	movf	___fladd@aexp& (0+255),w,b
  5899   001C60  5D82               	subwf	___fladd@bexp& (0+255),w,b
  5900   001C62  A0D8               	btfss	status,0,c
  5901   001C64  EF36  F00E         	goto	u6261
  5902   001C68  EF38  F00E         	goto	u6260
  5903   001C6C                     u6261:
  5904   001C6C  EF12  F00E         	goto	l870
  5905   001C70                     u6260:
  5906   001C70                     l868:
  5907                           
  5908                           ; BSR set to: 0
  5909   001C70  BD80               	btfsc	___fladd@signs& (0+255),6,b
  5910   001C72  EF3D  F00E         	goto	u6271
  5911   001C76  EF3F  F00E         	goto	u6270
  5912   001C7A                     u6271:
  5913   001C7A  EF7F  F00E         	goto	l5578
  5914   001C7E                     u6270:
  5915   001C7E                     
  5916                           ; BSR set to: 0
  5917   001C7E  5182               	movf	___fladd@bexp& (0+255),w,b
  5918   001C80  A4D8               	btfss	status,2,c
  5919   001C82  EF45  F00E         	goto	u6281
  5920   001C86  EF47  F00E         	goto	u6280
  5921   001C8A                     u6281:
  5922   001C8A  EF51  F00E         	goto	l5560
  5923   001C8E                     u6280:
  5924   001C8E                     
  5925                           ; BSR set to: 0
  5926   001C8E  0E00               	movlw	0
  5927   001C90  6E26               	movwf	?___fladd^0,c
  5928   001C92  0E00               	movlw	0
  5929   001C94  6E27               	movwf	(?___fladd+1)^0,c
  5930   001C96  0E00               	movlw	0
  5931   001C98  6E28               	movwf	(?___fladd+2)^0,c
  5932   001C9A  0E00               	movlw	0
  5933   001C9C  6E29               	movwf	(?___fladd+3)^0,c
  5934   001C9E  EFA0  F00F         	goto	l877
  5935   001CA2                     l5560:
  5936                           
  5937                           ; BSR set to: 0
  5938   001CA2  502A               	movf	___fladd@a^0,w,c
  5939   001CA4  2626               	addwf	___fladd@b^0,f,c
  5940   001CA6  502B               	movf	(___fladd@a+1)^0,w,c
  5941   001CA8  2227               	addwfc	(___fladd@b+1)^0,f,c
  5942   001CAA  502C               	movf	(___fladd@a+2)^0,w,c
  5943   001CAC  2228               	addwfc	(___fladd@b+2)^0,f,c
  5944   001CAE  502D               	movf	(___fladd@a+3)^0,w,c
  5945   001CB0  2229               	addwfc	(___fladd@b+3)^0,f,c
  5946   001CB2                     
  5947                           ; BSR set to: 0
  5948   001CB2  A029               	btfss	(___fladd@b+3)^0,0,c
  5949   001CB4  EF5E  F00E         	goto	u6291
  5950   001CB8  EF60  F00E         	goto	u6290
  5951   001CBC                     u6291:
  5952   001CBC  EF0C  F00F         	goto	l5614
  5953   001CC0                     u6290:
  5954   001CC0                     
  5955                           ; BSR set to: 0
  5956   001CC0  A183               	btfss	___fladd@grs& (0+255),0,b
  5957   001CC2  EF65  F00E         	goto	u6301
  5958   001CC6  EF67  F00E         	goto	u6300
  5959   001CCA                     u6301:
  5960   001CCA  EF6D  F00E         	goto	l5568
  5961   001CCE                     u6300:
  5962   001CCE                     
  5963                           ; BSR set to: 0
  5964   001CCE  90D8               	bcf	status,0,c
  5965   001CD0  3183               	rrcf	___fladd@grs& (0+255),w,b
  5966   001CD2  0901               	iorlw	1
  5967   001CD4  6F83               	movwf	___fladd@grs& (0+255),b
  5968   001CD6  EF6F  F00E         	goto	l5570
  5969   001CDA                     l5568:
  5970                           
  5971                           ; BSR set to: 0
  5972   001CDA  90D8               	bcf	status,0,c
  5973   001CDC  3383               	rrcf	___fladd@grs& (0+255),f,b
  5974   001CDE                     l5570:
  5975                           
  5976                           ; BSR set to: 0
  5977   001CDE  A026               	btfss	___fladd@b^0,0,c
  5978   001CE0  EF74  F00E         	goto	u6311
  5979   001CE4  EF76  F00E         	goto	u6310
  5980   001CE8                     u6311:
  5981   001CE8  EF77  F00E         	goto	l5574
  5982   001CEC                     u6310:
  5983   001CEC                     
  5984                           ; BSR set to: 0
  5985   001CEC  8F83               	bsf	___fladd@grs& (0+255),7,b
  5986   001CEE                     l5574:
  5987                           
  5988                           ; BSR set to: 0
  5989   001CEE  3429               	rlcf	(___fladd@b+3)^0,w,c
  5990   001CF0  3229               	rrcf	(___fladd@b+3)^0,f,c
  5991   001CF2  3228               	rrcf	(___fladd@b+2)^0,f,c
  5992   001CF4  3227               	rrcf	(___fladd@b+1)^0,f,c
  5993   001CF6  3226               	rrcf	___fladd@b^0,f,c
  5994   001CF8                     
  5995                           ; BSR set to: 0
  5996   001CF8  2B82               	incf	___fladd@bexp& (0+255),f,b
  5997   001CFA  EF0C  F00F         	goto	l5614
  5998   001CFE                     l5578:
  5999                           
  6000                           ; BSR set to: 0
  6001   001CFE  502A               	movf	___fladd@a^0,w,c
  6002   001D00  5C26               	subwf	___fladd@b^0,w,c
  6003   001D02  502B               	movf	(___fladd@a+1)^0,w,c
  6004   001D04  5827               	subwfb	(___fladd@b+1)^0,w,c
  6005   001D06  502C               	movf	(___fladd@a+2)^0,w,c
  6006   001D08  5828               	subwfb	(___fladd@b+2)^0,w,c
  6007   001D0A  5029               	movf	(___fladd@b+3)^0,w,c
  6008   001D0C  0A80               	xorlw	128
  6009   001D0E  6E2E               	movwf	??___fladd^0,c
  6010   001D10  502D               	movf	(___fladd@a+3)^0,w,c
  6011   001D12  0A80               	xorlw	128
  6012   001D14  582E               	subwfb	??___fladd^0,w,c
  6013   001D16  B0D8               	btfsc	status,0,c
  6014   001D18  EF90  F00E         	goto	u6321
  6015   001D1C  EF92  F00E         	goto	u6320
  6016   001D20                     u6321:
  6017   001D20  EFBD  F00E         	goto	l5588
  6018   001D24                     u6320:
  6019   001D24                     
  6020                           ; BSR set to: 0
  6021   001D24  5026               	movf	___fladd@b^0,w,c
  6022   001D26  5C2A               	subwf	___fladd@a^0,w,c
  6023   001D28  6E2E               	movwf	??___fladd^0,c
  6024   001D2A  5027               	movf	(___fladd@b+1)^0,w,c
  6025   001D2C  582B               	subwfb	(___fladd@a+1)^0,w,c
  6026   001D2E  6E2F               	movwf	(??___fladd+1)^0,c
  6027   001D30  5028               	movf	(___fladd@b+2)^0,w,c
  6028   001D32  582C               	subwfb	(___fladd@a+2)^0,w,c
  6029   001D34  6E30               	movwf	(??___fladd+2)^0,c
  6030   001D36  5029               	movf	(___fladd@b+3)^0,w,c
  6031   001D38  582D               	subwfb	(___fladd@a+3)^0,w,c
  6032   001D3A  6E31               	movwf	(??___fladd+3)^0,c
  6033   001D3C  0EFF               	movlw	255
  6034   001D3E  242E               	addwf	??___fladd^0,w,c
  6035   001D40  6E26               	movwf	___fladd@b^0,c
  6036   001D42  0EFF               	movlw	255
  6037   001D44  202F               	addwfc	(??___fladd+1)^0,w,c
  6038   001D46  6E27               	movwf	(___fladd@b+1)^0,c
  6039   001D48  0EFF               	movlw	255
  6040   001D4A  2030               	addwfc	(??___fladd+2)^0,w,c
  6041   001D4C  6E28               	movwf	(___fladd@b+2)^0,c
  6042   001D4E  0EFF               	movlw	255
  6043   001D50  2031               	addwfc	(??___fladd+3)^0,w,c
  6044   001D52  6E29               	movwf	(___fladd@b+3)^0,c
  6045   001D54  0E80               	movlw	128
  6046   001D56  1B80               	xorwf	___fladd@signs& (0+255),f,b
  6047   001D58                     
  6048                           ; BSR set to: 0
  6049   001D58  6D83               	negf	___fladd@grs& (0+255),b
  6050   001D5A                     
  6051                           ; BSR set to: 0
  6052   001D5A  5183               	movf	___fladd@grs& (0+255),w,b
  6053   001D5C  A4D8               	btfss	status,2,c
  6054   001D5E  EFB3  F00E         	goto	u6331
  6055   001D62  EFB5  F00E         	goto	u6330
  6056   001D66                     u6331:
  6057   001D66  EFC5  F00E         	goto	l885
  6058   001D6A                     u6330:
  6059   001D6A                     
  6060                           ; BSR set to: 0
  6061   001D6A  0E01               	movlw	1
  6062   001D6C  2626               	addwf	___fladd@b^0,f,c
  6063   001D6E  0E00               	movlw	0
  6064   001D70  2227               	addwfc	(___fladd@b+1)^0,f,c
  6065   001D72  2228               	addwfc	(___fladd@b+2)^0,f,c
  6066   001D74  2229               	addwfc	(___fladd@b+3)^0,f,c
  6067   001D76  EFC5  F00E         	goto	l885
  6068   001D7A                     l5588:
  6069                           
  6070                           ; BSR set to: 0
  6071   001D7A  502A               	movf	___fladd@a^0,w,c
  6072   001D7C  5E26               	subwf	___fladd@b^0,f,c
  6073   001D7E  502B               	movf	(___fladd@a+1)^0,w,c
  6074   001D80  5A27               	subwfb	(___fladd@b+1)^0,f,c
  6075   001D82  502C               	movf	(___fladd@a+2)^0,w,c
  6076   001D84  5A28               	subwfb	(___fladd@b+2)^0,f,c
  6077   001D86  502D               	movf	(___fladd@a+3)^0,w,c
  6078   001D88  5A29               	subwfb	(___fladd@b+3)^0,f,c
  6079   001D8A                     l885:
  6080                           
  6081                           ; BSR set to: 0
  6082   001D8A  5026               	movf	___fladd@b^0,w,c
  6083   001D8C  1027               	iorwf	(___fladd@b+1)^0,w,c
  6084   001D8E  1028               	iorwf	(___fladd@b+2)^0,w,c
  6085   001D90  1029               	iorwf	(___fladd@b+3)^0,w,c
  6086   001D92  A4D8               	btfss	status,2,c
  6087   001D94  EFCE  F00E         	goto	u6341
  6088   001D98  EFD0  F00E         	goto	u6340
  6089   001D9C                     u6341:
  6090   001D9C  EF05  F00F         	goto	l5612
  6091   001DA0                     u6340:
  6092   001DA0                     
  6093                           ; BSR set to: 0
  6094   001DA0  5183               	movf	___fladd@grs& (0+255),w,b
  6095   001DA2  A4D8               	btfss	status,2,c
  6096   001DA4  EFD6  F00E         	goto	u6351
  6097   001DA8  EFD8  F00E         	goto	u6350
  6098   001DAC                     u6351:
  6099   001DAC  EF05  F00F         	goto	l5612
  6100   001DB0                     u6350:
  6101   001DB0                     
  6102                           ; BSR set to: 0
  6103   001DB0  0E00               	movlw	0
  6104   001DB2  6E26               	movwf	?___fladd^0,c
  6105   001DB4  0E00               	movlw	0
  6106   001DB6  6E27               	movwf	(?___fladd+1)^0,c
  6107   001DB8  0E00               	movlw	0
  6108   001DBA  6E28               	movwf	(?___fladd+2)^0,c
  6109   001DBC  0E00               	movlw	0
  6110   001DBE  6E29               	movwf	(?___fladd+3)^0,c
  6111   001DC0  EFA0  F00F         	goto	l877
  6112   001DC4                     l5596:
  6113                           
  6114                           ; BSR set to: 0
  6115   001DC4  90D8               	bcf	status,0,c
  6116   001DC6  3626               	rlcf	___fladd@b^0,f,c
  6117   001DC8  3627               	rlcf	(___fladd@b+1)^0,f,c
  6118   001DCA  3628               	rlcf	(___fladd@b+2)^0,f,c
  6119   001DCC  3629               	rlcf	(___fladd@b+3)^0,f,c
  6120   001DCE                     
  6121                           ; BSR set to: 0
  6122   001DCE  AF83               	btfss	___fladd@grs& (0+255),7,b
  6123   001DD0  EFEC  F00E         	goto	u6361
  6124   001DD4  EFEE  F00E         	goto	u6360
  6125   001DD8                     u6361:
  6126   001DD8  EFEF  F00E         	goto	l5602
  6127   001DDC                     u6360:
  6128   001DDC                     
  6129                           ; BSR set to: 0
  6130   001DDC  8026               	bsf	___fladd@b^0,0,c
  6131   001DDE                     l5602:
  6132                           
  6133                           ; BSR set to: 0
  6134   001DDE  A183               	btfss	___fladd@grs& (0+255),0,b
  6135   001DE0  EFF4  F00E         	goto	u6371
  6136   001DE4  EFF6  F00E         	goto	u6370
  6137   001DE8                     u6371:
  6138   001DE8  EFFA  F00E         	goto	l5606
  6139   001DEC                     u6370:
  6140   001DEC                     
  6141                           ; BSR set to: 0
  6142   001DEC  80D8               	bsf	status,0,c
  6143   001DEE  3783               	rlcf	___fladd@grs& (0+255),f,b
  6144   001DF0  EFFC  F00E         	goto	l5608
  6145   001DF4                     l5606:
  6146                           
  6147                           ; BSR set to: 0
  6148   001DF4  90D8               	bcf	status,0,c
  6149   001DF6  3783               	rlcf	___fladd@grs& (0+255),f,b
  6150   001DF8                     l5608:
  6151                           
  6152                           ; BSR set to: 0
  6153   001DF8  5182               	movf	___fladd@bexp& (0+255),w,b
  6154   001DFA  B4D8               	btfsc	status,2,c
  6155   001DFC  EF02  F00F         	goto	u6381
  6156   001E00  EF04  F00F         	goto	u6380
  6157   001E04                     u6381:
  6158   001E04  EF05  F00F         	goto	l5612
  6159   001E08                     u6380:
  6160   001E08                     
  6161                           ; BSR set to: 0
  6162   001E08  0782               	decf	___fladd@bexp& (0+255),f,b
  6163   001E0A                     l5612:
  6164                           
  6165                           ; BSR set to: 0
  6166   001E0A  AE28               	btfss	(___fladd@b+2)^0,7,c
  6167   001E0C  EF0A  F00F         	goto	u6391
  6168   001E10  EF0C  F00F         	goto	u6390
  6169   001E14                     u6391:
  6170   001E14  EFE2  F00E         	goto	l5596
  6171   001E18                     u6390:
  6172   001E18                     l5614:
  6173                           
  6174                           ; BSR set to: 0
  6175   001E18  0E00               	movlw	0
  6176   001E1A  6F81               	movwf	___fladd@aexp& (0+255),b
  6177   001E1C                     
  6178                           ; BSR set to: 0
  6179   001E1C  AF83               	btfss	___fladd@grs& (0+255),7,b
  6180   001E1E  EF13  F00F         	goto	u6401
  6181   001E22  EF15  F00F         	goto	u6400
  6182   001E26                     u6401:
  6183   001E26  EF2D  F00F         	goto	l894
  6184   001E2A                     u6400:
  6185   001E2A                     
  6186                           ; BSR set to: 0
  6187   001E2A  C083  F02E         	movff	___fladd@grs,??___fladd
  6188   001E2E  0E7F               	movlw	127
  6189   001E30  162E               	andwf	??___fladd^0,f,c
  6190   001E32  B4D8               	btfsc	status,2,c
  6191   001E34  EF1E  F00F         	goto	u6411
  6192   001E38  EF20  F00F         	goto	u6410
  6193   001E3C                     u6411:
  6194   001E3C  EF24  F00F         	goto	l895
  6195   001E40                     u6410:
  6196   001E40                     l5620:
  6197                           
  6198                           ; BSR set to: 0
  6199   001E40  0E01               	movlw	1
  6200   001E42  6F81               	movwf	___fladd@aexp& (0+255),b
  6201   001E44  EF2D  F00F         	goto	l894
  6202   001E48                     l895:
  6203                           
  6204                           ; BSR set to: 0
  6205   001E48  A026               	btfss	___fladd@b^0,0,c
  6206   001E4A  EF29  F00F         	goto	u6421
  6207   001E4E  EF2B  F00F         	goto	u6420
  6208   001E52                     u6421:
  6209   001E52  EF2D  F00F         	goto	l894
  6210   001E56                     u6420:
  6211   001E56  EF20  F00F         	goto	l5620
  6212   001E5A                     l894:
  6213                           
  6214                           ; BSR set to: 0
  6215   001E5A  5181               	movf	___fladd@aexp& (0+255),w,b
  6216   001E5C  B4D8               	btfsc	status,2,c
  6217   001E5E  EF33  F00F         	goto	u6431
  6218   001E62  EF35  F00F         	goto	u6430
  6219   001E66                     u6431:
  6220   001E66  EF60  F00F         	goto	l5632
  6221   001E6A                     u6430:
  6222   001E6A                     
  6223                           ; BSR set to: 0
  6224   001E6A  0E01               	movlw	1
  6225   001E6C  2626               	addwf	___fladd@b^0,f,c
  6226   001E6E  0E00               	movlw	0
  6227   001E70  2227               	addwfc	(___fladd@b+1)^0,f,c
  6228   001E72  2228               	addwfc	(___fladd@b+2)^0,f,c
  6229   001E74  2229               	addwfc	(___fladd@b+3)^0,f,c
  6230   001E76                     
  6231                           ; BSR set to: 0
  6232   001E76  A029               	btfss	(___fladd@b+3)^0,0,c
  6233   001E78  EF40  F00F         	goto	u6441
  6234   001E7C  EF42  F00F         	goto	u6440
  6235   001E80                     u6441:
  6236   001E80  EF60  F00F         	goto	l5632
  6237   001E84                     u6440:
  6238   001E84                     
  6239                           ; BSR set to: 0
  6240   001E84  C026  F02E         	movff	___fladd@b,??___fladd
  6241   001E88  C027  F02F         	movff	___fladd@b+1,??___fladd+1
  6242   001E8C  C028  F030         	movff	___fladd@b+2,??___fladd+2
  6243   001E90  C029  F031         	movff	___fladd@b+3,??___fladd+3
  6244   001E94  3431               	rlcf	(??___fladd+3)^0,w,c
  6245   001E96  3231               	rrcf	(??___fladd+3)^0,f,c
  6246   001E98  3230               	rrcf	(??___fladd+2)^0,f,c
  6247   001E9A  322F               	rrcf	(??___fladd+1)^0,f,c
  6248   001E9C  322E               	rrcf	??___fladd^0,f,c
  6249   001E9E  C02E  F026         	movff	??___fladd,___fladd@b
  6250   001EA2  C02F  F027         	movff	??___fladd+1,___fladd@b+1
  6251   001EA6  C030  F028         	movff	??___fladd+2,___fladd@b+2
  6252   001EAA  C031  F029         	movff	??___fladd+3,___fladd@b+3
  6253   001EAE  2982               	incf	___fladd@bexp& (0+255),w,b
  6254   001EB0  B4D8               	btfsc	status,2,c
  6255   001EB2  EF5D  F00F         	goto	u6451
  6256   001EB6  EF5F  F00F         	goto	u6450
  6257   001EBA                     u6451:
  6258   001EBA  EF60  F00F         	goto	l5632
  6259   001EBE                     u6450:
  6260   001EBE                     
  6261                           ; BSR set to: 0
  6262   001EBE  2B82               	incf	___fladd@bexp& (0+255),f,b
  6263   001EC0                     l5632:
  6264                           
  6265                           ; BSR set to: 0
  6266   001EC0  2982               	incf	___fladd@bexp& (0+255),w,b
  6267   001EC2  B4D8               	btfsc	status,2,c
  6268   001EC4  EF66  F00F         	goto	u6461
  6269   001EC8  EF68  F00F         	goto	u6460
  6270   001ECC                     u6461:
  6271   001ECC  EF70  F00F         	goto	l5636
  6272   001ED0                     u6460:
  6273   001ED0                     
  6274                           ; BSR set to: 0
  6275   001ED0  5182               	movf	___fladd@bexp& (0+255),w,b
  6276   001ED2  A4D8               	btfss	status,2,c
  6277   001ED4  EF6E  F00F         	goto	u6471
  6278   001ED8  EF70  F00F         	goto	u6470
  6279   001EDC                     u6471:
  6280   001EDC  EF82  F00F         	goto	l5640
  6281   001EE0                     u6470:
  6282   001EE0                     l5636:
  6283                           
  6284                           ; BSR set to: 0
  6285   001EE0  0E00               	movlw	0
  6286   001EE2  6E26               	movwf	___fladd@b^0,c
  6287   001EE4  0E00               	movlw	0
  6288   001EE6  6E27               	movwf	(___fladd@b+1)^0,c
  6289   001EE8  0E00               	movlw	0
  6290   001EEA  6E28               	movwf	(___fladd@b+2)^0,c
  6291   001EEC  0E00               	movlw	0
  6292   001EEE  6E29               	movwf	(___fladd@b+3)^0,c
  6293   001EF0  5182               	movf	___fladd@bexp& (0+255),w,b
  6294   001EF2  A4D8               	btfss	status,2,c
  6295   001EF4  EF7E  F00F         	goto	u6481
  6296   001EF8  EF80  F00F         	goto	u6480
  6297   001EFC                     u6481:
  6298   001EFC  EF82  F00F         	goto	l5640
  6299   001F00                     u6480:
  6300   001F00                     
  6301                           ; BSR set to: 0
  6302   001F00  0E00               	movlw	0
  6303   001F02  6F80               	movwf	___fladd@signs& (0+255),b
  6304   001F04                     l5640:
  6305                           
  6306                           ; BSR set to: 0
  6307   001F04  A182               	btfss	___fladd@bexp& (0+255),0,b
  6308   001F06  EF87  F00F         	goto	u6491
  6309   001F0A  EF89  F00F         	goto	u6490
  6310   001F0E                     u6491:
  6311   001F0E  EF8C  F00F         	goto	l5644
  6312   001F12                     u6490:
  6313   001F12                     
  6314                           ; BSR set to: 0
  6315   001F12  8E28               	bsf	(___fladd@b+2)^0,7,c
  6316   001F14  EF8D  F00F         	goto	l5646
  6317   001F18                     l5644:
  6318                           
  6319                           ; BSR set to: 0
  6320   001F18  9E28               	bcf	(___fladd@b+2)^0,7,c
  6321   001F1A                     l5646:
  6322                           
  6323                           ; BSR set to: 0
  6324   001F1A  90D8               	bcf	status,0,c
  6325   001F1C  3182               	rrcf	___fladd@bexp& (0+255),w,b
  6326   001F1E  6E29               	movwf	(___fladd@b+3)^0,c
  6327   001F20                     
  6328                           ; BSR set to: 0
  6329   001F20  AF80               	btfss	___fladd@signs& (0+255),7,b
  6330   001F22  EF95  F00F         	goto	u6501
  6331   001F26  EF97  F00F         	goto	u6500
  6332   001F2A                     u6501:
  6333   001F2A  EF98  F00F         	goto	l5652
  6334   001F2E                     u6500:
  6335   001F2E                     
  6336                           ; BSR set to: 0
  6337   001F2E  8E29               	bsf	(___fladd@b+3)^0,7,c
  6338   001F30                     l5652:
  6339                           
  6340                           ; BSR set to: 0
  6341   001F30  C026  F026         	movff	___fladd@b,?___fladd
  6342   001F34  C027  F027         	movff	___fladd@b+1,?___fladd+1
  6343   001F38  C028  F028         	movff	___fladd@b+2,?___fladd+2
  6344   001F3C  C029  F029         	movff	___fladd@b+3,?___fladd+3
  6345   001F40                     l877:
  6346                           
  6347                           ; BSR set to: 0
  6348   001F40  0012               	return		;funcret
  6349   001F42                     __end_of___fladd:
  6350                           	callstack 0
  6351                           
  6352 ;; *************** function ___flneg *****************
  6353 ;; Defined at:
  6354 ;;		line 15 in file "C:\Program Files\Microchip\xc8\v2.41\pic\sources\c99\common\flneg.c"
  6355 ;; Parameters:    Size  Location     Type
  6356 ;;  f1              4   37[COMRAM] unsigned char 
  6357 ;; Auto vars:     Size  Location     Type
  6358 ;;		None
  6359 ;; Return value:  Size  Location     Type
  6360 ;;                  4   37[COMRAM] unsigned char 
  6361 ;; Registers used:
  6362 ;;		wreg, status,2, status,0
  6363 ;; Tracked objects:
  6364 ;;		On entry : 0/0
  6365 ;;		On exit  : 0/0
  6366 ;;		Unchanged: 0/0
  6367 ;; Data sizes:     COMRAM   BANK0   BANK1   BANK2   BANK3   BANK4   BANK5   BANK6   BANK7   BANK8   BANK9  BANK10  BANK1
      +1  BANK12  BANK13  BANK14  BANK15
  6368 ;;      Params:         4       0       0       0       0       0       0       0       0       0       0       0       
      +0       0       0       0       0
  6369 ;;      Locals:         0       0       0       0       0       0       0       0       0       0       0       0       
      +0       0       0       0       0
  6370 ;;      Temps:          0       0       0       0       0       0       0       0       0       0       0       0       
      +0       0       0       0       0
  6371 ;;      Totals:         4       0       0       0       0       0       0       0       0       0       0       0       
      +0       0       0       0       0
  6372 ;;Total ram usage:        4 bytes
  6373 ;; Hardware stack levels used: 1
  6374 ;; Hardware stack levels required when called: 3
  6375 ;; This function calls:
  6376 ;;		Nothing
  6377 ;; This function is called by:
  6378 ;;		_efgtoa
  6379 ;; This function uses a non-reentrant model
  6380 ;;
  6381                           
  6382                           	psect	text18
  6383   004CD4                     __ptext18:
  6384                           	callstack 0
  6385   004CD4                     ___flneg:
  6386                           	callstack 23
  6387   004CD4  5026               	movf	___flneg@f1^0,w,c
  6388   004CD6  1027               	iorwf	(___flneg@f1+1)^0,w,c
  6389   004CD8  1028               	iorwf	(___flneg@f1+2)^0,w,c
  6390   004CDA  1029               	iorwf	(___flneg@f1+3)^0,w,c
  6391   004CDC  B4D8               	btfsc	status,2,c
  6392   004CDE  EF73  F026         	goto	u7151
  6393   004CE2  EF75  F026         	goto	u7150
  6394   004CE6                     u7151:
  6395   004CE6  EF7D  F026         	goto	l6082
  6396   004CEA                     u7150:
  6397   004CEA  0E00               	movlw	0
  6398   004CEC  1A26               	xorwf	___flneg@f1^0,f,c
  6399   004CEE  0E00               	movlw	0
  6400   004CF0  1A27               	xorwf	(___flneg@f1+1)^0,f,c
  6401   004CF2  0E00               	movlw	0
  6402   004CF4  1A28               	xorwf	(___flneg@f1+2)^0,f,c
  6403   004CF6  0E80               	movlw	128
  6404   004CF8  1A29               	xorwf	(___flneg@f1+3)^0,f,c
  6405   004CFA                     l6082:
  6406   004CFA  C026  F026         	movff	___flneg@f1,?___flneg
  6407   004CFE  C027  F027         	movff	___flneg@f1+1,?___flneg+1
  6408   004D02  C028  F028         	movff	___flneg@f1+2,?___flneg+2
  6409   004D06  C029  F029         	movff	___flneg@f1+3,?___flneg+3
  6410   004D0A  0012               	return		;funcret
  6411   004D0C                     __end_of___flneg:
  6412                           	callstack 0
  6413                           
  6414 ;; *************** function ___flge *****************
  6415 ;; Defined at:
  6416 ;;		line 4 in file "C:\Program Files\Microchip\xc8\v2.41\pic\sources\c99\common\flge.c"
  6417 ;; Parameters:    Size  Location     Type
  6418 ;;  ff1             4   25[BANK0 ] unsigned char 
  6419 ;;  ff2             4   29[BANK0 ] unsigned char 
  6420 ;; Auto vars:     Size  Location     Type
  6421 ;;		None
  6422 ;; Return value:  Size  Location     Type
  6423 ;;		None               void
  6424 ;; Registers used:
  6425 ;;		wreg, status,2, status,0
  6426 ;; Tracked objects:
  6427 ;;		On entry : 0/0
  6428 ;;		On exit  : 0/0
  6429 ;;		Unchanged: 0/0
  6430 ;; Data sizes:     COMRAM   BANK0   BANK1   BANK2   BANK3   BANK4   BANK5   BANK6   BANK7   BANK8   BANK9  BANK10  BANK1
      +1  BANK12  BANK13  BANK14  BANK15
  6431 ;;      Params:         0       8       0       0       0       0       0       0       0       0       0       0       
      +0       0       0       0       0
  6432 ;;      Locals:         0       0       0       0       0       0       0       0       0       0       0       0       
      +0       0       0       0       0
  6433 ;;      Temps:          0       4       0       0       0       0       0       0       0       0       0       0       
      +0       0       0       0       0
  6434 ;;      Totals:         0      12       0       0       0       0       0       0       0       0       0       0       
      +0       0       0       0       0
  6435 ;;Total ram usage:       12 bytes
  6436 ;; Hardware stack levels used: 1
  6437 ;; Hardware stack levels required when called: 3
  6438 ;; This function calls:
  6439 ;;		Nothing
  6440 ;; This function is called by:
  6441 ;;		_efgtoa
  6442 ;; This function uses a non-reentrant model
  6443 ;;
  6444                           
  6445                           	psect	text19
  6446   003C3E                     __ptext19:
  6447                           	callstack 0
  6448   003C3E                     ___flge:
  6449                           	callstack 23
  6450   003C3E  0E00               	movlw	0
  6451   003C40  0100               	movlb	0	; () banked
  6452   003C42  1599               	andwf	___flge@ff1& (0+255),w,b
  6453   003C44  6FA1               	movwf	??___flge& (0+255),b
  6454   003C46  0E00               	movlw	0
  6455   003C48  159A               	andwf	(___flge@ff1+1)& (0+255),w,b
  6456   003C4A  6FA2               	movwf	(??___flge+1)& (0+255),b
  6457   003C4C  0E80               	movlw	128
  6458   003C4E  159B               	andwf	(___flge@ff1+2)& (0+255),w,b
  6459   003C50  6FA3               	movwf	(??___flge+2)& (0+255),b
  6460   003C52  0E7F               	movlw	127
  6461   003C54  159C               	andwf	(___flge@ff1+3)& (0+255),w,b
  6462   003C56  6FA4               	movwf	(??___flge+3)& (0+255),b
  6463   003C58  51A1               	movf	??___flge& (0+255),w,b
  6464   003C5A  11A2               	iorwf	(??___flge+1)& (0+255),w,b
  6465   003C5C  11A3               	iorwf	(??___flge+2)& (0+255),w,b
  6466   003C5E  11A4               	iorwf	(??___flge+3)& (0+255),w,b
  6467   003C60  A4D8               	btfss	status,2,c
  6468   003C62  EF35  F01E         	goto	u7101
  6469   003C66  EF37  F01E         	goto	u7100
  6470   003C6A                     u7101:
  6471   003C6A  EF3F  F01E         	goto	l6060
  6472   003C6E                     u7100:
  6473   003C6E                     
  6474                           ; BSR set to: 0
  6475   003C6E  0E00               	movlw	0
  6476   003C70  6F99               	movwf	___flge@ff1& (0+255),b
  6477   003C72  0E00               	movlw	0
  6478   003C74  6F9A               	movwf	(___flge@ff1+1)& (0+255),b
  6479   003C76  0E00               	movlw	0
  6480   003C78  6F9B               	movwf	(___flge@ff1+2)& (0+255),b
  6481   003C7A  0E00               	movlw	0
  6482   003C7C  6F9C               	movwf	(___flge@ff1+3)& (0+255),b
  6483   003C7E                     l6060:
  6484                           
  6485                           ; BSR set to: 0
  6486   003C7E  0E00               	movlw	0
  6487   003C80  159D               	andwf	___flge@ff2& (0+255),w,b
  6488   003C82  6FA1               	movwf	??___flge& (0+255),b
  6489   003C84  0E00               	movlw	0
  6490   003C86  159E               	andwf	(___flge@ff2+1)& (0+255),w,b
  6491   003C88  6FA2               	movwf	(??___flge+1)& (0+255),b
  6492   003C8A  0E80               	movlw	128
  6493   003C8C  159F               	andwf	(___flge@ff2+2)& (0+255),w,b
  6494   003C8E  6FA3               	movwf	(??___flge+2)& (0+255),b
  6495   003C90  0E7F               	movlw	127
  6496   003C92  15A0               	andwf	(___flge@ff2+3)& (0+255),w,b
  6497   003C94  6FA4               	movwf	(??___flge+3)& (0+255),b
  6498   003C96  51A1               	movf	??___flge& (0+255),w,b
  6499   003C98  11A2               	iorwf	(??___flge+1)& (0+255),w,b
  6500   003C9A  11A3               	iorwf	(??___flge+2)& (0+255),w,b
  6501   003C9C  11A4               	iorwf	(??___flge+3)& (0+255),w,b
  6502   003C9E  A4D8               	btfss	status,2,c
  6503   003CA0  EF54  F01E         	goto	u7111
  6504   003CA4  EF56  F01E         	goto	u7110
  6505   003CA8                     u7111:
  6506   003CA8  EF5E  F01E         	goto	l6064
  6507   003CAC                     u7110:
  6508   003CAC                     
  6509                           ; BSR set to: 0
  6510   003CAC  0E00               	movlw	0
  6511   003CAE  6F9D               	movwf	___flge@ff2& (0+255),b
  6512   003CB0  0E00               	movlw	0
  6513   003CB2  6F9E               	movwf	(___flge@ff2+1)& (0+255),b
  6514   003CB4  0E00               	movlw	0
  6515   003CB6  6F9F               	movwf	(___flge@ff2+2)& (0+255),b
  6516   003CB8  0E00               	movlw	0
  6517   003CBA  6FA0               	movwf	(___flge@ff2+3)& (0+255),b
  6518   003CBC                     l6064:
  6519                           
  6520                           ; BSR set to: 0
  6521   003CBC  AF9C               	btfss	(___flge@ff1+3)& (0+255),7,b
  6522   003CBE  EF63  F01E         	goto	u7121
  6523   003CC2  EF65  F01E         	goto	u7120
  6524   003CC6                     u7121:
  6525   003CC6  EF6E  F01E         	goto	l6068
  6526   003CCA                     u7120:
  6527   003CCA                     
  6528                           ; BSR set to: 0
  6529   003CCA  6D99               	negf	___flge@ff1& (0+255),b
  6530   003CCC  1F9A               	comf	(___flge@ff1+1)& (0+255),f,b
  6531   003CCE  B0D8               	btfsc	status,0,c
  6532   003CD0  2B9A               	incf	(___flge@ff1+1)& (0+255),f,b
  6533   003CD2  1F9B               	comf	(___flge@ff1+2)& (0+255),f,b
  6534   003CD4  B0D8               	btfsc	status,0,c
  6535   003CD6  2B9B               	incf	(___flge@ff1+2)& (0+255),f,b
  6536   003CD8  0E80               	movlw	128
  6537   003CDA  579C               	subfwb	(___flge@ff1+3)& (0+255),f,b
  6538   003CDC                     l6068:
  6539                           
  6540                           ; BSR set to: 0
  6541   003CDC  AFA0               	btfss	(___flge@ff2+3)& (0+255),7,b
  6542   003CDE  EF73  F01E         	goto	u7131
  6543   003CE2  EF75  F01E         	goto	u7130
  6544   003CE6                     u7131:
  6545   003CE6  EF7E  F01E         	goto	l605
  6546   003CEA                     u7130:
  6547   003CEA                     
  6548                           ; BSR set to: 0
  6549   003CEA  6D9D               	negf	___flge@ff2& (0+255),b
  6550   003CEC  1F9E               	comf	(___flge@ff2+1)& (0+255),f,b
  6551   003CEE  B0D8               	btfsc	status,0,c
  6552   003CF0  2B9E               	incf	(___flge@ff2+1)& (0+255),f,b
  6553   003CF2  1F9F               	comf	(___flge@ff2+2)& (0+255),f,b
  6554   003CF4  B0D8               	btfsc	status,0,c
  6555   003CF6  2B9F               	incf	(___flge@ff2+2)& (0+255),f,b
  6556   003CF8  0E80               	movlw	128
  6557   003CFA  57A0               	subfwb	(___flge@ff2+3)& (0+255),f,b
  6558   003CFC                     l605:
  6559                           
  6560                           ; BSR set to: 0
  6561   003CFC  0E00               	movlw	0
  6562   003CFE  1B99               	xorwf	___flge@ff1& (0+255),f,b
  6563   003D00  0E00               	movlw	0
  6564   003D02  1B9A               	xorwf	(___flge@ff1+1)& (0+255),f,b
  6565   003D04  0E00               	movlw	0
  6566   003D06  1B9B               	xorwf	(___flge@ff1+2)& (0+255),f,b
  6567   003D08  0E80               	movlw	128
  6568   003D0A  1B9C               	xorwf	(___flge@ff1+3)& (0+255),f,b
  6569   003D0C  0E00               	movlw	0
  6570   003D0E  1B9D               	xorwf	___flge@ff2& (0+255),f,b
  6571   003D10  0E00               	movlw	0
  6572   003D12  1B9E               	xorwf	(___flge@ff2+1)& (0+255),f,b
  6573   003D14  0E00               	movlw	0
  6574   003D16  1B9F               	xorwf	(___flge@ff2+2)& (0+255),f,b
  6575   003D18  0E80               	movlw	128
  6576   003D1A  1BA0               	xorwf	(___flge@ff2+3)& (0+255),f,b
  6577   003D1C  519D               	movf	___flge@ff2& (0+255),w,b
  6578   003D1E  5D99               	subwf	___flge@ff1& (0+255),w,b
  6579   003D20  519E               	movf	(___flge@ff2+1)& (0+255),w,b
  6580   003D22  599A               	subwfb	(___flge@ff1+1)& (0+255),w,b
  6581   003D24  519F               	movf	(___flge@ff2+2)& (0+255),w,b
  6582   003D26  599B               	subwfb	(___flge@ff1+2)& (0+255),w,b
  6583   003D28  51A0               	movf	(___flge@ff2+3)& (0+255),w,b
  6584   003D2A  599C               	subwfb	(___flge@ff1+3)& (0+255),w,b
  6585   003D2C  B0D8               	btfsc	status,0,c
  6586   003D2E  EF9B  F01E         	goto	u7141
  6587   003D32  EF9D  F01E         	goto	u7140
  6588   003D36                     u7141:
  6589   003D36  EFA0  F01E         	goto	l6074
  6590   003D3A                     u7140:
  6591   003D3A                     
  6592                           ; BSR set to: 0
  6593   003D3A  90D8               	bcf	status,0,c
  6594   003D3C  EFA1  F01E         	goto	l610
  6595   003D40                     l6074:
  6596                           
  6597                           ; BSR set to: 0
  6598   003D40  80D8               	bsf	status,0,c
  6599   003D42                     l610:
  6600                           
  6601                           ; BSR set to: 0
  6602   003D42  0012               	return		;funcret
  6603   003D44                     __end_of___flge:
  6604                           	callstack 0
  6605                           
  6606 ;; *************** function ___fleq *****************
  6607 ;; Defined at:
  6608 ;;		line 4 in file "C:\Program Files\Microchip\xc8\v2.41\pic\sources\c99\common\fleq.c"
  6609 ;; Parameters:    Size  Location     Type
  6610 ;;  ff1             4   37[COMRAM] unsigned char 
  6611 ;;  ff2             4   41[COMRAM] unsigned char 
  6612 ;; Auto vars:     Size  Location     Type
  6613 ;;		None
  6614 ;; Return value:  Size  Location     Type
  6615 ;;		None               void
  6616 ;; Registers used:
  6617 ;;		wreg, status,2, status,0
  6618 ;; Tracked objects:
  6619 ;;		On entry : 0/0
  6620 ;;		On exit  : 0/0
  6621 ;;		Unchanged: 0/0
  6622 ;; Data sizes:     COMRAM   BANK0   BANK1   BANK2   BANK3   BANK4   BANK5   BANK6   BANK7   BANK8   BANK9  BANK10  BANK1
      +1  BANK12  BANK13  BANK14  BANK15
  6623 ;;      Params:         8       0       0       0       0       0       0       0       0       0       0       0       
      +0       0       0       0       0
  6624 ;;      Locals:         0       0       0       0       0       0       0       0       0       0       0       0       
      +0       0       0       0       0
  6625 ;;      Temps:          4       0       0       0       0       0       0       0       0       0       0       0       
      +0       0       0       0       0
  6626 ;;      Totals:        12       0       0       0       0       0       0       0       0       0       0       0       
      +0       0       0       0       0
  6627 ;;Total ram usage:       12 bytes
  6628 ;; Hardware stack levels used: 1
  6629 ;; Hardware stack levels required when called: 3
  6630 ;; This function calls:
  6631 ;;		Nothing
  6632 ;; This function is called by:
  6633 ;;		_main
  6634 ;;		_efgtoa
  6635 ;; This function uses a non-reentrant model
  6636 ;;
  6637                           
  6638                           	psect	text20
  6639   004578                     __ptext20:
  6640                           	callstack 0
  6641   004578                     ___fleq:
  6642                           	callstack 23
  6643   004578  0E00               	movlw	0
  6644   00457A  1426               	andwf	___fleq@ff1^0,w,c
  6645   00457C  6E2E               	movwf	??___fleq^0,c
  6646   00457E  0E00               	movlw	0
  6647   004580  1427               	andwf	(___fleq@ff1+1)^0,w,c
  6648   004582  6E2F               	movwf	(??___fleq+1)^0,c
  6649   004584  0E80               	movlw	128
  6650   004586  1428               	andwf	(___fleq@ff1+2)^0,w,c
  6651   004588  6E30               	movwf	(??___fleq+2)^0,c
  6652   00458A  0E7F               	movlw	127
  6653   00458C  1429               	andwf	(___fleq@ff1+3)^0,w,c
  6654   00458E  6E31               	movwf	(??___fleq+3)^0,c
  6655   004590  502E               	movf	??___fleq^0,w,c
  6656   004592  102F               	iorwf	(??___fleq+1)^0,w,c
  6657   004594  1030               	iorwf	(??___fleq+2)^0,w,c
  6658   004596  1031               	iorwf	(??___fleq+3)^0,w,c
  6659   004598  A4D8               	btfss	status,2,c
  6660   00459A  EFD1  F022         	goto	u7071
  6661   00459E  EFD3  F022         	goto	u7070
  6662   0045A2                     u7071:
  6663   0045A2  EFDB  F022         	goto	l6044
  6664   0045A6                     u7070:
  6665   0045A6  0E00               	movlw	0
  6666   0045A8  6E26               	movwf	___fleq@ff1^0,c
  6667   0045AA  0E00               	movlw	0
  6668   0045AC  6E27               	movwf	(___fleq@ff1+1)^0,c
  6669   0045AE  0E00               	movlw	0
  6670   0045B0  6E28               	movwf	(___fleq@ff1+2)^0,c
  6671   0045B2  0E00               	movlw	0
  6672   0045B4  6E29               	movwf	(___fleq@ff1+3)^0,c
  6673   0045B6                     l6044:
  6674   0045B6  0E00               	movlw	0
  6675   0045B8  142A               	andwf	___fleq@ff2^0,w,c
  6676   0045BA  6E2E               	movwf	??___fleq^0,c
  6677   0045BC  0E00               	movlw	0
  6678   0045BE  142B               	andwf	(___fleq@ff2+1)^0,w,c
  6679   0045C0  6E2F               	movwf	(??___fleq+1)^0,c
  6680   0045C2  0E80               	movlw	128
  6681   0045C4  142C               	andwf	(___fleq@ff2+2)^0,w,c
  6682   0045C6  6E30               	movwf	(??___fleq+2)^0,c
  6683   0045C8  0E7F               	movlw	127
  6684   0045CA  142D               	andwf	(___fleq@ff2+3)^0,w,c
  6685   0045CC  6E31               	movwf	(??___fleq+3)^0,c
  6686   0045CE  502E               	movf	??___fleq^0,w,c
  6687   0045D0  102F               	iorwf	(??___fleq+1)^0,w,c
  6688   0045D2  1030               	iorwf	(??___fleq+2)^0,w,c
  6689   0045D4  1031               	iorwf	(??___fleq+3)^0,w,c
  6690   0045D6  A4D8               	btfss	status,2,c
  6691   0045D8  EFF0  F022         	goto	u7081
  6692   0045DC  EFF2  F022         	goto	u7080
  6693   0045E0                     u7081:
  6694   0045E0  EFFA  F022         	goto	l6048
  6695   0045E4                     u7080:
  6696   0045E4  0E00               	movlw	0
  6697   0045E6  6E2A               	movwf	___fleq@ff2^0,c
  6698   0045E8  0E00               	movlw	0
  6699   0045EA  6E2B               	movwf	(___fleq@ff2+1)^0,c
  6700   0045EC  0E00               	movlw	0
  6701   0045EE  6E2C               	movwf	(___fleq@ff2+2)^0,c
  6702   0045F0  0E00               	movlw	0
  6703   0045F2  6E2D               	movwf	(___fleq@ff2+3)^0,c
  6704   0045F4                     l6048:
  6705   0045F4  502A               	movf	___fleq@ff2^0,w,c
  6706   0045F6  1826               	xorwf	___fleq@ff1^0,w,c
  6707   0045F8  E10F               	bnz	u7090
  6708   0045FA  502B               	movf	(___fleq@ff2+1)^0,w,c
  6709   0045FC  1827               	xorwf	(___fleq@ff1+1)^0,w,c
  6710   0045FE  E10C               	bnz	u7090
  6711   004600  502C               	movf	(___fleq@ff2+2)^0,w,c
  6712   004602  1828               	xorwf	(___fleq@ff1+2)^0,w,c
  6713   004604  E109               	bnz	u7090
  6714   004606  502D               	movf	(___fleq@ff2+3)^0,w,c
  6715   004608  1829               	xorwf	(___fleq@ff1+3)^0,w,c
  6716   00460A  B4D8               	btfsc	status,2,c
  6717   00460C  EF0A  F023         	goto	u7091
  6718   004610  EF0C  F023         	goto	u7090
  6719   004614                     u7091:
  6720   004614  EF0F  F023         	goto	l6052
  6721   004618                     u7090:
  6722   004618  90D8               	bcf	status,0,c
  6723   00461A  EF10  F023         	goto	l599
  6724   00461E                     l6052:
  6725   00461E  80D8               	bsf	status,0,c
  6726   004620                     l599:
  6727   004620  0012               	return		;funcret
  6728   004622                     __end_of___fleq:
  6729                           	callstack 0
  6730                           
  6731 ;; *************** function _dtoa *****************
  6732 ;; Defined at:
  6733 ;;		line 470 in file "C:\Program Files\Microchip\xc8\v2.41\pic\sources\c99\common\doprnt.c"
  6734 ;; Parameters:    Size  Location     Type
  6735 ;;  fp              2   13[BANK0 ] PTR struct _IO_FILE
  6736 ;;		 -> sprintf@f(12), 
  6737 ;;  d               2   15[BANK0 ] int 
  6738 ;; Auto vars:     Size  Location     Type
  6739 ;;  i               2   24[BANK0 ] int 
  6740 ;;  w               2   21[BANK0 ] int 
  6741 ;;  p               2   19[BANK0 ] int 
  6742 ;;  s               1   23[BANK0 ] unsigned char 
  6743 ;; Return value:  Size  Location     Type
  6744 ;;                  1    wreg      void 
  6745 ;; Registers used:
  6746 ;;		wreg, fsr1l, fsr1h, fsr2l, fsr2h, status,2, status,0, cstack
  6747 ;; Tracked objects:
  6748 ;;		On entry : 0/0
  6749 ;;		On exit  : 0/0
  6750 ;;		Unchanged: 0/0
  6751 ;; Data sizes:     COMRAM   BANK0   BANK1   BANK2   BANK3   BANK4   BANK5   BANK6   BANK7   BANK8   BANK9  BANK10  BANK1
      +1  BANK12  BANK13  BANK14  BANK15
  6752 ;;      Params:         0       4       0       0       0       0       0       0       0       0       0       0       
      +0       0       0       0       0
  6753 ;;      Locals:         0       9       0       0       0       0       0       0       0       0       0       0       
      +0       0       0       0       0
  6754 ;;      Temps:          0       0       0       0       0       0       0       0       0       0       0       0       
      +0       0       0       0       0
  6755 ;;      Totals:         0      13       0       0       0       0       0       0       0       0       0       0       
      +0       0       0       0       0
  6756 ;;Total ram usage:       13 bytes
  6757 ;; Hardware stack levels used: 1
  6758 ;; Hardware stack levels required when called: 7
  6759 ;; This function calls:
  6760 ;;		___awdiv
  6761 ;;		___awmod
  6762 ;;		_abs
  6763 ;;		_pad
  6764 ;; This function is called by:
  6765 ;;		_vfpfcnvrt
  6766 ;; This function uses a non-reentrant model
  6767 ;;
  6768                           
  6769                           	psect	text21
  6770   00399E                     __ptext21:
  6771                           	callstack 0
  6772   00399E                     _dtoa:
  6773                           	callstack 20
  6774   00399E                     
  6775                           ;C:\Program Files\Microchip\xc8\v2.41\pic\sources\c99\common\doprnt.c: 470: static void 
      +                          dtoa(FILE *fp, vfpf_sint_t d);C:\Program Files\Microchip\xc8\v2.41\pic\sources\c99\commo
      +                          n\doprnt.c: 471: {;C:\Program Files\Microchip\xc8\v2.41\pic\sources\c99\common\doprnt.c:
      +                           472:  char s;;C:\Program Files\Microchip\xc8\v2.41\pic\sources\c99\common\doprnt.c: 473
      +                          :     int i, p, w;;C:\Program Files\Microchip\xc8\v2.41\pic\sources\c99\common\doprnt.c:
      +                           476:     s = d < 0 ? 1 : 0;
  6776   00399E  0100               	movlb	0	; () banked
  6777   0039A0  BF90               	btfsc	(dtoa@d+1)& (0+255),7,b
  6778   0039A2  EFD5  F01C         	goto	u7521
  6779   0039A6  EFD8  F01C         	goto	u7520
  6780   0039AA                     u7521:
  6781   0039AA  0E01               	movlw	1
  6782   0039AC  EFD9  F01C         	goto	u7530
  6783   0039B0                     u7520:
  6784   0039B0  0E00               	movlw	0
  6785   0039B2                     u7530:
  6786   0039B2  6F97               	movwf	dtoa@s& (0+255),b
  6787   0039B4                     
  6788                           ; BSR set to: 0
  6789                           ;C:\Program Files\Microchip\xc8\v2.41\pic\sources\c99\common\doprnt.c: 477:     if (s) {
  6790   0039B4  5197               	movf	dtoa@s& (0+255),w,b
  6791   0039B6  B4D8               	btfsc	status,2,c
  6792   0039B8  EFE0  F01C         	goto	u7541
  6793   0039BC  EFE2  F01C         	goto	u7540
  6794   0039C0                     u7541:
  6795   0039C0  EFE6  F01C         	goto	l6256
  6796   0039C4                     u7540:
  6797   0039C4                     
  6798                           ; BSR set to: 0
  6799                           ;C:\Program Files\Microchip\xc8\v2.41\pic\sources\c99\common\doprnt.c: 478:         d = 
      +                          -d;
  6800   0039C4  6D8F               	negf	dtoa@d& (0+255),b
  6801   0039C6  1F90               	comf	(dtoa@d+1)& (0+255),f,b
  6802   0039C8  B0D8               	btfsc	status,0,c
  6803   0039CA  2B90               	incf	(dtoa@d+1)& (0+255),f,b
  6804   0039CC                     l6256:
  6805                           
  6806                           ; BSR set to: 0
  6807                           ;C:\Program Files\Microchip\xc8\v2.41\pic\sources\c99\common\doprnt.c: 487:     p = (0 <
      +                          = prec) ? prec : 1;
  6808   0039CC  BE43               	btfsc	(_prec+1)^0,7,c
  6809   0039CE  EFED  F01C         	goto	u7550
  6810   0039D2  EFEB  F01C         	goto	u7551
  6811   0039D6                     u7551:
  6812   0039D6  EFF3  F01C         	goto	l1065
  6813   0039DA                     u7550:
  6814   0039DA                     
  6815                           ; BSR set to: 0
  6816   0039DA  0E00               	movlw	0
  6817   0039DC  6F94               	movwf	(dtoa@p+1)& (0+255),b
  6818   0039DE  0E01               	movlw	1
  6819   0039E0  6F93               	movwf	dtoa@p& (0+255),b
  6820   0039E2  EFF7  F01C         	goto	l1067
  6821   0039E6                     l1065:
  6822                           
  6823                           ; BSR set to: 0
  6824   0039E6  C042  F093         	movff	_prec,dtoa@p
  6825   0039EA  C043  F094         	movff	_prec+1,dtoa@p+1
  6826   0039EE                     l1067:
  6827                           
  6828                           ; BSR set to: 0
  6829                           ;C:\Program Files\Microchip\xc8\v2.41\pic\sources\c99\common\doprnt.c: 488:     w = widt
      +                          h;
  6830   0039EE  C040  F095         	movff	_width,dtoa@w
  6831   0039F2  C041  F096         	movff	_width+1,dtoa@w+1
  6832   0039F6                     
  6833                           ; BSR set to: 0
  6834                           ;C:\Program Files\Microchip\xc8\v2.41\pic\sources\c99\common\doprnt.c: 489:     if (s
  6835   0039F6  5197               	movf	dtoa@s& (0+255),w,b
  6836   0039F8  B4D8               	btfsc	status,2,c
  6837   0039FA  EF01  F01D         	goto	u7561
  6838   0039FE  EF03  F01D         	goto	u7560
  6839   003A02                     u7561:
  6840   003A02  EF1A  F01D         	goto	l1068
  6841   003A06                     u7560:
  6842   003A06                     
  6843                           ; BSR set to: 0
  6844                           ;C:\Program Files\Microchip\xc8\v2.41\pic\sources\c99\common\doprnt.c: 493:     ) {;C:\P
      +                          rogram Files\Microchip\xc8\v2.41\pic\sources\c99\common\doprnt.c: 494:         --w;
  6845   003A06  0795               	decf	dtoa@w& (0+255),f,b
  6846   003A08  A0D8               	btfss	status,0,c
  6847   003A0A  0796               	decf	(dtoa@w+1)& (0+255),f,b
  6848   003A0C                     
  6849                           ; BSR set to: 0
  6850                           ;C:\Program Files\Microchip\xc8\v2.41\pic\sources\c99\common\doprnt.c: 495:   s = s ? '-
      +                          ' : '+';
  6851   003A0C  5197               	movf	dtoa@s& (0+255),w,b
  6852   003A0E  A4D8               	btfss	status,2,c
  6853   003A10  EF0C  F01D         	goto	u7571
  6854   003A14  EF0E  F01D         	goto	u7570
  6855   003A18                     u7571:
  6856   003A18  EF14  F01D         	goto	l6268
  6857   003A1C                     u7570:
  6858   003A1C                     
  6859                           ; BSR set to: 0
  6860   003A1C  0E00               	movlw	0
  6861   003A1E  6F92               	movwf	(_dtoa$1805+1)& (0+255),b
  6862   003A20  0E2B               	movlw	43
  6863   003A22  6F91               	movwf	_dtoa$1805& (0+255),b
  6864   003A24  EF18  F01D         	goto	l6270
  6865   003A28                     l6268:
  6866                           
  6867                           ; BSR set to: 0
  6868   003A28  0E00               	movlw	0
  6869   003A2A  6F92               	movwf	(_dtoa$1805+1)& (0+255),b
  6870   003A2C  0E2D               	movlw	45
  6871   003A2E  6F91               	movwf	_dtoa$1805& (0+255),b
  6872   003A30                     l6270:
  6873                           
  6874                           ; BSR set to: 0
  6875   003A30  C091  F097         	movff	_dtoa$1805,dtoa@s
  6876   003A34                     l1068:
  6877                           
  6878                           ; BSR set to: 0
  6879                           ;C:\Program Files\Microchip\xc8\v2.41\pic\sources\c99\common\doprnt.c: 505:     i = size
      +                          of(dbuf) - 1;
  6880   003A34  0E00               	movlw	0
  6881   003A36  6F99               	movwf	(dtoa@i+1)& (0+255),b
  6882   003A38  0E4F               	movlw	79
  6883   003A3A  6F98               	movwf	dtoa@i& (0+255),b
  6884   003A3C                     
  6885                           ; BSR set to: 0
  6886                           ;C:\Program Files\Microchip\xc8\v2.41\pic\sources\c99\common\doprnt.c: 506:     dbuf[i] 
      +                          = '\0';
  6887   003A3C  0E00               	movlw	0
  6888   003A3E  0101               	movlb	1	; () banked
  6889   003A40  6FC6               	movwf	(_dbuf+79)& (0+255),b
  6890                           
  6891                           ;C:\Program Files\Microchip\xc8\v2.41\pic\sources\c99\common\doprnt.c: 507:     while (!
      +                          (i < 1) && (d || (0 < p)
  6892   003A42  EF54  F01D         	goto	l6284
  6893   003A46                     l6274:
  6894                           
  6895                           ; BSR set to: 0
  6896                           ;C:\Program Files\Microchip\xc8\v2.41\pic\sources\c99\common\doprnt.c: 511:     )) {;C:\
      +                          Program Files\Microchip\xc8\v2.41\pic\sources\c99\common\doprnt.c: 512:         --i;
  6897   003A46  0798               	decf	dtoa@i& (0+255),f,b
  6898   003A48  A0D8               	btfss	status,0,c
  6899   003A4A  0799               	decf	(dtoa@i+1)& (0+255),f,b
  6900   003A4C                     
  6901                           ; BSR set to: 0
  6902                           ;C:\Program Files\Microchip\xc8\v2.41\pic\sources\c99\common\doprnt.c: 513:         dbuf
      +                          [i] = (char)((int)'0' + abs(d % 10));
  6903   003A4C  0E77               	movlw	low _dbuf
  6904   003A4E  2598               	addwf	dtoa@i& (0+255),w,b
  6905   003A50  6ED9               	movwf	fsr2l,c
  6906   003A52  0E01               	movlw	high _dbuf
  6907   003A54  2199               	addwfc	(dtoa@i+1)& (0+255),w,b
  6908   003A56  6EDA               	movwf	fsr2h,c
  6909   003A58  C08F  F026         	movff	dtoa@d,___awmod@dividend
  6910   003A5C  C090  F027         	movff	dtoa@d+1,___awmod@dividend+1
  6911   003A60  0E00               	movlw	0
  6912   003A62  6E29               	movwf	(___awmod@divisor+1)^0,c
  6913   003A64  0E0A               	movlw	10
  6914   003A66  6E28               	movwf	___awmod@divisor^0,c
  6915   003A68  EC0D  F022         	call	___awmod	;wreg free
  6916   003A6C  C026  F02C         	movff	?___awmod,abs@a
  6917   003A70  C027  F02D         	movff	?___awmod+1,abs@a+1
  6918   003A74  EC2D  F026         	call	_abs	;wreg free
  6919   003A78  502C               	movf	?_abs^0,w,c
  6920   003A7A  0F30               	addlw	48
  6921   003A7C  6EDF               	movwf	indf2,c
  6922   003A7E                     
  6923                           ;C:\Program Files\Microchip\xc8\v2.41\pic\sources\c99\common\doprnt.c: 514:         --p;
  6924   003A7E  0100               	movlb	0	; () banked
  6925   003A80  0793               	decf	dtoa@p& (0+255),f,b
  6926   003A82  A0D8               	btfss	status,0,c
  6927   003A84  0794               	decf	(dtoa@p+1)& (0+255),f,b
  6928   003A86                     
  6929                           ; BSR set to: 0
  6930                           ;C:\Program Files\Microchip\xc8\v2.41\pic\sources\c99\common\doprnt.c: 515:         --w;
  6931   003A86  0795               	decf	dtoa@w& (0+255),f,b
  6932   003A88  A0D8               	btfss	status,0,c
  6933   003A8A  0796               	decf	(dtoa@w+1)& (0+255),f,b
  6934   003A8C                     
  6935                           ; BSR set to: 0
  6936                           ;C:\Program Files\Microchip\xc8\v2.41\pic\sources\c99\common\doprnt.c: 516:         d = 
      +                          d / 10;
  6937   003A8C  C08F  F026         	movff	dtoa@d,___awdiv@dividend
  6938   003A90  C090  F027         	movff	dtoa@d+1,___awdiv@dividend+1
  6939   003A94  0E00               	movlw	0
  6940   003A96  6E29               	movwf	(___awdiv@divisor+1)^0,c
  6941   003A98  0E0A               	movlw	10
  6942   003A9A  6E28               	movwf	___awdiv@divisor^0,c
  6943   003A9C  EC4F  F021         	call	___awdiv	;wreg free
  6944   003AA0  C026  F08F         	movff	?___awdiv,dtoa@d
  6945   003AA4  C027  F090         	movff	?___awdiv+1,dtoa@d+1
  6946   003AA8                     l6284:
  6947                           
  6948                           ;C:\Program Files\Microchip\xc8\v2.41\pic\sources\c99\common\doprnt.c: 507:     while (!
      +                          (i < 1) && (d || (0 < p)
  6949   003AA8  0100               	movlb	0	; () banked
  6950   003AAA  BF99               	btfsc	(dtoa@i+1)& (0+255),7,b
  6951   003AAC  EF60  F01D         	goto	u7581
  6952   003AB0  5199               	movf	(dtoa@i+1)& (0+255),w,b
  6953   003AB2  E108               	bnz	u7580
  6954   003AB4  0598               	decf	dtoa@i& (0+255),w,b
  6955   003AB6  A0D8               	btfss	status,0,c
  6956   003AB8  EF60  F01D         	goto	u7581
  6957   003ABC  EF62  F01D         	goto	u7580
  6958   003AC0                     u7581:
  6959   003AC0  EF78  F01D         	goto	l6290
  6960   003AC4                     u7580:
  6961   003AC4                     
  6962                           ; BSR set to: 0
  6963   003AC4  518F               	movf	dtoa@d& (0+255),w,b
  6964   003AC6  1190               	iorwf	(dtoa@d+1)& (0+255),w,b
  6965   003AC8  A4D8               	btfss	status,2,c
  6966   003ACA  EF69  F01D         	goto	u7591
  6967   003ACE  EF6B  F01D         	goto	u7590
  6968   003AD2                     u7591:
  6969   003AD2  EF23  F01D         	goto	l6274
  6970   003AD6                     u7590:
  6971   003AD6                     
  6972                           ; BSR set to: 0
  6973   003AD6  BF94               	btfsc	(dtoa@p+1)& (0+255),7,b
  6974   003AD8  EF78  F01D         	goto	u7600
  6975   003ADC  5194               	movf	(dtoa@p+1)& (0+255),w,b
  6976   003ADE  E106               	bnz	u7601
  6977   003AE0  0593               	decf	dtoa@p& (0+255),w,b
  6978   003AE2  B0D8               	btfsc	status,0,c
  6979   003AE4  EF76  F01D         	goto	u7601
  6980   003AE8  EF78  F01D         	goto	u7600
  6981   003AEC                     u7601:
  6982   003AEC  EF23  F01D         	goto	l6274
  6983   003AF0                     u7600:
  6984   003AF0                     l6290:
  6985                           
  6986                           ; BSR set to: 0
  6987                           ;C:\Program Files\Microchip\xc8\v2.41\pic\sources\c99\common\doprnt.c: 520:     if (s !=
      +                           0) {
  6988   003AF0  5197               	movf	dtoa@s& (0+255),w,b
  6989   003AF2  B4D8               	btfsc	status,2,c
  6990   003AF4  EF7E  F01D         	goto	u7611
  6991   003AF8  EF80  F01D         	goto	u7610
  6992   003AFC                     u7611:
  6993   003AFC  EF8B  F01D         	goto	l6296
  6994   003B00                     u7610:
  6995   003B00                     
  6996                           ; BSR set to: 0
  6997                           ;C:\Program Files\Microchip\xc8\v2.41\pic\sources\c99\common\doprnt.c: 521:         --i;
  6998   003B00  0798               	decf	dtoa@i& (0+255),f,b
  6999   003B02  A0D8               	btfss	status,0,c
  7000   003B04  0799               	decf	(dtoa@i+1)& (0+255),f,b
  7001   003B06                     
  7002                           ; BSR set to: 0
  7003                           ;C:\Program Files\Microchip\xc8\v2.41\pic\sources\c99\common\doprnt.c: 522:         dbuf
      +                          [i] = s;
  7004   003B06  0E77               	movlw	low _dbuf
  7005   003B08  2598               	addwf	dtoa@i& (0+255),w,b
  7006   003B0A  6ED9               	movwf	fsr2l,c
  7007   003B0C  0E01               	movlw	high _dbuf
  7008   003B0E  2199               	addwfc	(dtoa@i+1)& (0+255),w,b
  7009   003B10  6EDA               	movwf	fsr2h,c
  7010   003B12  C097  FFDF         	movff	dtoa@s,indf2
  7011   003B16                     l6296:
  7012                           
  7013                           ; BSR set to: 0
  7014                           ;C:\Program Files\Microchip\xc8\v2.41\pic\sources\c99\common\doprnt.c: 526:     return (
      +                          void) pad(fp, &dbuf[i], w);
  7015   003B16  C08D  F083         	movff	dtoa@fp,pad@fp
  7016   003B1A  C08E  F084         	movff	dtoa@fp+1,pad@fp+1
  7017   003B1E  0E77               	movlw	low _dbuf
  7018   003B20  2598               	addwf	dtoa@i& (0+255),w,b
  7019   003B22  6F85               	movwf	pad@buf& (0+255),b
  7020   003B24  0E01               	movlw	high _dbuf
  7021   003B26  2199               	addwfc	(dtoa@i+1)& (0+255),w,b
  7022   003B28  6F86               	movwf	(pad@buf+1)& (0+255),b
  7023   003B2A  C095  F087         	movff	dtoa@w,pad@p
  7024   003B2E  C096  F088         	movff	dtoa@w+1,pad@p+1
  7025   003B32  EC65  F022         	call	_pad	;wreg free
  7026   003B36  0012               	return		;funcret
  7027   003B38                     __end_of_dtoa:
  7028                           	callstack 0
  7029                           
  7030 ;; *************** function _pad *****************
  7031 ;; Defined at:
  7032 ;;		line 152 in file "C:\Program Files\Microchip\xc8\v2.41\pic\sources\c99\common\doprnt.c"
  7033 ;; Parameters:    Size  Location     Type
  7034 ;;  fp              2    3[BANK0 ] PTR struct _IO_FILE
  7035 ;;		 -> sprintf@f(12), 
  7036 ;;  buf             2    5[BANK0 ] PTR unsigned char 
  7037 ;;		 -> dbuf(80), 
  7038 ;;  p               2    7[BANK0 ] int 
  7039 ;; Auto vars:     Size  Location     Type
  7040 ;;  w               2   11[BANK0 ] int 
  7041 ;;  i               2    9[BANK0 ] int 
  7042 ;; Return value:  Size  Location     Type
  7043 ;;                  1    wreg      void 
  7044 ;; Registers used:
  7045 ;;		wreg, fsr1l, fsr1h, fsr2l, fsr2h, status,2, status,0, cstack
  7046 ;; Tracked objects:
  7047 ;;		On entry : 0/0
  7048 ;;		On exit  : 0/0
  7049 ;;		Unchanged: 0/0
  7050 ;; Data sizes:     COMRAM   BANK0   BANK1   BANK2   BANK3   BANK4   BANK5   BANK6   BANK7   BANK8   BANK9  BANK10  BANK1
      +1  BANK12  BANK13  BANK14  BANK15
  7051 ;;      Params:         0       6       0       0       0       0       0       0       0       0       0       0       
      +0       0       0       0       0
  7052 ;;      Locals:         0       4       0       0       0       0       0       0       0       0       0       0       
      +0       0       0       0       0
  7053 ;;      Temps:          1       0       0       0       0       0       0       0       0       0       0       0       
      +0       0       0       0       0
  7054 ;;      Totals:         1      10       0       0       0       0       0       0       0       0       0       0       
      +0       0       0       0       0
  7055 ;;Total ram usage:       11 bytes
  7056 ;; Hardware stack levels used: 1
  7057 ;; Hardware stack levels required when called: 6
  7058 ;; This function calls:
  7059 ;;		_fputc
  7060 ;;		_fputs
  7061 ;; This function is called by:
  7062 ;;		_dtoa
  7063 ;;		_efgtoa
  7064 ;; This function uses a non-reentrant model
  7065 ;;
  7066                           
  7067                           	psect	text22
  7068   0044CA                     __ptext22:
  7069                           	callstack 0
  7070   0044CA                     _pad:
  7071                           	callstack 20
  7072   0044CA                     
  7073                           ;C:\Program Files\Microchip\xc8\v2.41\pic\sources\c99\common\doprnt.c: 152: static void 
      +                          pad(FILE *fp, char *buf, int p);C:\Program Files\Microchip\xc8\v2.41\pic\sources\c99\com
      +                          mon\doprnt.c: 153: {;C:\Program Files\Microchip\xc8\v2.41\pic\sources\c99\common\doprnt.
      +                          c: 154:     int i, w;;C:\Program Files\Microchip\xc8\v2.41\pic\sources\c99\common\doprnt
      +                          .c: 158:     if (flags & (1 << 0)) {
  7074   0044CA  A054               	btfss	_flags^0,0,c
  7075   0044CC  EF6A  F022         	goto	u7231
  7076   0044D0  EF6C  F022         	goto	u7230
  7077   0044D4                     u7231:
  7078   0044D4  EF76  F022         	goto	l6134
  7079   0044D8                     u7230:
  7080   0044D8                     
  7081                           ;C:\Program Files\Microchip\xc8\v2.41\pic\sources\c99\common\doprnt.c: 159:         fput
      +                          s((const char *)buf, fp);
  7082   0044D8  C085  F02F         	movff	pad@buf,fputs@s
  7083   0044DC  C086  F030         	movff	pad@buf+1,fputs@s+1
  7084   0044E0  C083  F031         	movff	pad@fp,fputs@fp
  7085   0044E4  C084  F032         	movff	pad@fp+1,fputs@fp+1
  7086   0044E8  ECC7  F025         	call	_fputs	;wreg free
  7087   0044EC                     l6134:
  7088                           
  7089                           ;C:\Program Files\Microchip\xc8\v2.41\pic\sources\c99\common\doprnt.c: 164:     w = (p <
      +                           0) ? 0 : p;
  7090   0044EC  0100               	movlb	0	; () banked
  7091   0044EE  BF88               	btfsc	(pad@p+1)& (0+255),7,b
  7092   0044F0  EF7C  F022         	goto	u7241
  7093   0044F4  EF7E  F022         	goto	u7240
  7094   0044F8                     u7241:
  7095   0044F8  EF84  F022         	goto	l6138
  7096   0044FC                     u7240:
  7097   0044FC                     
  7098                           ; BSR set to: 0
  7099   0044FC  C087  F08B         	movff	pad@p,pad@w
  7100   004500  C088  F08C         	movff	pad@p+1,pad@w+1
  7101   004504  EF88  F022         	goto	l1055
  7102   004508                     l6138:
  7103                           
  7104                           ; BSR set to: 0
  7105   004508  0E00               	movlw	0
  7106   00450A  6F8C               	movwf	(pad@w+1)& (0+255),b
  7107   00450C  0E00               	movlw	0
  7108   00450E  6F8B               	movwf	pad@w& (0+255),b
  7109   004510                     l1055:
  7110                           
  7111                           ; BSR set to: 0
  7112                           ;C:\Program Files\Microchip\xc8\v2.41\pic\sources\c99\common\doprnt.c: 165:     i = 0;
  7113   004510  0E00               	movlw	0
  7114   004512  6F8A               	movwf	(pad@i+1)& (0+255),b
  7115   004514  0E00               	movlw	0
  7116   004516  6F89               	movwf	pad@i& (0+255),b
  7117                           
  7118                           ;C:\Program Files\Microchip\xc8\v2.41\pic\sources\c99\common\doprnt.c: 166:     while (i
      +                           < w) {
  7119   004518  EF9B  F022         	goto	l6144
  7120   00451C                     l6140:
  7121                           
  7122                           ; BSR set to: 0
  7123                           ;C:\Program Files\Microchip\xc8\v2.41\pic\sources\c99\common\doprnt.c: 167:         fput
      +                          c(' ', fp);
  7124   00451C  0E00               	movlw	0
  7125   00451E  6E27               	movwf	(fputc@c+1)^0,c
  7126   004520  0E20               	movlw	32
  7127   004522  6E26               	movwf	fputc@c^0,c
  7128   004524  C083  F028         	movff	pad@fp,fputc@fp
  7129   004528  C084  F029         	movff	pad@fp+1,fputc@fp+1
  7130   00452C  ECEA  F020         	call	_fputc	;wreg free
  7131   004530                     
  7132                           ;C:\Program Files\Microchip\xc8\v2.41\pic\sources\c99\common\doprnt.c: 168:         ++i;
  7133   004530  0100               	movlb	0	; () banked
  7134   004532  4B89               	infsnz	pad@i& (0+255),f,b
  7135   004534  2B8A               	incf	(pad@i+1)& (0+255),f,b
  7136   004536                     l6144:
  7137                           
  7138                           ; BSR set to: 0
  7139                           ;C:\Program Files\Microchip\xc8\v2.41\pic\sources\c99\common\doprnt.c: 166:     while (i
      +                           < w) {
  7140   004536  518B               	movf	pad@w& (0+255),w,b
  7141   004538  5D89               	subwf	pad@i& (0+255),w,b
  7142   00453A  518A               	movf	(pad@i+1)& (0+255),w,b
  7143   00453C  0A80               	xorlw	128
  7144   00453E  6E33               	movwf	??_pad^0,c
  7145   004540  518C               	movf	(pad@w+1)& (0+255),w,b
  7146   004542  0A80               	xorlw	128
  7147   004544  5833               	subwfb	??_pad^0,w,c
  7148   004546  A0D8               	btfss	status,0,c
  7149   004548  EFA8  F022         	goto	u7251
  7150   00454C  EFAA  F022         	goto	u7250
  7151   004550                     u7251:
  7152   004550  EF8E  F022         	goto	l6140
  7153   004554                     u7250:
  7154   004554                     
  7155                           ; BSR set to: 0
  7156                           ;C:\Program Files\Microchip\xc8\v2.41\pic\sources\c99\common\doprnt.c: 173:     if (!(fl
      +                          ags & (1 << 0))) {
  7157   004554  B054               	btfsc	_flags^0,0,c
  7158   004556  EFAF  F022         	goto	u7261
  7159   00455A  EFB1  F022         	goto	u7260
  7160   00455E                     u7261:
  7161   00455E  EFBB  F022         	goto	l1060
  7162   004562                     u7260:
  7163   004562                     
  7164                           ; BSR set to: 0
  7165                           ;C:\Program Files\Microchip\xc8\v2.41\pic\sources\c99\common\doprnt.c: 175:         fput
      +                          s((const char *)buf, fp);
  7166   004562  C085  F02F         	movff	pad@buf,fputs@s
  7167   004566  C086  F030         	movff	pad@buf+1,fputs@s+1
  7168   00456A  C083  F031         	movff	pad@fp,fputs@fp
  7169   00456E  C084  F032         	movff	pad@fp+1,fputs@fp+1
  7170   004572  ECC7  F025         	call	_fputs	;wreg free
  7171   004576                     l1060:
  7172   004576  0012               	return		;funcret
  7173   004578                     __end_of_pad:
  7174                           	callstack 0
  7175                           
  7176 ;; *************** function _fputs *****************
  7177 ;; Defined at:
  7178 ;;		line 8 in file "C:\Program Files\Microchip\xc8\v2.41\pic\sources\c99\common\nf_fputs.c"
  7179 ;; Parameters:    Size  Location     Type
  7180 ;;  s               2   46[COMRAM] PTR const unsigned char 
  7181 ;;		 -> dbuf(80), 
  7182 ;;  fp              2   48[COMRAM] PTR struct _IO_FILE
  7183 ;;		 -> sprintf@f(12), 
  7184 ;; Auto vars:     Size  Location     Type
  7185 ;;  i               2    1[BANK0 ] int 
  7186 ;;  c               1    0[BANK0 ] unsigned char 
  7187 ;; Return value:  Size  Location     Type
  7188 ;;                  2   46[COMRAM] int 
  7189 ;; Registers used:
  7190 ;;		wreg, fsr1l, fsr1h, fsr2l, fsr2h, status,2, status,0, cstack
  7191 ;; Tracked objects:
  7192 ;;		On entry : 0/0
  7193 ;;		On exit  : 0/0
  7194 ;;		Unchanged: 0/0
  7195 ;; Data sizes:     COMRAM   BANK0   BANK1   BANK2   BANK3   BANK4   BANK5   BANK6   BANK7   BANK8   BANK9  BANK10  BANK1
      +1  BANK12  BANK13  BANK14  BANK15
  7196 ;;      Params:         4       0       0       0       0       0       0       0       0       0       0       0       
      +0       0       0       0       0
  7197 ;;      Locals:         0       3       0       0       0       0       0       0       0       0       0       0       
      +0       0       0       0       0
  7198 ;;      Temps:          0       0       0       0       0       0       0       0       0       0       0       0       
      +0       0       0       0       0
  7199 ;;      Totals:         4       3       0       0       0       0       0       0       0       0       0       0       
      +0       0       0       0       0
  7200 ;;Total ram usage:        7 bytes
  7201 ;; Hardware stack levels used: 1
  7202 ;; Hardware stack levels required when called: 5
  7203 ;; This function calls:
  7204 ;;		_fputc
  7205 ;; This function is called by:
  7206 ;;		_pad
  7207 ;; This function uses a non-reentrant model
  7208 ;;
  7209                           
  7210                           	psect	text23
  7211   004B8E                     __ptext23:
  7212                           	callstack 0
  7213   004B8E                     _fputs:
  7214                           	callstack 20
  7215   004B8E  0E00               	movlw	0
  7216   004B90  0100               	movlb	0	; () banked
  7217   004B92  6F82               	movwf	(fputs@i+1)& (0+255),b
  7218   004B94  0E00               	movlw	0
  7219   004B96  6F81               	movwf	fputs@i& (0+255),b
  7220   004B98  EFDA  F025         	goto	l5662
  7221   004B9C                     l5658:
  7222                           
  7223                           ; BSR set to: 0
  7224   004B9C  C080  F026         	movff	fputs@c,fputc@c
  7225   004BA0  6A27               	clrf	(fputc@c+1)^0,c
  7226   004BA2  C031  F028         	movff	fputs@fp,fputc@fp
  7227   004BA6  C032  F029         	movff	fputs@fp+1,fputc@fp+1
  7228   004BAA  ECEA  F020         	call	_fputc	;wreg free
  7229   004BAE  0100               	movlb	0	; () banked
  7230   004BB0  4B81               	infsnz	fputs@i& (0+255),f,b
  7231   004BB2  2B82               	incf	(fputs@i+1)& (0+255),f,b
  7232   004BB4                     l5662:
  7233                           
  7234                           ; BSR set to: 0
  7235   004BB4  5181               	movf	fputs@i& (0+255),w,b
  7236   004BB6  242F               	addwf	fputs@s^0,w,c
  7237   004BB8  6ED9               	movwf	fsr2l,c
  7238   004BBA  5182               	movf	(fputs@i+1)& (0+255),w,b
  7239   004BBC  2030               	addwfc	(fputs@s+1)^0,w,c
  7240   004BBE  6EDA               	movwf	fsr2h,c
  7241   004BC0  50DF               	movf	indf2,w,c
  7242   004BC2  6F80               	movwf	fputs@c& (0+255),b
  7243   004BC4  5180               	movf	fputs@c& (0+255),w,b
  7244   004BC6  A4D8               	btfss	status,2,c
  7245   004BC8  EFE8  F025         	goto	u6511
  7246   004BCC  EFEA  F025         	goto	u6510
  7247   004BD0                     u6511:
  7248   004BD0  EFCE  F025         	goto	l5658
  7249   004BD4                     u6510:
  7250   004BD4                     
  7251                           ; BSR set to: 0
  7252   004BD4  0012               	return		;funcret
  7253   004BD6                     __end_of_fputs:
  7254                           	callstack 0
  7255                           
  7256 ;; *************** function _fputc *****************
  7257 ;; Defined at:
  7258 ;;		line 8 in file "C:\Program Files\Microchip\xc8\v2.41\pic\sources\c99\common\nf_fputc.c"
  7259 ;; Parameters:    Size  Location     Type
  7260 ;;  c               2   37[COMRAM] int 
  7261 ;;  fp              2   39[COMRAM] PTR struct _IO_FILE
  7262 ;;		 -> sprintf@f(12), 
  7263 ;; Auto vars:     Size  Location     Type
  7264 ;;		None
  7265 ;; Return value:  Size  Location     Type
  7266 ;;                  2   37[COMRAM] int 
  7267 ;; Registers used:
  7268 ;;		wreg, fsr1l, fsr1h, fsr2l, fsr2h, status,2, status,0, cstack
  7269 ;; Tracked objects:
  7270 ;;		On entry : 0/0
  7271 ;;		On exit  : 0/0
  7272 ;;		Unchanged: 0/0
  7273 ;; Data sizes:     COMRAM   BANK0   BANK1   BANK2   BANK3   BANK4   BANK5   BANK6   BANK7   BANK8   BANK9  BANK10  BANK1
      +1  BANK12  BANK13  BANK14  BANK15
  7274 ;;      Params:         4       0       0       0       0       0       0       0       0       0       0       0       
      +0       0       0       0       0
  7275 ;;      Locals:         0       0       0       0       0       0       0       0       0       0       0       0       
      +0       0       0       0       0
  7276 ;;      Temps:          5       0       0       0       0       0       0       0       0       0       0       0       
      +0       0       0       0       0
  7277 ;;      Totals:         9       0       0       0       0       0       0       0       0       0       0       0       
      +0       0       0       0       0
  7278 ;;Total ram usage:        9 bytes
  7279 ;; Hardware stack levels used: 1
  7280 ;; Hardware stack levels required when called: 4
  7281 ;; This function calls:
  7282 ;;		_putch
  7283 ;; This function is called by:
  7284 ;;		_pad
  7285 ;;		_stoa
  7286 ;;		_vfpfcnvrt
  7287 ;;		_fputs
  7288 ;; This function uses a non-reentrant model
  7289 ;;
  7290                           
  7291                           	psect	text24
  7292   0041D4                     __ptext24:
  7293                           	callstack 0
  7294   0041D4                     _fputc:
  7295                           	callstack 22
  7296   0041D4  5028               	movf	fputc@fp^0,w,c
  7297   0041D6  1029               	iorwf	(fputc@fp+1)^0,w,c
  7298   0041D8  B4D8               	btfsc	status,2,c
  7299   0041DA  EFF1  F020         	goto	u6071
  7300   0041DE  EFF3  F020         	goto	u6070
  7301   0041E2                     u6071:
  7302   0041E2  EFFC  F020         	goto	l5438
  7303   0041E6                     u6070:
  7304   0041E6  5028               	movf	fputc@fp^0,w,c
  7305   0041E8  1029               	iorwf	(fputc@fp+1)^0,w,c
  7306   0041EA  A4D8               	btfss	status,2,c
  7307   0041EC  EFFA  F020         	goto	u6081
  7308   0041F0  EFFC  F020         	goto	u6080
  7309   0041F4                     u6081:
  7310   0041F4  EF01  F021         	goto	l5440
  7311   0041F8                     u6080:
  7312   0041F8                     l5438:
  7313   0041F8  5026               	movf	fputc@c^0,w,c
  7314   0041FA  EC55  F027         	call	_putch
  7315   0041FE  EF4E  F021         	goto	l1256
  7316   004202                     l5440:
  7317   004202  EE20 F00A          	lfsr	2,10
  7318   004206  5028               	movf	fputc@fp^0,w,c
  7319   004208  26D9               	addwf	fsr2l,f,c
  7320   00420A  5029               	movf	(fputc@fp+1)^0,w,c
  7321   00420C  22DA               	addwfc	fsr2h,f,c
  7322   00420E  50DE               	movf	postinc2,w,c
  7323   004210  10DE               	iorwf	postinc2,w,c
  7324   004212  B4D8               	btfsc	status,2,c
  7325   004214  EF0E  F021         	goto	u6091
  7326   004218  EF10  F021         	goto	u6090
  7327   00421C                     u6091:
  7328   00421C  EF2B  F021         	goto	l5444
  7329   004220                     u6090:
  7330   004220  EE20 F00A          	lfsr	2,10
  7331   004224  5028               	movf	fputc@fp^0,w,c
  7332   004226  26D9               	addwf	fsr2l,f,c
  7333   004228  5029               	movf	(fputc@fp+1)^0,w,c
  7334   00422A  22DA               	addwfc	fsr2h,f,c
  7335   00422C  EE10 F003          	lfsr	1,3
  7336   004230  5028               	movf	fputc@fp^0,w,c
  7337   004232  26E1               	addwf	fsr1l,f,c
  7338   004234  5029               	movf	(fputc@fp+1)^0,w,c
  7339   004236  22E2               	addwfc	fsr1h,f,c
  7340   004238  50DE               	movf	postinc2,w,c
  7341   00423A  5CE6               	subwf	postinc1,w,c
  7342   00423C  50E6               	movf	postinc1,w,c
  7343   00423E  0A80               	xorlw	128
  7344   004240  6E2E               	movwf	(??_fputc+4)^0,c
  7345   004242  50DE               	movf	postinc2,w,c
  7346   004244  0A80               	xorlw	128
  7347   004246  582E               	subwfb	(??_fputc+4)^0,w,c
  7348   004248  B0D8               	btfsc	status,0,c
  7349   00424A  EF29  F021         	goto	u6101
  7350   00424E  EF2B  F021         	goto	u6100
  7351   004252                     u6101:
  7352   004252  EF4E  F021         	goto	l1256
  7353   004256                     u6100:
  7354   004256                     l5444:
  7355   004256  EE20 F003          	lfsr	2,3
  7356   00425A  5028               	movf	fputc@fp^0,w,c
  7357   00425C  26D9               	addwf	fsr2l,f,c
  7358   00425E  5029               	movf	(fputc@fp+1)^0,w,c
  7359   004260  22DA               	addwfc	fsr2h,f,c
  7360   004262  CFDE F02A          	movff	postinc2,??_fputc
  7361   004266  CFDD F02B          	movff	postdec2,??_fputc+1
  7362   00426A  C028  FFD9         	movff	fputc@fp,fsr2l
  7363   00426E  C029  FFDA         	movff	fputc@fp+1,fsr2h
  7364   004272  CFDE F02C          	movff	postinc2,??_fputc+2
  7365   004276  CFDD F02D          	movff	postdec2,??_fputc+3
  7366   00427A  502A               	movf	??_fputc^0,w,c
  7367   00427C  242C               	addwf	(??_fputc+2)^0,w,c
  7368   00427E  6ED9               	movwf	fsr2l,c
  7369   004280  502B               	movf	(??_fputc+1)^0,w,c
  7370   004282  202D               	addwfc	(??_fputc+3)^0,w,c
  7371   004284  6EDA               	movwf	fsr2h,c
  7372   004286  C026  FFDF         	movff	fputc@c,indf2
  7373   00428A  EE20 F003          	lfsr	2,3
  7374   00428E  5028               	movf	fputc@fp^0,w,c
  7375   004290  26D9               	addwf	fsr2l,f,c
  7376   004292  5029               	movf	(fputc@fp+1)^0,w,c
  7377   004294  22DA               	addwfc	fsr2h,f,c
  7378   004296  2ADE               	incf	postinc2,f,c
  7379   004298  0E00               	movlw	0
  7380   00429A  22DD               	addwfc	postdec2,f,c
  7381   00429C                     l1256:
  7382   00429C  0012               	return		;funcret
  7383   00429E                     __end_of_fputc:
  7384                           	callstack 0
  7385                           
  7386 ;; *************** function _putch *****************
  7387 ;; Defined at:
  7388 ;;		line 7 in file "C:\Program Files\Microchip\xc8\v2.41\pic\sources\c99\common\putch.c"
  7389 ;; Parameters:    Size  Location     Type
  7390 ;;  c               1    wreg     unsigned char 
  7391 ;; Auto vars:     Size  Location     Type
  7392 ;;  c               1    0[COMRAM] unsigned char 
  7393 ;; Return value:  Size  Location     Type
  7394 ;;                  1    wreg      void 
  7395 ;; Registers used:
  7396 ;;		wreg
  7397 ;; Tracked objects:
  7398 ;;		On entry : 0/0
  7399 ;;		On exit  : 0/0
  7400 ;;		Unchanged: 0/0
  7401 ;; Data sizes:     COMRAM   BANK0   BANK1   BANK2   BANK3   BANK4   BANK5   BANK6   BANK7   BANK8   BANK9  BANK10  BANK1
      +1  BANK12  BANK13  BANK14  BANK15
  7402 ;;      Params:         0       0       0       0       0       0       0       0       0       0       0       0       
      +0       0       0       0       0
  7403 ;;      Locals:         0       0       0       0       0       0       0       0       0       0       0       0       
      +0       0       0       0       0
  7404 ;;      Temps:          0       0       0       0       0       0       0       0       0       0       0       0       
      +0       0       0       0       0
  7405 ;;      Totals:         0       0       0       0       0       0       0       0       0       0       0       0       
      +0       0       0       0       0
  7406 ;;Total ram usage:        0 bytes
  7407 ;; Hardware stack levels used: 1
  7408 ;; Hardware stack levels required when called: 3
  7409 ;; This function calls:
  7410 ;;		Nothing
  7411 ;; This function is called by:
  7412 ;;		_fputc
  7413 ;; This function uses a non-reentrant model
  7414 ;;
  7415                           
  7416                           	psect	text25
  7417   004EAA                     __ptext25:
  7418                           	callstack 0
  7419   004EAA                     _putch:
  7420                           	callstack 22
  7421   004EAA  0012               	return		;funcret
  7422   004EAC                     __end_of_putch:
  7423                           	callstack 0
  7424                           
  7425 ;; *************** function _abs *****************
  7426 ;; Defined at:
  7427 ;;		line 1 in file "C:\Program Files\Microchip\xc8\v2.41\pic\sources\c99\common\abs.c"
  7428 ;; Parameters:    Size  Location     Type
  7429 ;;  a               2   43[COMRAM] int 
  7430 ;; Auto vars:     Size  Location     Type
  7431 ;;		None
  7432 ;; Return value:  Size  Location     Type
  7433 ;;                  2   43[COMRAM] int 
  7434 ;; Registers used:
  7435 ;;		wreg, status,2, status,0
  7436 ;; Tracked objects:
  7437 ;;		On entry : 0/0
  7438 ;;		On exit  : 0/0
  7439 ;;		Unchanged: 0/0
  7440 ;; Data sizes:     COMRAM   BANK0   BANK1   BANK2   BANK3   BANK4   BANK5   BANK6   BANK7   BANK8   BANK9  BANK10  BANK1
      +1  BANK12  BANK13  BANK14  BANK15
  7441 ;;      Params:         2       0       0       0       0       0       0       0       0       0       0       0       
      +0       0       0       0       0
  7442 ;;      Locals:         0       0       0       0       0       0       0       0       0       0       0       0       
      +0       0       0       0       0
  7443 ;;      Temps:          2       0       0       0       0       0       0       0       0       0       0       0       
      +0       0       0       0       0
  7444 ;;      Totals:         4       0       0       0       0       0       0       0       0       0       0       0       
      +0       0       0       0       0
  7445 ;;Total ram usage:        4 bytes
  7446 ;; Hardware stack levels used: 1
  7447 ;; Hardware stack levels required when called: 3
  7448 ;; This function calls:
  7449 ;;		Nothing
  7450 ;; This function is called by:
  7451 ;;		_dtoa
  7452 ;; This function uses a non-reentrant model
  7453 ;;
  7454                           
  7455                           	psect	text26
  7456   004C5A                     __ptext26:
  7457                           	callstack 0
  7458   004C5A                     _abs:
  7459                           	callstack 23
  7460   004C5A  BE2D               	btfsc	(abs@a+1)^0,7,c
  7461   004C5C  EF3A  F026         	goto	u7270
  7462   004C60  502D               	movf	(abs@a+1)^0,w,c
  7463   004C62  E106               	bnz	u7271
  7464   004C64  042C               	decf	abs@a^0,w,c
  7465   004C66  B0D8               	btfsc	status,0,c
  7466   004C68  EF38  F026         	goto	u7271
  7467   004C6C  EF3A  F026         	goto	u7270
  7468   004C70                     u7271:
  7469   004C70  EF48  F026         	goto	l1215
  7470   004C74                     u7270:
  7471   004C74  C02C  F02E         	movff	abs@a,??_abs
  7472   004C78  C02D  F02F         	movff	abs@a+1,??_abs+1
  7473   004C7C  1E2E               	comf	??_abs^0,f,c
  7474   004C7E  1E2F               	comf	(??_abs+1)^0,f,c
  7475   004C80  4A2E               	infsnz	??_abs^0,f,c
  7476   004C82  2A2F               	incf	(??_abs+1)^0,f,c
  7477   004C84  C02E  F02C         	movff	??_abs,?_abs
  7478   004C88  C02F  F02D         	movff	??_abs+1,?_abs+1
  7479   004C8C  EF4C  F026         	goto	l1218
  7480   004C90                     l1215:
  7481   004C90  C02C  F02C         	movff	abs@a,?_abs
  7482   004C94  C02D  F02D         	movff	abs@a+1,?_abs+1
  7483   004C98                     l1218:
  7484   004C98  0012               	return		;funcret
  7485   004C9A                     __end_of_abs:
  7486                           	callstack 0
  7487                           
  7488 ;; *************** function ___awmod *****************
  7489 ;; Defined at:
  7490 ;;		line 7 in file "C:\Program Files\Microchip\xc8\v2.41\pic\sources\c99\common\awmod.c"
  7491 ;; Parameters:    Size  Location     Type
  7492 ;;  dividend        2   37[COMRAM] int 
  7493 ;;  divisor         2   39[COMRAM] int 
  7494 ;; Auto vars:     Size  Location     Type
  7495 ;;  sign            1   42[COMRAM] unsigned char 
  7496 ;;  counter         1   41[COMRAM] unsigned char 
  7497 ;; Return value:  Size  Location     Type
  7498 ;;                  2   37[COMRAM] int 
  7499 ;; Registers used:
  7500 ;;		wreg, status,2, status,0
  7501 ;; Tracked objects:
  7502 ;;		On entry : 0/0
  7503 ;;		On exit  : 0/0
  7504 ;;		Unchanged: 0/0
  7505 ;; Data sizes:     COMRAM   BANK0   BANK1   BANK2   BANK3   BANK4   BANK5   BANK6   BANK7   BANK8   BANK9  BANK10  BANK1
      +1  BANK12  BANK13  BANK14  BANK15
  7506 ;;      Params:         4       0       0       0       0       0       0       0       0       0       0       0       
      +0       0       0       0       0
  7507 ;;      Locals:         2       0       0       0       0       0       0       0       0       0       0       0       
      +0       0       0       0       0
  7508 ;;      Temps:          0       0       0       0       0       0       0       0       0       0       0       0       
      +0       0       0       0       0
  7509 ;;      Totals:         6       0       0       0       0       0       0       0       0       0       0       0       
      +0       0       0       0       0
  7510 ;;Total ram usage:        6 bytes
  7511 ;; Hardware stack levels used: 1
  7512 ;; Hardware stack levels required when called: 3
  7513 ;; This function calls:
  7514 ;;		Nothing
  7515 ;; This function is called by:
  7516 ;;		_dtoa
  7517 ;; This function uses a non-reentrant model
  7518 ;;
  7519                           
  7520                           	psect	text27
  7521   00441A                     __ptext27:
  7522                           	callstack 0
  7523   00441A                     ___awmod:
  7524                           	callstack 23
  7525   00441A  0E00               	movlw	0
  7526   00441C  6E2B               	movwf	___awmod@sign^0,c
  7527   00441E  BE27               	btfsc	(___awmod@dividend+1)^0,7,c
  7528   004420  EF16  F022         	goto	u7010
  7529   004424  EF14  F022         	goto	u7011
  7530   004428                     u7011:
  7531   004428  EF1C  F022         	goto	l6012
  7532   00442C                     u7010:
  7533   00442C  6C26               	negf	___awmod@dividend^0,c
  7534   00442E  1E27               	comf	(___awmod@dividend+1)^0,f,c
  7535   004430  B0D8               	btfsc	status,0,c
  7536   004432  2A27               	incf	(___awmod@dividend+1)^0,f,c
  7537   004434  0E01               	movlw	1
  7538   004436  6E2B               	movwf	___awmod@sign^0,c
  7539   004438                     l6012:
  7540   004438  BE29               	btfsc	(___awmod@divisor+1)^0,7,c
  7541   00443A  EF23  F022         	goto	u7020
  7542   00443E  EF21  F022         	goto	u7021
  7543   004442                     u7021:
  7544   004442  EF27  F022         	goto	l6016
  7545   004446                     u7020:
  7546   004446  6C28               	negf	___awmod@divisor^0,c
  7547   004448  1E29               	comf	(___awmod@divisor+1)^0,f,c
  7548   00444A  B0D8               	btfsc	status,0,c
  7549   00444C  2A29               	incf	(___awmod@divisor+1)^0,f,c
  7550   00444E                     l6016:
  7551   00444E  5028               	movf	___awmod@divisor^0,w,c
  7552   004450  1029               	iorwf	(___awmod@divisor+1)^0,w,c
  7553   004452  B4D8               	btfsc	status,2,c
  7554   004454  EF2E  F022         	goto	u7031
  7555   004458  EF30  F022         	goto	u7030
  7556   00445C                     u7031:
  7557   00445C  EF54  F022         	goto	l6032
  7558   004460                     u7030:
  7559   004460  0E01               	movlw	1
  7560   004462  6E2A               	movwf	___awmod@counter^0,c
  7561   004464  EF38  F022         	goto	l6022
  7562   004468                     l6020:
  7563   004468  90D8               	bcf	status,0,c
  7564   00446A  3628               	rlcf	___awmod@divisor^0,f,c
  7565   00446C  3629               	rlcf	(___awmod@divisor+1)^0,f,c
  7566   00446E  2A2A               	incf	___awmod@counter^0,f,c
  7567   004470                     l6022:
  7568   004470  AE29               	btfss	(___awmod@divisor+1)^0,7,c
  7569   004472  EF3D  F022         	goto	u7041
  7570   004476  EF3F  F022         	goto	u7040
  7571   00447A                     u7041:
  7572   00447A  EF34  F022         	goto	l6020
  7573   00447E                     u7040:
  7574   00447E                     l6024:
  7575   00447E  5028               	movf	___awmod@divisor^0,w,c
  7576   004480  5C26               	subwf	___awmod@dividend^0,w,c
  7577   004482  5029               	movf	(___awmod@divisor+1)^0,w,c
  7578   004484  5827               	subwfb	(___awmod@dividend+1)^0,w,c
  7579   004486  A0D8               	btfss	status,0,c
  7580   004488  EF48  F022         	goto	u7051
  7581   00448C  EF4A  F022         	goto	u7050
  7582   004490                     u7051:
  7583   004490  EF4E  F022         	goto	l6028
  7584   004494                     u7050:
  7585   004494  5028               	movf	___awmod@divisor^0,w,c
  7586   004496  5E26               	subwf	___awmod@dividend^0,f,c
  7587   004498  5029               	movf	(___awmod@divisor+1)^0,w,c
  7588   00449A  5A27               	subwfb	(___awmod@dividend+1)^0,f,c
  7589   00449C                     l6028:
  7590   00449C  90D8               	bcf	status,0,c
  7591   00449E  3229               	rrcf	(___awmod@divisor+1)^0,f,c
  7592   0044A0  3228               	rrcf	___awmod@divisor^0,f,c
  7593   0044A2  2E2A               	decfsz	___awmod@counter^0,f,c
  7594   0044A4  EF3F  F022         	goto	l6024
  7595   0044A8                     l6032:
  7596   0044A8  502B               	movf	___awmod@sign^0,w,c
  7597   0044AA  B4D8               	btfsc	status,2,c
  7598   0044AC  EF5A  F022         	goto	u7061
  7599   0044B0  EF5C  F022         	goto	u7060
  7600   0044B4                     u7061:
  7601   0044B4  EF60  F022         	goto	l6036
  7602   0044B8                     u7060:
  7603   0044B8  6C26               	negf	___awmod@dividend^0,c
  7604   0044BA  1E27               	comf	(___awmod@dividend+1)^0,f,c
  7605   0044BC  B0D8               	btfsc	status,0,c
  7606   0044BE  2A27               	incf	(___awmod@dividend+1)^0,f,c
  7607   0044C0                     l6036:
  7608   0044C0  C026  F026         	movff	___awmod@dividend,?___awmod
  7609   0044C4  C027  F027         	movff	___awmod@dividend+1,?___awmod+1
  7610   0044C8  0012               	return		;funcret
  7611   0044CA                     __end_of___awmod:
  7612                           	callstack 0
  7613                           
  7614 ;; *************** function ___awdiv *****************
  7615 ;; Defined at:
  7616 ;;		line 7 in file "C:\Program Files\Microchip\xc8\v2.41\pic\sources\c99\common\awdiv.c"
  7617 ;; Parameters:    Size  Location     Type
  7618 ;;  dividend        2   37[COMRAM] int 
  7619 ;;  divisor         2   39[COMRAM] int 
  7620 ;; Auto vars:     Size  Location     Type
  7621 ;;  quotient        2   43[COMRAM] int 
  7622 ;;  sign            1   42[COMRAM] unsigned char 
  7623 ;;  counter         1   41[COMRAM] unsigned char 
  7624 ;; Return value:  Size  Location     Type
  7625 ;;                  2   37[COMRAM] int 
  7626 ;; Registers used:
  7627 ;;		wreg, status,2, status,0
  7628 ;; Tracked objects:
  7629 ;;		On entry : 0/0
  7630 ;;		On exit  : 0/0
  7631 ;;		Unchanged: 0/0
  7632 ;; Data sizes:     COMRAM   BANK0   BANK1   BANK2   BANK3   BANK4   BANK5   BANK6   BANK7   BANK8   BANK9  BANK10  BANK1
      +1  BANK12  BANK13  BANK14  BANK15
  7633 ;;      Params:         4       0       0       0       0       0       0       0       0       0       0       0       
      +0       0       0       0       0
  7634 ;;      Locals:         4       0       0       0       0       0       0       0       0       0       0       0       
      +0       0       0       0       0
  7635 ;;      Temps:          0       0       0       0       0       0       0       0       0       0       0       0       
      +0       0       0       0       0
  7636 ;;      Totals:         8       0       0       0       0       0       0       0       0       0       0       0       
      +0       0       0       0       0
  7637 ;;Total ram usage:        8 bytes
  7638 ;; Hardware stack levels used: 1
  7639 ;; Hardware stack levels required when called: 3
  7640 ;; This function calls:
  7641 ;;		Nothing
  7642 ;; This function is called by:
  7643 ;;		_dtoa
  7644 ;;		_incrementClock
  7645 ;;		_decrementClock
  7646 ;; This function uses a non-reentrant model
  7647 ;;
  7648                           
  7649                           	psect	text28
  7650   00429E                     __ptext28:
  7651                           	callstack 0
  7652   00429E                     ___awdiv:
  7653                           	callstack 23
  7654   00429E  0E00               	movlw	0
  7655   0042A0  6E2B               	movwf	___awdiv@sign^0,c
  7656   0042A2  BE29               	btfsc	(___awdiv@divisor+1)^0,7,c
  7657   0042A4  EF58  F021         	goto	u6950
  7658   0042A8  EF56  F021         	goto	u6951
  7659   0042AC                     u6951:
  7660   0042AC  EF5E  F021         	goto	l5968
  7661   0042B0                     u6950:
  7662   0042B0  6C28               	negf	___awdiv@divisor^0,c
  7663   0042B2  1E29               	comf	(___awdiv@divisor+1)^0,f,c
  7664   0042B4  B0D8               	btfsc	status,0,c
  7665   0042B6  2A29               	incf	(___awdiv@divisor+1)^0,f,c
  7666   0042B8  0E01               	movlw	1
  7667   0042BA  6E2B               	movwf	___awdiv@sign^0,c
  7668   0042BC                     l5968:
  7669   0042BC  BE27               	btfsc	(___awdiv@dividend+1)^0,7,c
  7670   0042BE  EF65  F021         	goto	u6960
  7671   0042C2  EF63  F021         	goto	u6961
  7672   0042C6                     u6961:
  7673   0042C6  EF6B  F021         	goto	l5974
  7674   0042CA                     u6960:
  7675   0042CA  6C26               	negf	___awdiv@dividend^0,c
  7676   0042CC  1E27               	comf	(___awdiv@dividend+1)^0,f,c
  7677   0042CE  B0D8               	btfsc	status,0,c
  7678   0042D0  2A27               	incf	(___awdiv@dividend+1)^0,f,c
  7679   0042D2  0E01               	movlw	1
  7680   0042D4  1A2B               	xorwf	___awdiv@sign^0,f,c
  7681   0042D6                     l5974:
  7682   0042D6  0E00               	movlw	0
  7683   0042D8  6E2D               	movwf	(___awdiv@quotient+1)^0,c
  7684   0042DA  0E00               	movlw	0
  7685   0042DC  6E2C               	movwf	___awdiv@quotient^0,c
  7686   0042DE  5028               	movf	___awdiv@divisor^0,w,c
  7687   0042E0  1029               	iorwf	(___awdiv@divisor+1)^0,w,c
  7688   0042E2  B4D8               	btfsc	status,2,c
  7689   0042E4  EF76  F021         	goto	u6971
  7690   0042E8  EF78  F021         	goto	u6970
  7691   0042EC                     u6971:
  7692   0042EC  EFA0  F021         	goto	l5996
  7693   0042F0                     u6970:
  7694   0042F0  0E01               	movlw	1
  7695   0042F2  6E2A               	movwf	___awdiv@counter^0,c
  7696   0042F4  EF80  F021         	goto	l5982
  7697   0042F8                     l5980:
  7698   0042F8  90D8               	bcf	status,0,c
  7699   0042FA  3628               	rlcf	___awdiv@divisor^0,f,c
  7700   0042FC  3629               	rlcf	(___awdiv@divisor+1)^0,f,c
  7701   0042FE  2A2A               	incf	___awdiv@counter^0,f,c
  7702   004300                     l5982:
  7703   004300  AE29               	btfss	(___awdiv@divisor+1)^0,7,c
  7704   004302  EF85  F021         	goto	u6981
  7705   004306  EF87  F021         	goto	u6980
  7706   00430A                     u6981:
  7707   00430A  EF7C  F021         	goto	l5980
  7708   00430E                     u6980:
  7709   00430E                     l5984:
  7710   00430E  90D8               	bcf	status,0,c
  7711   004310  362C               	rlcf	___awdiv@quotient^0,f,c
  7712   004312  362D               	rlcf	(___awdiv@quotient+1)^0,f,c
  7713   004314  5028               	movf	___awdiv@divisor^0,w,c
  7714   004316  5C26               	subwf	___awdiv@dividend^0,w,c
  7715   004318  5029               	movf	(___awdiv@divisor+1)^0,w,c
  7716   00431A  5827               	subwfb	(___awdiv@dividend+1)^0,w,c
  7717   00431C  A0D8               	btfss	status,0,c
  7718   00431E  EF93  F021         	goto	u6991
  7719   004322  EF95  F021         	goto	u6990
  7720   004326                     u6991:
  7721   004326  EF9A  F021         	goto	l5992
  7722   00432A                     u6990:
  7723   00432A  5028               	movf	___awdiv@divisor^0,w,c
  7724   00432C  5E26               	subwf	___awdiv@dividend^0,f,c
  7725   00432E  5029               	movf	(___awdiv@divisor+1)^0,w,c
  7726   004330  5A27               	subwfb	(___awdiv@dividend+1)^0,f,c
  7727   004332  802C               	bsf	___awdiv@quotient^0,0,c
  7728   004334                     l5992:
  7729   004334  90D8               	bcf	status,0,c
  7730   004336  3229               	rrcf	(___awdiv@divisor+1)^0,f,c
  7731   004338  3228               	rrcf	___awdiv@divisor^0,f,c
  7732   00433A  2E2A               	decfsz	___awdiv@counter^0,f,c
  7733   00433C  EF87  F021         	goto	l5984
  7734   004340                     l5996:
  7735   004340  502B               	movf	___awdiv@sign^0,w,c
  7736   004342  B4D8               	btfsc	status,2,c
  7737   004344  EFA6  F021         	goto	u7001
  7738   004348  EFA8  F021         	goto	u7000
  7739   00434C                     u7001:
  7740   00434C  EFAC  F021         	goto	l6000
  7741   004350                     u7000:
  7742   004350  6C2C               	negf	___awdiv@quotient^0,c
  7743   004352  1E2D               	comf	(___awdiv@quotient+1)^0,f,c
  7744   004354  B0D8               	btfsc	status,0,c
  7745   004356  2A2D               	incf	(___awdiv@quotient+1)^0,f,c
  7746   004358                     l6000:
  7747   004358  C02C  F026         	movff	___awdiv@quotient,?___awdiv
  7748   00435C  C02D  F027         	movff	___awdiv@quotient+1,?___awdiv+1
  7749   004360  0012               	return		;funcret
  7750   004362                     __end_of___awdiv:
  7751                           	callstack 0
  7752                           
  7753 ;; *************** function _setupPorts *****************
  7754 ;; Defined at:
  7755 ;;		line 136 in file "mainprojcet.c"
  7756 ;; Parameters:    Size  Location     Type
  7757 ;;		None
  7758 ;; Auto vars:     Size  Location     Type
  7759 ;;		None
  7760 ;; Return value:  Size  Location     Type
  7761 ;;                  1    wreg      void 
  7762 ;; Registers used:
  7763 ;;		wreg, status,2
  7764 ;; Tracked objects:
  7765 ;;		On entry : 0/0
  7766 ;;		On exit  : 0/0
  7767 ;;		Unchanged: 0/0
  7768 ;; Data sizes:     COMRAM   BANK0   BANK1   BANK2   BANK3   BANK4   BANK5   BANK6   BANK7   BANK8   BANK9  BANK10  BANK1
      +1  BANK12  BANK13  BANK14  BANK15
  7769 ;;      Params:         0       0       0       0       0       0       0       0       0       0       0       0       
      +0       0       0       0       0
  7770 ;;      Locals:         0       0       0       0       0       0       0       0       0       0       0       0       
      +0       0       0       0       0
  7771 ;;      Temps:          0       0       0       0       0       0       0       0       0       0       0       0       
      +0       0       0       0       0
  7772 ;;      Totals:         0       0       0       0       0       0       0       0       0       0       0       0       
      +0       0       0       0       0
  7773 ;;Total ram usage:        0 bytes
  7774 ;; Hardware stack levels used: 1
  7775 ;; Hardware stack levels required when called: 3
  7776 ;; This function calls:
  7777 ;;		Nothing
  7778 ;; This function is called by:
  7779 ;;		_main
  7780 ;; This function uses a non-reentrant model
  7781 ;;
  7782                           
  7783                           	psect	text29
  7784   004E6E                     __ptext29:
  7785                           	callstack 0
  7786   004E6E                     _setupPorts:
  7787                           	callstack 27
  7788   004E6E                     
  7789                           ;mainprojcet.c: 137:     }
  7790   004E6E  0E00               	movlw	0
  7791   004E70  6EC2               	movwf	194,c	;volatile
  7792                           
  7793                           ;mainprojcet.c: 138: 
  7794   004E72  0E0C               	movlw	12
  7795   004E74  6EC1               	movwf	193,c	;volatile
  7796   004E76                     
  7797                           ;mainprojcet.c: 139:     if(time > 36000){
  7798   004E76  6893               	setf	147,c	;volatile
  7799                           
  7800                           ;mainprojcet.c: 140:         time = 36000;
  7801   004E78  0E80               	movlw	128
  7802   004E7A  6E94               	movwf	148,c	;volatile
  7803   004E7C                     
  7804                           ;mainprojcet.c: 141:     }
  7805   004E7C  6892               	setf	146,c	;volatile
  7806                           
  7807                           ;mainprojcet.c: 142:      hours = time / 3600;
  7808   004E7E  0E00               	movlw	0
  7809   004E80  6E95               	movwf	149,c	;volatile
  7810                           
  7811                           ;mainprojcet.c: 143:      minutes = (time - hours*3600)/60;
  7812   004E82  0E00               	movlw	0
  7813   004E84  6E96               	movwf	150,c	;volatile
  7814   004E86  0012               	return		;funcret
  7815   004E88                     __end_of_setupPorts:
  7816                           	callstack 0
  7817                           
  7818 ;; *************** function _read_adc_voltage *****************
  7819 ;; Defined at:
  7820 ;;		line 48 in file "my_adc.c"
  7821 ;; Parameters:    Size  Location     Type
  7822 ;;  channel         1    wreg     unsigned char 
  7823 ;; Auto vars:     Size  Location     Type
  7824 ;;  channel         1   58[BANK0 ] unsigned char 
  7825 ;;  voltage         4   54[BANK0 ] float 
  7826 ;;  raw_value       2   59[BANK0 ] int 
  7827 ;; Return value:  Size  Location     Type
  7828 ;;                  4   50[BANK0 ] float 
  7829 ;; Registers used:
  7830 ;;		wreg, status,2, status,0, prodl, prodh, cstack
  7831 ;; Tracked objects:
  7832 ;;		On entry : 0/0
  7833 ;;		On exit  : 0/0
  7834 ;;		Unchanged: 0/0
  7835 ;; Data sizes:     COMRAM   BANK0   BANK1   BANK2   BANK3   BANK4   BANK5   BANK6   BANK7   BANK8   BANK9  BANK10  BANK1
      +1  BANK12  BANK13  BANK14  BANK15
  7836 ;;      Params:         0       4       0       0       0       0       0       0       0       0       0       0       
      +0       0       0       0       0
  7837 ;;      Locals:         0       7       0       0       0       0       0       0       0       0       0       0       
      +0       0       0       0       0
  7838 ;;      Temps:          0       0       0       0       0       0       0       0       0       0       0       0       
      +0       0       0       0       0
  7839 ;;      Totals:         0      11       0       0       0       0       0       0       0       0       0       0       
      +0       0       0       0       0
  7840 ;;Total ram usage:       11 bytes
  7841 ;; Hardware stack levels used: 1
  7842 ;; Hardware stack levels required when called: 4
  7843 ;; This function calls:
  7844 ;;		___fldiv
  7845 ;;		___flmul
  7846 ;;		___xxtofl
  7847 ;;		_read_adc_raw_no_lib
  7848 ;; This function is called by:
  7849 ;;		_main
  7850 ;; This function uses a non-reentrant model
  7851 ;;
  7852                           
  7853                           	psect	text30
  7854   0046CC                     __ptext30:
  7855                           	callstack 0
  7856   0046CC                     _read_adc_voltage:
  7857                           	callstack 26
  7858                           
  7859                           ;incstack = 0
  7860                           ;read_adc_voltage@channel stored from wreg
  7861   0046CC  0100               	movlb	0	; () banked
  7862   0046CE  6FBA               	movwf	read_adc_voltage@channel& (0+255),b
  7863   0046D0                     
  7864                           ;my_adc.c: 49:     int raw_value;;my_adc.c: 50:     float voltage;;my_adc.c: 51:     raw
      +                          _value = read_adc_raw_no_lib(channel);
  7865   0046D0  0100               	movlb	0	; () banked
  7866   0046D2  51BA               	movf	read_adc_voltage@channel& (0+255),w,b
  7867   0046D4  ECEB  F025         	call	_read_adc_raw_no_lib
  7868   0046D8  C026  F0BB         	movff	?_read_adc_raw_no_lib,read_adc_voltage@raw_value
  7869   0046DC  C027  F0BC         	movff	?_read_adc_raw_no_lib+1,read_adc_voltage@raw_value+1
  7870   0046E0                     
  7871                           ;my_adc.c: 52:     voltage = (raw_value * 5.0) / 1023.0;
  7872   0046E0  0E00               	movlw	0
  7873   0046E2  0100               	movlb	0	; () banked
  7874   0046E4  6F84               	movwf	___flmul@a& (0+255),b
  7875   0046E6  0E00               	movlw	0
  7876   0046E8  6F85               	movwf	(___flmul@a+1)& (0+255),b
  7877   0046EA  0EA0               	movlw	160
  7878   0046EC  6F86               	movwf	(___flmul@a+2)& (0+255),b
  7879   0046EE  0E40               	movlw	64
  7880   0046F0  6F87               	movwf	(___flmul@a+3)& (0+255),b
  7881   0046F2  C0BB  F026         	movff	read_adc_voltage@raw_value,___xxtofl@val
  7882   0046F6  C0BC  F027         	movff	read_adc_voltage@raw_value+1,___xxtofl@val+1
  7883   0046FA  0E00               	movlw	0
  7884   0046FC  BE27               	btfsc	(___xxtofl@val+1)^0,7,c
  7885   0046FE  0EFF               	movlw	-1
  7886   004700  6E28               	movwf	(___xxtofl@val+2)^0,c
  7887   004702  6E29               	movwf	(___xxtofl@val+3)^0,c
  7888   004704  0E01               	movlw	1
  7889   004706  EC4D  F01A         	call	___xxtofl
  7890   00470A  C026  F080         	movff	?___xxtofl,___flmul@b
  7891   00470E  C027  F081         	movff	?___xxtofl+1,___flmul@b+1
  7892   004712  C028  F082         	movff	?___xxtofl+2,___flmul@b+2
  7893   004716  C029  F083         	movff	?___xxtofl+3,___flmul@b+3
  7894   00471A  ECA1  F00F         	call	___flmul	;wreg free
  7895   00471E  C080  F099         	movff	?___flmul,___fldiv@b
  7896   004722  C081  F09A         	movff	?___flmul+1,___fldiv@b+1
  7897   004726  C082  F09B         	movff	?___flmul+2,___fldiv@b+2
  7898   00472A  C083  F09C         	movff	?___flmul+3,___fldiv@b+3
  7899   00472E  0E00               	movlw	0
  7900   004730  0100               	movlb	0	; () banked
  7901   004732  6F9D               	movwf	___fldiv@a& (0+255),b
  7902   004734  0EC0               	movlw	192
  7903   004736  6F9E               	movwf	(___fldiv@a+1)& (0+255),b
  7904   004738  0E7F               	movlw	127
  7905   00473A  6F9F               	movwf	(___fldiv@a+2)& (0+255),b
  7906   00473C  0E44               	movlw	68
  7907   00473E  6FA0               	movwf	(___fldiv@a+3)& (0+255),b
  7908   004740  ECA7  F015         	call	___fldiv	;wreg free
  7909   004744  C099  F0B6         	movff	?___fldiv,read_adc_voltage@voltage
  7910   004748  C09A  F0B7         	movff	?___fldiv+1,read_adc_voltage@voltage+1
  7911   00474C  C09B  F0B8         	movff	?___fldiv+2,read_adc_voltage@voltage+2
  7912   004750  C09C  F0B9         	movff	?___fldiv+3,read_adc_voltage@voltage+3
  7913   004754                     
  7914                           ;my_adc.c: 53:     return voltage;
  7915   004754  C0B6  F0B2         	movff	read_adc_voltage@voltage,?_read_adc_voltage
  7916   004758  C0B7  F0B3         	movff	read_adc_voltage@voltage+1,?_read_adc_voltage+1
  7917   00475C  C0B8  F0B4         	movff	read_adc_voltage@voltage+2,?_read_adc_voltage+2
  7918   004760  C0B9  F0B5         	movff	read_adc_voltage@voltage+3,?_read_adc_voltage+3
  7919   004764  0012               	return		;funcret
  7920   004766                     __end_of_read_adc_voltage:
  7921                           	callstack 0
  7922                           
  7923 ;; *************** function _read_adc_raw_no_lib *****************
  7924 ;; Defined at:
  7925 ;;		line 32 in file "my_adc.c"
  7926 ;; Parameters:    Size  Location     Type
  7927 ;;  channel         1    wreg     unsigned char 
  7928 ;; Auto vars:     Size  Location     Type
  7929 ;;  channel         1   43[COMRAM] unsigned char 
  7930 ;;  raw_value       2   41[COMRAM] int 
  7931 ;; Return value:  Size  Location     Type
  7932 ;;                  2   37[COMRAM] int 
  7933 ;; Registers used:
  7934 ;;		wreg, status,2, status,0
  7935 ;; Tracked objects:
  7936 ;;		On entry : 0/0
  7937 ;;		On exit  : 0/0
  7938 ;;		Unchanged: 0/0
  7939 ;; Data sizes:     COMRAM   BANK0   BANK1   BANK2   BANK3   BANK4   BANK5   BANK6   BANK7   BANK8   BANK9  BANK10  BANK1
      +1  BANK12  BANK13  BANK14  BANK15
  7940 ;;      Params:         2       0       0       0       0       0       0       0       0       0       0       0       
      +0       0       0       0       0
  7941 ;;      Locals:         3       0       0       0       0       0       0       0       0       0       0       0       
      +0       0       0       0       0
  7942 ;;      Temps:          2       0       0       0       0       0       0       0       0       0       0       0       
      +0       0       0       0       0
  7943 ;;      Totals:         7       0       0       0       0       0       0       0       0       0       0       0       
      +0       0       0       0       0
  7944 ;;Total ram usage:        7 bytes
  7945 ;; Hardware stack levels used: 1
  7946 ;; Hardware stack levels required when called: 3
  7947 ;; This function calls:
  7948 ;;		Nothing
  7949 ;; This function is called by:
  7950 ;;		_read_adc_voltage
  7951 ;; This function uses a non-reentrant model
  7952 ;;
  7953                           
  7954                           	psect	text31
  7955   004BD6                     __ptext31:
  7956                           	callstack 0
  7957   004BD6                     _read_adc_raw_no_lib:
  7958                           	callstack 26
  7959                           
  7960                           ;incstack = 0
  7961                           ;read_adc_raw_no_lib@channel stored from wreg
  7962   004BD6  6E2C               	movwf	read_adc_raw_no_lib@channel^0,c
  7963   004BD8                     
  7964                           ;my_adc.c: 33:     int raw_value;;my_adc.c: 34:     ADCON0bits.CHS = channel;
  7965   004BD8  C02C  F028         	movff	read_adc_raw_no_lib@channel,??_read_adc_raw_no_lib
  7966   004BDC  4628               	rlncf	??_read_adc_raw_no_lib^0,f,c
  7967   004BDE  4628               	rlncf	??_read_adc_raw_no_lib^0,f,c
  7968   004BE0  50C2               	movf	194,w,c	;volatile
  7969   004BE2  1828               	xorwf	??_read_adc_raw_no_lib^0,w,c
  7970   004BE4  0BC3               	andlw	-61
  7971   004BE6  1828               	xorwf	??_read_adc_raw_no_lib^0,w,c
  7972   004BE8  6EC2               	movwf	194,c	;volatile
  7973   004BEA                     
  7974                           ;my_adc.c: 37:     ADCON0bits.GO = 1;
  7975   004BEA  82C2               	bsf	194,1,c	;volatile
  7976   004BEC                     l331:
  7977   004BEC  B2C2               	btfsc	194,1,c	;volatile
  7978   004BEE  EFFB  F025         	goto	u5191
  7979   004BF2  EFFD  F025         	goto	u5190
  7980   004BF6                     u5191:
  7981   004BF6  EFF6  F025         	goto	l331
  7982   004BFA                     u5190:
  7983   004BFA                     
  7984                           ;my_adc.c: 41:     raw_value = ADRESH << 8 | ADRESL;
  7985   004BFA  50C3               	movf	195,w,c	;volatile
  7986   004BFC  CFC4 F028          	movff	4036,??_read_adc_raw_no_lib	;volatile
  7987   004C00  6A29               	clrf	(??_read_adc_raw_no_lib+1)^0,c
  7988   004C02  C028  F029         	movff	??_read_adc_raw_no_lib,??_read_adc_raw_no_lib+1
  7989   004C06  6A28               	clrf	??_read_adc_raw_no_lib^0,c
  7990   004C08  1028               	iorwf	??_read_adc_raw_no_lib^0,w,c
  7991   004C0A  6E2A               	movwf	read_adc_raw_no_lib@raw_value^0,c
  7992   004C0C  5029               	movf	(??_read_adc_raw_no_lib+1)^0,w,c
  7993   004C0E  6E2B               	movwf	(read_adc_raw_no_lib@raw_value+1)^0,c
  7994   004C10                     
  7995                           ;my_adc.c: 45:     return raw_value;
  7996   004C10  C02A  F026         	movff	read_adc_raw_no_lib@raw_value,?_read_adc_raw_no_lib
  7997   004C14  C02B  F027         	movff	read_adc_raw_no_lib@raw_value+1,?_read_adc_raw_no_lib+1
  7998   004C18  0012               	return		;funcret
  7999   004C1A                     __end_of_read_adc_raw_no_lib:
  8000                           	callstack 0
  8001                           
  8002 ;; *************** function ___xxtofl *****************
  8003 ;; Defined at:
  8004 ;;		line 10 in file "C:\Program Files\Microchip\xc8\v2.41\pic\sources\c99\common\xxtofl.c"
  8005 ;; Parameters:    Size  Location     Type
  8006 ;;  sign            1    wreg     unsigned char 
  8007 ;;  val             4   37[COMRAM] long 
  8008 ;; Auto vars:     Size  Location     Type
  8009 ;;  sign            1   45[COMRAM] unsigned char 
  8010 ;;  arg             4   47[COMRAM] unsigned long 
  8011 ;;  exp             1   46[COMRAM] unsigned char 
  8012 ;; Return value:  Size  Location     Type
  8013 ;;                  4   37[COMRAM] unsigned char 
  8014 ;; Registers used:
  8015 ;;		wreg, status,2, status,0
  8016 ;; Tracked objects:
  8017 ;;		On entry : 0/0
  8018 ;;		On exit  : 0/0
  8019 ;;		Unchanged: 0/0
  8020 ;; Data sizes:     COMRAM   BANK0   BANK1   BANK2   BANK3   BANK4   BANK5   BANK6   BANK7   BANK8   BANK9  BANK10  BANK1
      +1  BANK12  BANK13  BANK14  BANK15
  8021 ;;      Params:         4       0       0       0       0       0       0       0       0       0       0       0       
      +0       0       0       0       0
  8022 ;;      Locals:         6       0       0       0       0       0       0       0       0       0       0       0       
      +0       0       0       0       0
  8023 ;;      Temps:          4       0       0       0       0       0       0       0       0       0       0       0       
      +0       0       0       0       0
  8024 ;;      Totals:        14       0       0       0       0       0       0       0       0       0       0       0       
      +0       0       0       0       0
  8025 ;;Total ram usage:       14 bytes
  8026 ;; Hardware stack levels used: 1
  8027 ;; Hardware stack levels required when called: 3
  8028 ;; This function calls:
  8029 ;;		Nothing
  8030 ;; This function is called by:
  8031 ;;		_read_adc_voltage
  8032 ;; This function uses a non-reentrant model
  8033 ;;
  8034                           
  8035                           	psect	text32
  8036   00349A                     __ptext32:
  8037                           	callstack 0
  8038   00349A                     ___xxtofl:
  8039                           	callstack 26
  8040                           
  8041                           ;incstack = 0
  8042                           ;___xxtofl@sign stored from wreg
  8043   00349A  6E2E               	movwf	___xxtofl@sign^0,c
  8044   00349C  502E               	movf	___xxtofl@sign^0,w,c
  8045   00349E  B4D8               	btfsc	status,2,c
  8046   0034A0  EF54  F01A         	goto	u5201
  8047   0034A4  EF56  F01A         	goto	u5200
  8048   0034A8                     u5201:
  8049   0034A8  EF78  F01A         	goto	l995
  8050   0034AC                     u5200:
  8051   0034AC  BE29               	btfsc	(___xxtofl@val+3)^0,7,c
  8052   0034AE  EF5D  F01A         	goto	u5210
  8053   0034B2  EF5B  F01A         	goto	u5211
  8054   0034B6                     u5211:
  8055   0034B6  EF78  F01A         	goto	l995
  8056   0034BA                     u5210:
  8057   0034BA  C026  F02A         	movff	___xxtofl@val,??___xxtofl
  8058   0034BE  C027  F02B         	movff	___xxtofl@val+1,??___xxtofl+1
  8059   0034C2  C028  F02C         	movff	___xxtofl@val+2,??___xxtofl+2
  8060   0034C6  C029  F02D         	movff	___xxtofl@val+3,??___xxtofl+3
  8061   0034CA  1E2A               	comf	??___xxtofl^0,f,c
  8062   0034CC  1E2B               	comf	(??___xxtofl+1)^0,f,c
  8063   0034CE  1E2C               	comf	(??___xxtofl+2)^0,f,c
  8064   0034D0  1E2D               	comf	(??___xxtofl+3)^0,f,c
  8065   0034D2  2A2A               	incf	??___xxtofl^0,f,c
  8066   0034D4  0E00               	movlw	0
  8067   0034D6  222B               	addwfc	(??___xxtofl+1)^0,f,c
  8068   0034D8  222C               	addwfc	(??___xxtofl+2)^0,f,c
  8069   0034DA  222D               	addwfc	(??___xxtofl+3)^0,f,c
  8070   0034DC  C02A  F030         	movff	??___xxtofl,___xxtofl@arg
  8071   0034E0  C02B  F031         	movff	??___xxtofl+1,___xxtofl@arg+1
  8072   0034E4  C02C  F032         	movff	??___xxtofl+2,___xxtofl@arg+2
  8073   0034E8  C02D  F033         	movff	??___xxtofl+3,___xxtofl@arg+3
  8074   0034EC  EF80  F01A         	goto	l4714
  8075   0034F0                     l995:
  8076   0034F0  C026  F030         	movff	___xxtofl@val,___xxtofl@arg
  8077   0034F4  C027  F031         	movff	___xxtofl@val+1,___xxtofl@arg+1
  8078   0034F8  C028  F032         	movff	___xxtofl@val+2,___xxtofl@arg+2
  8079   0034FC  C029  F033         	movff	___xxtofl@val+3,___xxtofl@arg+3
  8080   003500                     l4714:
  8081   003500  5026               	movf	___xxtofl@val^0,w,c
  8082   003502  1027               	iorwf	(___xxtofl@val+1)^0,w,c
  8083   003504  1028               	iorwf	(___xxtofl@val+2)^0,w,c
  8084   003506  1029               	iorwf	(___xxtofl@val+3)^0,w,c
  8085   003508  A4D8               	btfss	status,2,c
  8086   00350A  EF89  F01A         	goto	u5221
  8087   00350E  EF8B  F01A         	goto	u5220
  8088   003512                     u5221:
  8089   003512  EF95  F01A         	goto	l4720
  8090   003516                     u5220:
  8091   003516  0E00               	movlw	0
  8092   003518  6E26               	movwf	?___xxtofl^0,c
  8093   00351A  0E00               	movlw	0
  8094   00351C  6E27               	movwf	(?___xxtofl+1)^0,c
  8095   00351E  0E00               	movlw	0
  8096   003520  6E28               	movwf	(?___xxtofl+2)^0,c
  8097   003522  0E00               	movlw	0
  8098   003524  6E29               	movwf	(?___xxtofl+3)^0,c
  8099   003526  EF26  F01B         	goto	l998
  8100   00352A                     l4720:
  8101   00352A  0E96               	movlw	150
  8102   00352C  6E2F               	movwf	___xxtofl@exp^0,c
  8103   00352E  EF9F  F01A         	goto	l4724
  8104   003532                     l4722:
  8105   003532  2A2F               	incf	___xxtofl@exp^0,f,c
  8106   003534  90D8               	bcf	status,0,c
  8107   003536  3233               	rrcf	(___xxtofl@arg+3)^0,f,c
  8108   003538  3232               	rrcf	(___xxtofl@arg+2)^0,f,c
  8109   00353A  3231               	rrcf	(___xxtofl@arg+1)^0,f,c
  8110   00353C  3230               	rrcf	___xxtofl@arg^0,f,c
  8111   00353E                     l4724:
  8112   00353E  0E00               	movlw	0
  8113   003540  1430               	andwf	___xxtofl@arg^0,w,c
  8114   003542  6E2A               	movwf	??___xxtofl^0,c
  8115   003544  0E00               	movlw	0
  8116   003546  1431               	andwf	(___xxtofl@arg+1)^0,w,c
  8117   003548  6E2B               	movwf	(??___xxtofl+1)^0,c
  8118   00354A  0E00               	movlw	0
  8119   00354C  1432               	andwf	(___xxtofl@arg+2)^0,w,c
  8120   00354E  6E2C               	movwf	(??___xxtofl+2)^0,c
  8121   003550  0EFE               	movlw	254
  8122   003552  1433               	andwf	(___xxtofl@arg+3)^0,w,c
  8123   003554  6E2D               	movwf	(??___xxtofl+3)^0,c
  8124   003556  502A               	movf	??___xxtofl^0,w,c
  8125   003558  102B               	iorwf	(??___xxtofl+1)^0,w,c
  8126   00355A  102C               	iorwf	(??___xxtofl+2)^0,w,c
  8127   00355C  102D               	iorwf	(??___xxtofl+3)^0,w,c
  8128   00355E  A4D8               	btfss	status,2,c
  8129   003560  EFB4  F01A         	goto	u5231
  8130   003564  EFB6  F01A         	goto	u5230
  8131   003568                     u5231:
  8132   003568  EF99  F01A         	goto	l4722
  8133   00356C                     u5230:
  8134   00356C  EFC4  F01A         	goto	l1002
  8135   003570                     l4726:
  8136   003570  2A2F               	incf	___xxtofl@exp^0,f,c
  8137   003572  0E01               	movlw	1
  8138   003574  2630               	addwf	___xxtofl@arg^0,f,c
  8139   003576  0E00               	movlw	0
  8140   003578  2231               	addwfc	(___xxtofl@arg+1)^0,f,c
  8141   00357A  2232               	addwfc	(___xxtofl@arg+2)^0,f,c
  8142   00357C  2233               	addwfc	(___xxtofl@arg+3)^0,f,c
  8143   00357E  90D8               	bcf	status,0,c
  8144   003580  3233               	rrcf	(___xxtofl@arg+3)^0,f,c
  8145   003582  3232               	rrcf	(___xxtofl@arg+2)^0,f,c
  8146   003584  3231               	rrcf	(___xxtofl@arg+1)^0,f,c
  8147   003586  3230               	rrcf	___xxtofl@arg^0,f,c
  8148   003588                     l1002:
  8149   003588  0E00               	movlw	0
  8150   00358A  1430               	andwf	___xxtofl@arg^0,w,c
  8151   00358C  6E2A               	movwf	??___xxtofl^0,c
  8152   00358E  0E00               	movlw	0
  8153   003590  1431               	andwf	(___xxtofl@arg+1)^0,w,c
  8154   003592  6E2B               	movwf	(??___xxtofl+1)^0,c
  8155   003594  0E00               	movlw	0
  8156   003596  1432               	andwf	(___xxtofl@arg+2)^0,w,c
  8157   003598  6E2C               	movwf	(??___xxtofl+2)^0,c
  8158   00359A  0EFF               	movlw	255
  8159   00359C  1433               	andwf	(___xxtofl@arg+3)^0,w,c
  8160   00359E  6E2D               	movwf	(??___xxtofl+3)^0,c
  8161   0035A0  502A               	movf	??___xxtofl^0,w,c
  8162   0035A2  102B               	iorwf	(??___xxtofl+1)^0,w,c
  8163   0035A4  102C               	iorwf	(??___xxtofl+2)^0,w,c
  8164   0035A6  102D               	iorwf	(??___xxtofl+3)^0,w,c
  8165   0035A8  A4D8               	btfss	status,2,c
  8166   0035AA  EFD9  F01A         	goto	u5241
  8167   0035AE  EFDB  F01A         	goto	u5240
  8168   0035B2                     u5241:
  8169   0035B2  EFB8  F01A         	goto	l4726
  8170   0035B6                     u5240:
  8171   0035B6  EFE3  F01A         	goto	l4734
  8172   0035BA                     l4732:
  8173   0035BA  062F               	decf	___xxtofl@exp^0,f,c
  8174   0035BC  90D8               	bcf	status,0,c
  8175   0035BE  3630               	rlcf	___xxtofl@arg^0,f,c
  8176   0035C0  3631               	rlcf	(___xxtofl@arg+1)^0,f,c
  8177   0035C2  3632               	rlcf	(___xxtofl@arg+2)^0,f,c
  8178   0035C4  3633               	rlcf	(___xxtofl@arg+3)^0,f,c
  8179   0035C6                     l4734:
  8180   0035C6  BE32               	btfsc	(___xxtofl@arg+2)^0,7,c
  8181   0035C8  EFE8  F01A         	goto	u5251
  8182   0035CC  EFEA  F01A         	goto	u5250
  8183   0035D0                     u5251:
  8184   0035D0  EFF2  F01A         	goto	l1009
  8185   0035D4                     u5250:
  8186   0035D4  0E02               	movlw	2
  8187   0035D6  602F               	cpfslt	___xxtofl@exp^0,c
  8188   0035D8  EFF0  F01A         	goto	u5261
  8189   0035DC  EFF2  F01A         	goto	u5260
  8190   0035E0                     u5261:
  8191   0035E0  EFDD  F01A         	goto	l4732
  8192   0035E4                     u5260:
  8193   0035E4                     l1009:
  8194   0035E4  B02F               	btfsc	___xxtofl@exp^0,0,c
  8195   0035E6  EFF7  F01A         	goto	u5271
  8196   0035EA  EFF9  F01A         	goto	u5270
  8197   0035EE                     u5271:
  8198   0035EE  EFFA  F01A         	goto	l4740
  8199   0035F2                     u5270:
  8200   0035F2  9E32               	bcf	(___xxtofl@arg+2)^0,7,c
  8201   0035F4                     l4740:
  8202   0035F4  90D8               	bcf	status,0,c
  8203   0035F6  322F               	rrcf	___xxtofl@exp^0,f,c
  8204   0035F8  C02F  F02A         	movff	___xxtofl@exp,??___xxtofl
  8205   0035FC  6A2B               	clrf	(??___xxtofl+1)^0,c
  8206   0035FE  6A2C               	clrf	(??___xxtofl+2)^0,c
  8207   003600  6A2D               	clrf	(??___xxtofl+3)^0,c
  8208   003602  C02A  F02D         	movff	??___xxtofl,??___xxtofl+3
  8209   003606  6A2C               	clrf	(??___xxtofl+2)^0,c
  8210   003608  6A2B               	clrf	(??___xxtofl+1)^0,c
  8211   00360A  6A2A               	clrf	??___xxtofl^0,c
  8212   00360C  502A               	movf	??___xxtofl^0,w,c
  8213   00360E  1230               	iorwf	___xxtofl@arg^0,f,c
  8214   003610  502B               	movf	(??___xxtofl+1)^0,w,c
  8215   003612  1231               	iorwf	(___xxtofl@arg+1)^0,f,c
  8216   003614  502C               	movf	(??___xxtofl+2)^0,w,c
  8217   003616  1232               	iorwf	(___xxtofl@arg+2)^0,f,c
  8218   003618  502D               	movf	(??___xxtofl+3)^0,w,c
  8219   00361A  1233               	iorwf	(___xxtofl@arg+3)^0,f,c
  8220   00361C  502E               	movf	___xxtofl@sign^0,w,c
  8221   00361E  B4D8               	btfsc	status,2,c
  8222   003620  EF14  F01B         	goto	u5281
  8223   003624  EF16  F01B         	goto	u5280
  8224   003628                     u5281:
  8225   003628  EF1E  F01B         	goto	l4750
  8226   00362C                     u5280:
  8227   00362C  BE29               	btfsc	(___xxtofl@val+3)^0,7,c
  8228   00362E  EF1D  F01B         	goto	u5290
  8229   003632  EF1B  F01B         	goto	u5291
  8230   003636                     u5291:
  8231   003636  EF1E  F01B         	goto	l4750
  8232   00363A                     u5290:
  8233   00363A  8E33               	bsf	(___xxtofl@arg+3)^0,7,c
  8234   00363C                     l4750:
  8235   00363C  C030  F026         	movff	___xxtofl@arg,?___xxtofl
  8236   003640  C031  F027         	movff	___xxtofl@arg+1,?___xxtofl+1
  8237   003644  C032  F028         	movff	___xxtofl@arg+2,?___xxtofl+2
  8238   003648  C033  F029         	movff	___xxtofl@arg+3,?___xxtofl+3
  8239   00364C                     l998:
  8240   00364C  0012               	return		;funcret
  8241   00364E                     __end_of___xxtofl:
  8242                           	callstack 0
  8243                           
  8244 ;; *************** function ___flmul *****************
  8245 ;; Defined at:
  8246 ;;		line 8 in file "C:\Program Files\Microchip\xc8\v2.41\pic\sources\c99\common\sprcmul.c"
  8247 ;; Parameters:    Size  Location     Type
  8248 ;;  b               4    0[BANK0 ] unsigned char 
  8249 ;;  a               4    4[BANK0 ] unsigned char 
  8250 ;; Auto vars:     Size  Location     Type
  8251 ;;  prod            4   19[BANK0 ] struct .
  8252 ;;  grs             4   14[BANK0 ] unsigned long 
  8253 ;;  temp            2   23[BANK0 ] struct .
  8254 ;;  bexp            1   18[BANK0 ] unsigned char 
  8255 ;;  aexp            1   13[BANK0 ] unsigned char 
  8256 ;;  sign            1   12[BANK0 ] unsigned char 
  8257 ;; Return value:  Size  Location     Type
  8258 ;;                  4    0[BANK0 ] unsigned char 
  8259 ;; Registers used:
  8260 ;;		wreg, status,2, status,0, prodl, prodh
  8261 ;; Tracked objects:
  8262 ;;		On entry : 0/0
  8263 ;;		On exit  : 0/0
  8264 ;;		Unchanged: 0/0
  8265 ;; Data sizes:     COMRAM   BANK0   BANK1   BANK2   BANK3   BANK4   BANK5   BANK6   BANK7   BANK8   BANK9  BANK10  BANK1
      +1  BANK12  BANK13  BANK14  BANK15
  8266 ;;      Params:         0       8       0       0       0       0       0       0       0       0       0       0       
      +0       0       0       0       0
  8267 ;;      Locals:         0      13       0       0       0       0       0       0       0       0       0       0       
      +0       0       0       0       0
  8268 ;;      Temps:          0       4       0       0       0       0       0       0       0       0       0       0       
      +0       0       0       0       0
  8269 ;;      Totals:         0      25       0       0       0       0       0       0       0       0       0       0       
      +0       0       0       0       0
  8270 ;;Total ram usage:       25 bytes
  8271 ;; Hardware stack levels used: 1
  8272 ;; Hardware stack levels required when called: 3
  8273 ;; This function calls:
  8274 ;;		Nothing
  8275 ;; This function is called by:
  8276 ;;		_main
  8277 ;;		_read_adc_voltage
  8278 ;;		_efgtoa
  8279 ;; This function uses a non-reentrant model
  8280 ;;
  8281                           
  8282                           	psect	text33
  8283   001F42                     __ptext33:
  8284                           	callstack 0
  8285   001F42                     ___flmul:
  8286                           	callstack 23
  8287   001F42  0100               	movlb	0	; () banked
  8288   001F44  5183               	movf	(___flmul@b+3)& (0+255),w,b
  8289   001F46  0B80               	andlw	128
  8290   001F48  6F8C               	movwf	___flmul@sign& (0+255),b
  8291   001F4A  5183               	movf	(___flmul@b+3)& (0+255),w,b
  8292   001F4C  2583               	addwf	(___flmul@b+3)& (0+255),w,b
  8293   001F4E  6F92               	movwf	___flmul@bexp& (0+255),b
  8294   001F50                     
  8295                           ; BSR set to: 0
  8296   001F50  AF82               	btfss	(___flmul@b+2)& (0+255),7,b
  8297   001F52  EFAD  F00F         	goto	u6761
  8298   001F56  EFAF  F00F         	goto	u6760
  8299   001F5A                     u6761:
  8300   001F5A  EFB0  F00F         	goto	l5830
  8301   001F5E                     u6760:
  8302   001F5E                     
  8303                           ; BSR set to: 0
  8304   001F5E  8192               	bsf	___flmul@bexp& (0+255),0,b
  8305   001F60                     l5830:
  8306                           
  8307                           ; BSR set to: 0
  8308   001F60  5192               	movf	___flmul@bexp& (0+255),w,b
  8309   001F62  B4D8               	btfsc	status,2,c
  8310   001F64  EFB6  F00F         	goto	u6771
  8311   001F68  EFB8  F00F         	goto	u6770
  8312   001F6C                     u6771:
  8313   001F6C  EFCB  F00F         	goto	l5838
  8314   001F70                     u6770:
  8315   001F70                     
  8316                           ; BSR set to: 0
  8317   001F70  2992               	incf	___flmul@bexp& (0+255),w,b
  8318   001F72  A4D8               	btfss	status,2,c
  8319   001F74  EFBE  F00F         	goto	u6781
  8320   001F78  EFC0  F00F         	goto	u6780
  8321   001F7C                     u6781:
  8322   001F7C  EFC8  F00F         	goto	l5836
  8323   001F80                     u6780:
  8324   001F80                     
  8325                           ; BSR set to: 0
  8326   001F80  0E00               	movlw	0
  8327   001F82  6F80               	movwf	___flmul@b& (0+255),b
  8328   001F84  0E00               	movlw	0
  8329   001F86  6F81               	movwf	(___flmul@b+1)& (0+255),b
  8330   001F88  0E00               	movlw	0
  8331   001F8A  6F82               	movwf	(___flmul@b+2)& (0+255),b
  8332   001F8C  0E00               	movlw	0
  8333   001F8E  6F83               	movwf	(___flmul@b+3)& (0+255),b
  8334   001F90                     l5836:
  8335                           
  8336                           ; BSR set to: 0
  8337   001F90  8F82               	bsf	(___flmul@b+2)& (0+255),7,b
  8338   001F92  EFD3  F00F         	goto	l5840
  8339   001F96                     l5838:
  8340                           
  8341                           ; BSR set to: 0
  8342   001F96  0E00               	movlw	0
  8343   001F98  6F80               	movwf	___flmul@b& (0+255),b
  8344   001F9A  0E00               	movlw	0
  8345   001F9C  6F81               	movwf	(___flmul@b+1)& (0+255),b
  8346   001F9E  0E00               	movlw	0
  8347   001FA0  6F82               	movwf	(___flmul@b+2)& (0+255),b
  8348   001FA2  0E00               	movlw	0
  8349   001FA4  6F83               	movwf	(___flmul@b+3)& (0+255),b
  8350   001FA6                     l5840:
  8351                           
  8352                           ; BSR set to: 0
  8353   001FA6  5187               	movf	(___flmul@a+3)& (0+255),w,b
  8354   001FA8  0B80               	andlw	128
  8355   001FAA  1B8C               	xorwf	___flmul@sign& (0+255),f,b
  8356   001FAC                     
  8357                           ; BSR set to: 0
  8358   001FAC  5187               	movf	(___flmul@a+3)& (0+255),w,b
  8359   001FAE  2587               	addwf	(___flmul@a+3)& (0+255),w,b
  8360   001FB0  6F8D               	movwf	___flmul@aexp& (0+255),b
  8361   001FB2                     
  8362                           ; BSR set to: 0
  8363   001FB2  AF86               	btfss	(___flmul@a+2)& (0+255),7,b
  8364   001FB4  EFDE  F00F         	goto	u6791
  8365   001FB8  EFE0  F00F         	goto	u6790
  8366   001FBC                     u6791:
  8367   001FBC  EFE1  F00F         	goto	l5848
  8368   001FC0                     u6790:
  8369   001FC0                     
  8370                           ; BSR set to: 0
  8371   001FC0  818D               	bsf	___flmul@aexp& (0+255),0,b
  8372   001FC2                     l5848:
  8373                           
  8374                           ; BSR set to: 0
  8375   001FC2  518D               	movf	___flmul@aexp& (0+255),w,b
  8376   001FC4  B4D8               	btfsc	status,2,c
  8377   001FC6  EFE7  F00F         	goto	u6801
  8378   001FCA  EFE9  F00F         	goto	u6800
  8379   001FCE                     u6801:
  8380   001FCE  EFFC  F00F         	goto	l5856
  8381   001FD2                     u6800:
  8382   001FD2                     
  8383                           ; BSR set to: 0
  8384   001FD2  298D               	incf	___flmul@aexp& (0+255),w,b
  8385   001FD4  A4D8               	btfss	status,2,c
  8386   001FD6  EFEF  F00F         	goto	u6811
  8387   001FDA  EFF1  F00F         	goto	u6810
  8388   001FDE                     u6811:
  8389   001FDE  EFF9  F00F         	goto	l5854
  8390   001FE2                     u6810:
  8391   001FE2                     
  8392                           ; BSR set to: 0
  8393   001FE2  0E00               	movlw	0
  8394   001FE4  6F84               	movwf	___flmul@a& (0+255),b
  8395   001FE6  0E00               	movlw	0
  8396   001FE8  6F85               	movwf	(___flmul@a+1)& (0+255),b
  8397   001FEA  0E00               	movlw	0
  8398   001FEC  6F86               	movwf	(___flmul@a+2)& (0+255),b
  8399   001FEE  0E00               	movlw	0
  8400   001FF0  6F87               	movwf	(___flmul@a+3)& (0+255),b
  8401   001FF2                     l5854:
  8402                           
  8403                           ; BSR set to: 0
  8404   001FF2  8F86               	bsf	(___flmul@a+2)& (0+255),7,b
  8405   001FF4  EF04  F010         	goto	l954
  8406   001FF8                     l5856:
  8407                           
  8408                           ; BSR set to: 0
  8409   001FF8  0E00               	movlw	0
  8410   001FFA  6F84               	movwf	___flmul@a& (0+255),b
  8411   001FFC  0E00               	movlw	0
  8412   001FFE  6F85               	movwf	(___flmul@a+1)& (0+255),b
  8413   002000  0E00               	movlw	0
  8414   002002  6F86               	movwf	(___flmul@a+2)& (0+255),b
  8415   002004  0E00               	movlw	0
  8416   002006  6F87               	movwf	(___flmul@a+3)& (0+255),b
  8417   002008                     l954:
  8418                           
  8419                           ; BSR set to: 0
  8420   002008  518D               	movf	___flmul@aexp& (0+255),w,b
  8421   00200A  B4D8               	btfsc	status,2,c
  8422   00200C  EF0A  F010         	goto	u6821
  8423   002010  EF0C  F010         	goto	u6820
  8424   002014                     u6821:
  8425   002014  EF14  F010         	goto	l5860
  8426   002018                     u6820:
  8427   002018                     
  8428                           ; BSR set to: 0
  8429   002018  5192               	movf	___flmul@bexp& (0+255),w,b
  8430   00201A  A4D8               	btfss	status,2,c
  8431   00201C  EF12  F010         	goto	u6831
  8432   002020  EF14  F010         	goto	u6830
  8433   002024                     u6831:
  8434   002024  EF1E  F010         	goto	l5864
  8435   002028                     u6830:
  8436   002028                     l5860:
  8437                           
  8438                           ; BSR set to: 0
  8439   002028  0E00               	movlw	0
  8440   00202A  6F80               	movwf	?___flmul& (0+255),b
  8441   00202C  0E00               	movlw	0
  8442   00202E  6F81               	movwf	(?___flmul+1)& (0+255),b
  8443   002030  0E00               	movlw	0
  8444   002032  6F82               	movwf	(?___flmul+2)& (0+255),b
  8445   002034  0E00               	movlw	0
  8446   002036  6F83               	movwf	(?___flmul+3)& (0+255),b
  8447   002038  EFB6  F011         	goto	l958
  8448   00203C                     l5864:
  8449                           
  8450                           ; BSR set to: 0
  8451   00203C  5186               	movf	(___flmul@a+2)& (0+255),w,b
  8452   00203E  0380               	mulwf	___flmul@b& (0+255),b
  8453   002040  CFF3 F097          	movff	prodl,___flmul@temp
  8454   002044  CFF4 F098          	movff	prodh,___flmul@temp+1
  8455   002048                     
  8456                           ; BSR set to: 0
  8457   002048  5197               	movf	___flmul@temp& (0+255),w,b
  8458   00204A  6F8E               	movwf	___flmul@grs& (0+255),b
  8459   00204C  6B8F               	clrf	(___flmul@grs+1)& (0+255),b
  8460   00204E  6B90               	clrf	(___flmul@grs+2)& (0+255),b
  8461   002050  6B91               	clrf	(___flmul@grs+3)& (0+255),b
  8462   002052                     
  8463                           ; BSR set to: 0
  8464   002052  5198               	movf	(___flmul@temp+1)& (0+255),w,b
  8465   002054  6F93               	movwf	___flmul@prod& (0+255),b
  8466   002056  6B94               	clrf	(___flmul@prod+1)& (0+255),b
  8467   002058  6B95               	clrf	(___flmul@prod+2)& (0+255),b
  8468   00205A  6B96               	clrf	(___flmul@prod+3)& (0+255),b
  8469   00205C  5185               	movf	(___flmul@a+1)& (0+255),w,b
  8470   00205E  0381               	mulwf	(___flmul@b+1)& (0+255),b
  8471   002060  CFF3 F097          	movff	prodl,___flmul@temp
  8472   002064  CFF4 F098          	movff	prodh,___flmul@temp+1
  8473   002068                     
  8474                           ; BSR set to: 0
  8475   002068  5197               	movf	___flmul@temp& (0+255),w,b
  8476   00206A  278E               	addwf	___flmul@grs& (0+255),f,b
  8477   00206C  0E00               	movlw	0
  8478   00206E  238F               	addwfc	(___flmul@grs+1)& (0+255),f,b
  8479   002070  2390               	addwfc	(___flmul@grs+2)& (0+255),f,b
  8480   002072  2391               	addwfc	(___flmul@grs+3)& (0+255),f,b
  8481   002074                     
  8482                           ; BSR set to: 0
  8483   002074  5198               	movf	(___flmul@temp+1)& (0+255),w,b
  8484   002076  2793               	addwf	___flmul@prod& (0+255),f,b
  8485   002078  0E00               	movlw	0
  8486   00207A  2394               	addwfc	(___flmul@prod+1)& (0+255),f,b
  8487   00207C  2395               	addwfc	(___flmul@prod+2)& (0+255),f,b
  8488   00207E  2396               	addwfc	(___flmul@prod+3)& (0+255),f,b
  8489   002080  5184               	movf	___flmul@a& (0+255),w,b
  8490   002082  0382               	mulwf	(___flmul@b+2)& (0+255),b
  8491   002084  CFF3 F097          	movff	prodl,___flmul@temp
  8492   002088  CFF4 F098          	movff	prodh,___flmul@temp+1
  8493   00208C                     
  8494                           ; BSR set to: 0
  8495   00208C  5197               	movf	___flmul@temp& (0+255),w,b
  8496   00208E  278E               	addwf	___flmul@grs& (0+255),f,b
  8497   002090  0E00               	movlw	0
  8498   002092  238F               	addwfc	(___flmul@grs+1)& (0+255),f,b
  8499   002094  2390               	addwfc	(___flmul@grs+2)& (0+255),f,b
  8500   002096  2391               	addwfc	(___flmul@grs+3)& (0+255),f,b
  8501   002098                     
  8502                           ; BSR set to: 0
  8503   002098  5198               	movf	(___flmul@temp+1)& (0+255),w,b
  8504   00209A  2793               	addwf	___flmul@prod& (0+255),f,b
  8505   00209C  0E00               	movlw	0
  8506   00209E  2394               	addwfc	(___flmul@prod+1)& (0+255),f,b
  8507   0020A0  2395               	addwfc	(___flmul@prod+2)& (0+255),f,b
  8508   0020A2  2396               	addwfc	(___flmul@prod+3)& (0+255),f,b
  8509   0020A4                     
  8510                           ; BSR set to: 0
  8511   0020A4  C090  F091         	movff	___flmul@grs+2,___flmul@grs+3
  8512   0020A8  C08F  F090         	movff	___flmul@grs+1,___flmul@grs+2
  8513   0020AC  C08E  F08F         	movff	___flmul@grs,___flmul@grs+1
  8514   0020B0  6B8E               	clrf	___flmul@grs& (0+255),b
  8515   0020B2                     
  8516                           ; BSR set to: 0
  8517   0020B2  5184               	movf	___flmul@a& (0+255),w,b
  8518   0020B4  0381               	mulwf	(___flmul@b+1)& (0+255),b
  8519   0020B6  CFF3 F097          	movff	prodl,___flmul@temp
  8520   0020BA  CFF4 F098          	movff	prodh,___flmul@temp+1
  8521   0020BE                     
  8522                           ; BSR set to: 0
  8523   0020BE  5197               	movf	___flmul@temp& (0+255),w,b
  8524   0020C0  278E               	addwf	___flmul@grs& (0+255),f,b
  8525   0020C2  5198               	movf	(___flmul@temp+1)& (0+255),w,b
  8526   0020C4  238F               	addwfc	(___flmul@grs+1)& (0+255),f,b
  8527   0020C6  0E00               	movlw	0
  8528   0020C8  2390               	addwfc	(___flmul@grs+2)& (0+255),f,b
  8529   0020CA  0E00               	movlw	0
  8530   0020CC  2391               	addwfc	(___flmul@grs+3)& (0+255),f,b
  8531   0020CE                     
  8532                           ; BSR set to: 0
  8533   0020CE  5185               	movf	(___flmul@a+1)& (0+255),w,b
  8534   0020D0  0380               	mulwf	___flmul@b& (0+255),b
  8535   0020D2  CFF3 F097          	movff	prodl,___flmul@temp
  8536   0020D6  CFF4 F098          	movff	prodh,___flmul@temp+1
  8537   0020DA                     
  8538                           ; BSR set to: 0
  8539   0020DA  5197               	movf	___flmul@temp& (0+255),w,b
  8540   0020DC  278E               	addwf	___flmul@grs& (0+255),f,b
  8541   0020DE  5198               	movf	(___flmul@temp+1)& (0+255),w,b
  8542   0020E0  238F               	addwfc	(___flmul@grs+1)& (0+255),f,b
  8543   0020E2  0E00               	movlw	0
  8544   0020E4  2390               	addwfc	(___flmul@grs+2)& (0+255),f,b
  8545   0020E6  0E00               	movlw	0
  8546   0020E8  2391               	addwfc	(___flmul@grs+3)& (0+255),f,b
  8547   0020EA                     
  8548                           ; BSR set to: 0
  8549   0020EA  C090  F091         	movff	___flmul@grs+2,___flmul@grs+3
  8550   0020EE  C08F  F090         	movff	___flmul@grs+1,___flmul@grs+2
  8551   0020F2  C08E  F08F         	movff	___flmul@grs,___flmul@grs+1
  8552   0020F6  6B8E               	clrf	___flmul@grs& (0+255),b
  8553   0020F8  5184               	movf	___flmul@a& (0+255),w,b
  8554   0020FA  0380               	mulwf	___flmul@b& (0+255),b
  8555   0020FC  CFF3 F097          	movff	prodl,___flmul@temp
  8556   002100  CFF4 F098          	movff	prodh,___flmul@temp+1
  8557   002104                     
  8558                           ; BSR set to: 0
  8559   002104  5197               	movf	___flmul@temp& (0+255),w,b
  8560   002106  278E               	addwf	___flmul@grs& (0+255),f,b
  8561   002108  5198               	movf	(___flmul@temp+1)& (0+255),w,b
  8562   00210A  238F               	addwfc	(___flmul@grs+1)& (0+255),f,b
  8563   00210C  0E00               	movlw	0
  8564   00210E  2390               	addwfc	(___flmul@grs+2)& (0+255),f,b
  8565   002110  0E00               	movlw	0
  8566   002112  2391               	addwfc	(___flmul@grs+3)& (0+255),f,b
  8567   002114                     
  8568                           ; BSR set to: 0
  8569   002114  5186               	movf	(___flmul@a+2)& (0+255),w,b
  8570   002116  0381               	mulwf	(___flmul@b+1)& (0+255),b
  8571   002118  CFF3 F097          	movff	prodl,___flmul@temp
  8572   00211C  CFF4 F098          	movff	prodh,___flmul@temp+1
  8573   002120  5197               	movf	___flmul@temp& (0+255),w,b
  8574   002122  2793               	addwf	___flmul@prod& (0+255),f,b
  8575   002124  5198               	movf	(___flmul@temp+1)& (0+255),w,b
  8576   002126  2394               	addwfc	(___flmul@prod+1)& (0+255),f,b
  8577   002128  0E00               	movlw	0
  8578   00212A  2395               	addwfc	(___flmul@prod+2)& (0+255),f,b
  8579   00212C  0E00               	movlw	0
  8580   00212E  2396               	addwfc	(___flmul@prod+3)& (0+255),f,b
  8581   002130                     
  8582                           ; BSR set to: 0
  8583   002130  5185               	movf	(___flmul@a+1)& (0+255),w,b
  8584   002132  0382               	mulwf	(___flmul@b+2)& (0+255),b
  8585   002134  CFF3 F097          	movff	prodl,___flmul@temp
  8586   002138  CFF4 F098          	movff	prodh,___flmul@temp+1
  8587   00213C                     
  8588                           ; BSR set to: 0
  8589   00213C  5197               	movf	___flmul@temp& (0+255),w,b
  8590   00213E  2793               	addwf	___flmul@prod& (0+255),f,b
  8591   002140  5198               	movf	(___flmul@temp+1)& (0+255),w,b
  8592   002142  2394               	addwfc	(___flmul@prod+1)& (0+255),f,b
  8593   002144  0E00               	movlw	0
  8594   002146  2395               	addwfc	(___flmul@prod+2)& (0+255),f,b
  8595   002148  0E00               	movlw	0
  8596   00214A  2396               	addwfc	(___flmul@prod+3)& (0+255),f,b
  8597   00214C  5186               	movf	(___flmul@a+2)& (0+255),w,b
  8598   00214E  0382               	mulwf	(___flmul@b+2)& (0+255),b
  8599   002150  CFF3 F097          	movff	prodl,___flmul@temp
  8600   002154  CFF4 F098          	movff	prodh,___flmul@temp+1
  8601   002158                     
  8602                           ; BSR set to: 0
  8603   002158  5197               	movf	___flmul@temp& (0+255),w,b
  8604   00215A  6F88               	movwf	??___flmul& (0+255),b
  8605   00215C  5198               	movf	(___flmul@temp+1)& (0+255),w,b
  8606   00215E  6F89               	movwf	(??___flmul+1)& (0+255),b
  8607   002160  6B8A               	clrf	(??___flmul+2)& (0+255),b
  8608   002162  6B8B               	clrf	(??___flmul+3)& (0+255),b
  8609   002164  C08A  F08B         	movff	??___flmul+2,??___flmul+3
  8610   002168  C089  F08A         	movff	??___flmul+1,??___flmul+2
  8611   00216C  C088  F089         	movff	??___flmul,??___flmul+1
  8612   002170  6B88               	clrf	??___flmul& (0+255),b
  8613   002172  5188               	movf	??___flmul& (0+255),w,b
  8614   002174  2793               	addwf	___flmul@prod& (0+255),f,b
  8615   002176  5189               	movf	(??___flmul+1)& (0+255),w,b
  8616   002178  2394               	addwfc	(___flmul@prod+1)& (0+255),f,b
  8617   00217A  518A               	movf	(??___flmul+2)& (0+255),w,b
  8618   00217C  2395               	addwfc	(___flmul@prod+2)& (0+255),f,b
  8619   00217E  518B               	movf	(??___flmul+3)& (0+255),w,b
  8620   002180  2396               	addwfc	(___flmul@prod+3)& (0+255),f,b
  8621   002182                     
  8622                           ; BSR set to: 0
  8623   002182  C08E  F088         	movff	___flmul@grs,??___flmul
  8624   002186  C08F  F089         	movff	___flmul@grs+1,??___flmul+1
  8625   00218A  C090  F08A         	movff	___flmul@grs+2,??___flmul+2
  8626   00218E  C091  F08B         	movff	___flmul@grs+3,??___flmul+3
  8627   002192  0E19               	movlw	25
  8628   002194  EFD1  F010         	goto	u6840
  8629   002198                     u6845:
  8630   002198  90D8               	bcf	status,0,c
  8631   00219A  338B               	rrcf	(??___flmul+3)& (0+255),f,b
  8632   00219C  338A               	rrcf	(??___flmul+2)& (0+255),f,b
  8633   00219E  3389               	rrcf	(??___flmul+1)& (0+255),f,b
  8634   0021A0  3388               	rrcf	??___flmul& (0+255),f,b
  8635   0021A2                     u6840:
  8636   0021A2  2EE8               	decfsz	wreg,f,c
  8637   0021A4  EFCC  F010         	goto	u6845
  8638   0021A8  5188               	movf	??___flmul& (0+255),w,b
  8639   0021AA  2793               	addwf	___flmul@prod& (0+255),f,b
  8640   0021AC  5189               	movf	(??___flmul+1)& (0+255),w,b
  8641   0021AE  2394               	addwfc	(___flmul@prod+1)& (0+255),f,b
  8642   0021B0  518A               	movf	(??___flmul+2)& (0+255),w,b
  8643   0021B2  2395               	addwfc	(___flmul@prod+2)& (0+255),f,b
  8644   0021B4  518B               	movf	(??___flmul+3)& (0+255),w,b
  8645   0021B6  2396               	addwfc	(___flmul@prod+3)& (0+255),f,b
  8646   0021B8                     
  8647                           ; BSR set to: 0
  8648   0021B8  C090  F091         	movff	___flmul@grs+2,___flmul@grs+3
  8649   0021BC  C08F  F090         	movff	___flmul@grs+1,___flmul@grs+2
  8650   0021C0  C08E  F08F         	movff	___flmul@grs,___flmul@grs+1
  8651   0021C4  6B8E               	clrf	___flmul@grs& (0+255),b
  8652   0021C6                     
  8653                           ; BSR set to: 0
  8654   0021C6  518D               	movf	___flmul@aexp& (0+255),w,b
  8655   0021C8  C092  F088         	movff	___flmul@bexp,??___flmul
  8656   0021CC  6B89               	clrf	(??___flmul+1)& (0+255),b
  8657   0021CE  2788               	addwf	??___flmul& (0+255),f,b
  8658   0021D0  0E00               	movlw	0
  8659   0021D2  2389               	addwfc	(??___flmul+1)& (0+255),f,b
  8660   0021D4  0E82               	movlw	130
  8661   0021D6  2588               	addwf	??___flmul& (0+255),w,b
  8662   0021D8  6F97               	movwf	___flmul@temp& (0+255),b
  8663   0021DA  0EFF               	movlw	255
  8664   0021DC  2189               	addwfc	(??___flmul+1)& (0+255),w,b
  8665   0021DE  6F98               	movwf	(___flmul@temp+1)& (0+255),b
  8666   0021E0  EF07  F011         	goto	l5912
  8667   0021E4                     l5906:
  8668                           
  8669                           ; BSR set to: 0
  8670   0021E4  90D8               	bcf	status,0,c
  8671   0021E6  3793               	rlcf	___flmul@prod& (0+255),f,b
  8672   0021E8  3794               	rlcf	(___flmul@prod+1)& (0+255),f,b
  8673   0021EA  3795               	rlcf	(___flmul@prod+2)& (0+255),f,b
  8674   0021EC  3796               	rlcf	(___flmul@prod+3)& (0+255),f,b
  8675   0021EE                     
  8676                           ; BSR set to: 0
  8677   0021EE  AF91               	btfss	(___flmul@grs+3)& (0+255),7,b
  8678   0021F0  EFFC  F010         	goto	u6851
  8679   0021F4  EFFE  F010         	goto	u6850
  8680   0021F8                     u6851:
  8681   0021F8  EFFF  F010         	goto	l961
  8682   0021FC                     u6850:
  8683   0021FC                     
  8684                           ; BSR set to: 0
  8685   0021FC  8193               	bsf	___flmul@prod& (0+255),0,b
  8686   0021FE                     l961:
  8687                           
  8688                           ; BSR set to: 0
  8689   0021FE  90D8               	bcf	status,0,c
  8690   002200  378E               	rlcf	___flmul@grs& (0+255),f,b
  8691   002202  378F               	rlcf	(___flmul@grs+1)& (0+255),f,b
  8692   002204  3790               	rlcf	(___flmul@grs+2)& (0+255),f,b
  8693   002206  3791               	rlcf	(___flmul@grs+3)& (0+255),f,b
  8694   002208  0797               	decf	___flmul@temp& (0+255),f,b
  8695   00220A  A0D8               	btfss	status,0,c
  8696   00220C  0798               	decf	(___flmul@temp+1)& (0+255),f,b
  8697   00220E                     l5912:
  8698                           
  8699                           ; BSR set to: 0
  8700   00220E  AF95               	btfss	(___flmul@prod+2)& (0+255),7,b
  8701   002210  EF0C  F011         	goto	u6861
  8702   002214  EF0E  F011         	goto	u6860
  8703   002218                     u6861:
  8704   002218  EFF2  F010         	goto	l5906
  8705   00221C                     u6860:
  8706   00221C                     
  8707                           ; BSR set to: 0
  8708   00221C  0E00               	movlw	0
  8709   00221E  6F8D               	movwf	___flmul@aexp& (0+255),b
  8710   002220                     
  8711                           ; BSR set to: 0
  8712   002220  AF91               	btfss	(___flmul@grs+3)& (0+255),7,b
  8713   002222  EF15  F011         	goto	u6871
  8714   002226  EF17  F011         	goto	u6870
  8715   00222A                     u6871:
  8716   00222A  EF3B  F011         	goto	l963
  8717   00222E                     u6870:
  8718   00222E                     
  8719                           ; BSR set to: 0
  8720   00222E  0EFF               	movlw	255
  8721   002230  158E               	andwf	___flmul@grs& (0+255),w,b
  8722   002232  6F88               	movwf	??___flmul& (0+255),b
  8723   002234  0EFF               	movlw	255
  8724   002236  158F               	andwf	(___flmul@grs+1)& (0+255),w,b
  8725   002238  6F89               	movwf	(??___flmul+1)& (0+255),b
  8726   00223A  0EFF               	movlw	255
  8727   00223C  1590               	andwf	(___flmul@grs+2)& (0+255),w,b
  8728   00223E  6F8A               	movwf	(??___flmul+2)& (0+255),b
  8729   002240  0E7F               	movlw	127
  8730   002242  1591               	andwf	(___flmul@grs+3)& (0+255),w,b
  8731   002244  6F8B               	movwf	(??___flmul+3)& (0+255),b
  8732   002246  5188               	movf	??___flmul& (0+255),w,b
  8733   002248  1189               	iorwf	(??___flmul+1)& (0+255),w,b
  8734   00224A  118A               	iorwf	(??___flmul+2)& (0+255),w,b
  8735   00224C  118B               	iorwf	(??___flmul+3)& (0+255),w,b
  8736   00224E  B4D8               	btfsc	status,2,c
  8737   002250  EF2C  F011         	goto	u6881
  8738   002254  EF2E  F011         	goto	u6880
  8739   002258                     u6881:
  8740   002258  EF32  F011         	goto	l964
  8741   00225C                     u6880:
  8742   00225C                     l5920:
  8743                           
  8744                           ; BSR set to: 0
  8745   00225C  0E01               	movlw	1
  8746   00225E  6F8D               	movwf	___flmul@aexp& (0+255),b
  8747   002260  EF3B  F011         	goto	l963
  8748   002264                     l964:
  8749                           
  8750                           ; BSR set to: 0
  8751   002264  A193               	btfss	___flmul@prod& (0+255),0,b
  8752   002266  EF37  F011         	goto	u6891
  8753   00226A  EF39  F011         	goto	u6890
  8754   00226E                     u6891:
  8755   00226E  EF3B  F011         	goto	l963
  8756   002272                     u6890:
  8757   002272  EF2E  F011         	goto	l5920
  8758   002276                     l963:
  8759                           
  8760                           ; BSR set to: 0
  8761   002276  518D               	movf	___flmul@aexp& (0+255),w,b
  8762   002278  B4D8               	btfsc	status,2,c
  8763   00227A  EF41  F011         	goto	u6901
  8764   00227E  EF43  F011         	goto	u6900
  8765   002282                     u6901:
  8766   002282  EF67  F011         	goto	l5932
  8767   002286                     u6900:
  8768   002286                     
  8769                           ; BSR set to: 0
  8770   002286  0E01               	movlw	1
  8771   002288  2793               	addwf	___flmul@prod& (0+255),f,b
  8772   00228A  0E00               	movlw	0
  8773   00228C  2394               	addwfc	(___flmul@prod+1)& (0+255),f,b
  8774   00228E  2395               	addwfc	(___flmul@prod+2)& (0+255),f,b
  8775   002290  2396               	addwfc	(___flmul@prod+3)& (0+255),f,b
  8776   002292                     
  8777                           ; BSR set to: 0
  8778   002292  A196               	btfss	(___flmul@prod+3)& (0+255),0,b
  8779   002294  EF4E  F011         	goto	u6911
  8780   002298  EF50  F011         	goto	u6910
  8781   00229C                     u6911:
  8782   00229C  EF67  F011         	goto	l5932
  8783   0022A0                     u6910:
  8784   0022A0                     
  8785                           ; BSR set to: 0
  8786   0022A0  C093  F088         	movff	___flmul@prod,??___flmul
  8787   0022A4  C094  F089         	movff	___flmul@prod+1,??___flmul+1
  8788   0022A8  C095  F08A         	movff	___flmul@prod+2,??___flmul+2
  8789   0022AC  C096  F08B         	movff	___flmul@prod+3,??___flmul+3
  8790   0022B0  358B               	rlcf	(??___flmul+3)& (0+255),w,b
  8791   0022B2  338B               	rrcf	(??___flmul+3)& (0+255),f,b
  8792   0022B4  338A               	rrcf	(??___flmul+2)& (0+255),f,b
  8793   0022B6  3389               	rrcf	(??___flmul+1)& (0+255),f,b
  8794   0022B8  3388               	rrcf	??___flmul& (0+255),f,b
  8795   0022BA  C088  F093         	movff	??___flmul,___flmul@prod
  8796   0022BE  C089  F094         	movff	??___flmul+1,___flmul@prod+1
  8797   0022C2  C08A  F095         	movff	??___flmul+2,___flmul@prod+2
  8798   0022C6  C08B  F096         	movff	??___flmul+3,___flmul@prod+3
  8799   0022CA                     
  8800                           ; BSR set to: 0
  8801   0022CA  4B97               	infsnz	___flmul@temp& (0+255),f,b
  8802   0022CC  2B98               	incf	(___flmul@temp+1)& (0+255),f,b
  8803   0022CE                     l5932:
  8804                           
  8805                           ; BSR set to: 0
  8806   0022CE  BF98               	btfsc	(___flmul@temp+1)& (0+255),7,b
  8807   0022D0  EF72  F011         	goto	u6921
  8808   0022D4  5198               	movf	(___flmul@temp+1)& (0+255),w,b
  8809   0022D6  E108               	bnz	u6920
  8810   0022D8  2997               	incf	___flmul@temp& (0+255),w,b
  8811   0022DA  A0D8               	btfss	status,0,c
  8812   0022DC  EF72  F011         	goto	u6921
  8813   0022E0  EF74  F011         	goto	u6920
  8814   0022E4                     u6921:
  8815   0022E4  EF7E  F011         	goto	l5936
  8816   0022E8                     u6920:
  8817   0022E8                     
  8818                           ; BSR set to: 0
  8819   0022E8  0E00               	movlw	0
  8820   0022EA  6F93               	movwf	___flmul@prod& (0+255),b
  8821   0022EC  0E00               	movlw	0
  8822   0022EE  6F94               	movwf	(___flmul@prod+1)& (0+255),b
  8823   0022F0  0E80               	movlw	128
  8824   0022F2  6F95               	movwf	(___flmul@prod+2)& (0+255),b
  8825   0022F4  0E7F               	movlw	127
  8826   0022F6  6F96               	movwf	(___flmul@prod+3)& (0+255),b
  8827   0022F8  EFAC  F011         	goto	l5948
  8828   0022FC                     l5936:
  8829                           
  8830                           ; BSR set to: 0
  8831   0022FC  BF98               	btfsc	(___flmul@temp+1)& (0+255),7,b
  8832   0022FE  EF8B  F011         	goto	u6930
  8833   002302  5198               	movf	(___flmul@temp+1)& (0+255),w,b
  8834   002304  E106               	bnz	u6931
  8835   002306  0597               	decf	___flmul@temp& (0+255),w,b
  8836   002308  B0D8               	btfsc	status,0,c
  8837   00230A  EF89  F011         	goto	u6931
  8838   00230E  EF8B  F011         	goto	u6930
  8839   002312                     u6931:
  8840   002312  EF97  F011         	goto	l971
  8841   002316                     u6930:
  8842   002316                     
  8843                           ; BSR set to: 0
  8844   002316  0E00               	movlw	0
  8845   002318  6F93               	movwf	___flmul@prod& (0+255),b
  8846   00231A  0E00               	movlw	0
  8847   00231C  6F94               	movwf	(___flmul@prod+1)& (0+255),b
  8848   00231E  0E00               	movlw	0
  8849   002320  6F95               	movwf	(___flmul@prod+2)& (0+255),b
  8850   002322  0E00               	movlw	0
  8851   002324  6F96               	movwf	(___flmul@prod+3)& (0+255),b
  8852   002326  0E00               	movlw	0
  8853   002328  6F8C               	movwf	___flmul@sign& (0+255),b
  8854   00232A  EFAC  F011         	goto	l5948
  8855   00232E                     l971:
  8856                           
  8857                           ; BSR set to: 0
  8858   00232E  C097  F092         	movff	___flmul@temp,___flmul@bexp
  8859   002332                     
  8860                           ; BSR set to: 0
  8861   002332  0EFF               	movlw	255
  8862   002334  1793               	andwf	___flmul@prod& (0+255),f,b
  8863   002336  0EFF               	movlw	255
  8864   002338  1794               	andwf	(___flmul@prod+1)& (0+255),f,b
  8865   00233A  0E7F               	movlw	127
  8866   00233C  1795               	andwf	(___flmul@prod+2)& (0+255),f,b
  8867   00233E  0E00               	movlw	0
  8868   002340  1796               	andwf	(___flmul@prod+3)& (0+255),f,b
  8869   002342                     
  8870                           ; BSR set to: 0
  8871   002342  A192               	btfss	___flmul@bexp& (0+255),0,b
  8872   002344  EFA6  F011         	goto	u6941
  8873   002348  EFA8  F011         	goto	u6940
  8874   00234C                     u6941:
  8875   00234C  EFA9  F011         	goto	l5946
  8876   002350                     u6940:
  8877   002350                     
  8878                           ; BSR set to: 0
  8879   002350  8F95               	bsf	(___flmul@prod+2)& (0+255),7,b
  8880   002352                     l5946:
  8881                           
  8882                           ; BSR set to: 0
  8883   002352  90D8               	bcf	status,0,c
  8884   002354  3192               	rrcf	___flmul@bexp& (0+255),w,b
  8885   002356  6F96               	movwf	(___flmul@prod+3)& (0+255),b
  8886   002358                     l5948:
  8887                           
  8888                           ; BSR set to: 0
  8889   002358  518C               	movf	___flmul@sign& (0+255),w,b
  8890   00235A  1396               	iorwf	(___flmul@prod+3)& (0+255),f,b
  8891   00235C                     
  8892                           ; BSR set to: 0
  8893   00235C  C093  F080         	movff	___flmul@prod,?___flmul
  8894   002360  C094  F081         	movff	___flmul@prod+1,?___flmul+1
  8895   002364  C095  F082         	movff	___flmul@prod+2,?___flmul+2
  8896   002368  C096  F083         	movff	___flmul@prod+3,?___flmul+3
  8897   00236C                     l958:
  8898                           
  8899                           ; BSR set to: 0
  8900   00236C  0012               	return		;funcret
  8901   00236E                     __end_of___flmul:
  8902                           	callstack 0
  8903                           
  8904 ;; *************** function ___fldiv *****************
  8905 ;; Defined at:
  8906 ;;		line 11 in file "C:\Program Files\Microchip\xc8\v2.41\pic\sources\c99\common\sprcdiv.c"
  8907 ;; Parameters:    Size  Location     Type
  8908 ;;  b               4   25[BANK0 ] unsigned char 
  8909 ;;  a               4   29[BANK0 ] unsigned char 
  8910 ;; Auto vars:     Size  Location     Type
  8911 ;;  grs             4   44[BANK0 ] unsigned long 
  8912 ;;  rem             4   37[BANK0 ] unsigned long 
  8913 ;;  new_exp         2   42[BANK0 ] short 
  8914 ;;  aexp            1   49[BANK0 ] unsigned char 
  8915 ;;  bexp            1   48[BANK0 ] unsigned char 
  8916 ;;  sign            1   41[BANK0 ] unsigned char 
  8917 ;; Return value:  Size  Location     Type
  8918 ;;                  4   25[BANK0 ] unsigned char 
  8919 ;; Registers used:
  8920 ;;		wreg, status,2, status,0
  8921 ;; Tracked objects:
  8922 ;;		On entry : 0/0
  8923 ;;		On exit  : 0/0
  8924 ;;		Unchanged: 0/0
  8925 ;; Data sizes:     COMRAM   BANK0   BANK1   BANK2   BANK3   BANK4   BANK5   BANK6   BANK7   BANK8   BANK9  BANK10  BANK1
      +1  BANK12  BANK13  BANK14  BANK15
  8926 ;;      Params:         0       8       0       0       0       0       0       0       0       0       0       0       
      +0       0       0       0       0
  8927 ;;      Locals:         0      13       0       0       0       0       0       0       0       0       0       0       
      +0       0       0       0       0
  8928 ;;      Temps:          0       4       0       0       0       0       0       0       0       0       0       0       
      +0       0       0       0       0
  8929 ;;      Totals:         0      25       0       0       0       0       0       0       0       0       0       0       
      +0       0       0       0       0
  8930 ;;Total ram usage:       25 bytes
  8931 ;; Hardware stack levels used: 1
  8932 ;; Hardware stack levels required when called: 3
  8933 ;; This function calls:
  8934 ;;		Nothing
  8935 ;; This function is called by:
  8936 ;;		_main
  8937 ;;		_read_adc_voltage
  8938 ;;		_efgtoa
  8939 ;; This function uses a non-reentrant model
  8940 ;;
  8941                           
  8942                           	psect	text34
  8943   002B4E                     __ptext34:
  8944                           	callstack 0
  8945   002B4E                     ___fldiv:
  8946                           	callstack 23
  8947   002B4E  0100               	movlb	0	; () banked
  8948   002B50  519C               	movf	(___fldiv@b+3)& (0+255),w,b
  8949   002B52  0B80               	andlw	128
  8950   002B54  6FA9               	movwf	___fldiv@sign& (0+255),b
  8951   002B56  519C               	movf	(___fldiv@b+3)& (0+255),w,b
  8952   002B58  259C               	addwf	(___fldiv@b+3)& (0+255),w,b
  8953   002B5A  6FB0               	movwf	___fldiv@bexp& (0+255),b
  8954   002B5C                     
  8955                           ; BSR set to: 0
  8956   002B5C  AF9B               	btfss	(___fldiv@b+2)& (0+255),7,b
  8957   002B5E  EFB3  F015         	goto	u6531
  8958   002B62  EFB5  F015         	goto	u6530
  8959   002B66                     u6531:
  8960   002B66  EFB6  F015         	goto	l5692
  8961   002B6A                     u6530:
  8962   002B6A                     
  8963                           ; BSR set to: 0
  8964   002B6A  81B0               	bsf	___fldiv@bexp& (0+255),0,b
  8965   002B6C                     l5692:
  8966                           
  8967                           ; BSR set to: 0
  8968   002B6C  51B0               	movf	___fldiv@bexp& (0+255),w,b
  8969   002B6E  B4D8               	btfsc	status,2,c
  8970   002B70  EFBC  F015         	goto	u6541
  8971   002B74  EFBE  F015         	goto	u6540
  8972   002B78                     u6541:
  8973   002B78  EFD3  F015         	goto	l5702
  8974   002B7C                     u6540:
  8975   002B7C                     
  8976                           ; BSR set to: 0
  8977   002B7C  29B0               	incf	___fldiv@bexp& (0+255),w,b
  8978   002B7E  A4D8               	btfss	status,2,c
  8979   002B80  EFC4  F015         	goto	u6551
  8980   002B84  EFC6  F015         	goto	u6550
  8981   002B88                     u6551:
  8982   002B88  EFCE  F015         	goto	l5698
  8983   002B8C                     u6550:
  8984   002B8C                     
  8985                           ; BSR set to: 0
  8986   002B8C  0E00               	movlw	0
  8987   002B8E  6F99               	movwf	___fldiv@b& (0+255),b
  8988   002B90  0E00               	movlw	0
  8989   002B92  6F9A               	movwf	(___fldiv@b+1)& (0+255),b
  8990   002B94  0E00               	movlw	0
  8991   002B96  6F9B               	movwf	(___fldiv@b+2)& (0+255),b
  8992   002B98  0E00               	movlw	0
  8993   002B9A  6F9C               	movwf	(___fldiv@b+3)& (0+255),b
  8994   002B9C                     l5698:
  8995                           
  8996                           ; BSR set to: 0
  8997   002B9C  8F9B               	bsf	(___fldiv@b+2)& (0+255),7,b
  8998   002B9E                     
  8999                           ; BSR set to: 0
  9000   002B9E  0E00               	movlw	0
  9001   002BA0  6F9C               	movwf	(___fldiv@b+3)& (0+255),b
  9002   002BA2  EFDB  F015         	goto	l5704
  9003   002BA6                     l5702:
  9004                           
  9005                           ; BSR set to: 0
  9006   002BA6  0E00               	movlw	0
  9007   002BA8  6F99               	movwf	___fldiv@b& (0+255),b
  9008   002BAA  0E00               	movlw	0
  9009   002BAC  6F9A               	movwf	(___fldiv@b+1)& (0+255),b
  9010   002BAE  0E00               	movlw	0
  9011   002BB0  6F9B               	movwf	(___fldiv@b+2)& (0+255),b
  9012   002BB2  0E00               	movlw	0
  9013   002BB4  6F9C               	movwf	(___fldiv@b+3)& (0+255),b
  9014   002BB6                     l5704:
  9015                           
  9016                           ; BSR set to: 0
  9017   002BB6  51A0               	movf	(___fldiv@a+3)& (0+255),w,b
  9018   002BB8  0B80               	andlw	128
  9019   002BBA  1BA9               	xorwf	___fldiv@sign& (0+255),f,b
  9020   002BBC                     
  9021                           ; BSR set to: 0
  9022   002BBC  51A0               	movf	(___fldiv@a+3)& (0+255),w,b
  9023   002BBE  25A0               	addwf	(___fldiv@a+3)& (0+255),w,b
  9024   002BC0  6FB1               	movwf	___fldiv@aexp& (0+255),b
  9025   002BC2                     
  9026                           ; BSR set to: 0
  9027   002BC2  AF9F               	btfss	(___fldiv@a+2)& (0+255),7,b
  9028   002BC4  EFE6  F015         	goto	u6561
  9029   002BC8  EFE8  F015         	goto	u6560
  9030   002BCC                     u6561:
  9031   002BCC  EFE9  F015         	goto	l5712
  9032   002BD0                     u6560:
  9033   002BD0                     
  9034                           ; BSR set to: 0
  9035   002BD0  81B1               	bsf	___fldiv@aexp& (0+255),0,b
  9036   002BD2                     l5712:
  9037                           
  9038                           ; BSR set to: 0
  9039   002BD2  51B1               	movf	___fldiv@aexp& (0+255),w,b
  9040   002BD4  B4D8               	btfsc	status,2,c
  9041   002BD6  EFEF  F015         	goto	u6571
  9042   002BDA  EFF1  F015         	goto	u6570
  9043   002BDE                     u6571:
  9044   002BDE  EF06  F016         	goto	l5722
  9045   002BE2                     u6570:
  9046   002BE2                     
  9047                           ; BSR set to: 0
  9048   002BE2  29B1               	incf	___fldiv@aexp& (0+255),w,b
  9049   002BE4  A4D8               	btfss	status,2,c
  9050   002BE6  EFF7  F015         	goto	u6581
  9051   002BEA  EFF9  F015         	goto	u6580
  9052   002BEE                     u6581:
  9053   002BEE  EF01  F016         	goto	l5718
  9054   002BF2                     u6580:
  9055   002BF2                     
  9056                           ; BSR set to: 0
  9057   002BF2  0E00               	movlw	0
  9058   002BF4  6F9D               	movwf	___fldiv@a& (0+255),b
  9059   002BF6  0E00               	movlw	0
  9060   002BF8  6F9E               	movwf	(___fldiv@a+1)& (0+255),b
  9061   002BFA  0E00               	movlw	0
  9062   002BFC  6F9F               	movwf	(___fldiv@a+2)& (0+255),b
  9063   002BFE  0E00               	movlw	0
  9064   002C00  6FA0               	movwf	(___fldiv@a+3)& (0+255),b
  9065   002C02                     l5718:
  9066                           
  9067                           ; BSR set to: 0
  9068   002C02  8F9F               	bsf	(___fldiv@a+2)& (0+255),7,b
  9069   002C04                     
  9070                           ; BSR set to: 0
  9071   002C04  0E00               	movlw	0
  9072   002C06  6FA0               	movwf	(___fldiv@a+3)& (0+255),b
  9073   002C08  EF0E  F016         	goto	l5724
  9074   002C0C                     l5722:
  9075                           
  9076                           ; BSR set to: 0
  9077   002C0C  0E00               	movlw	0
  9078   002C0E  6F9D               	movwf	___fldiv@a& (0+255),b
  9079   002C10  0E00               	movlw	0
  9080   002C12  6F9E               	movwf	(___fldiv@a+1)& (0+255),b
  9081   002C14  0E00               	movlw	0
  9082   002C16  6F9F               	movwf	(___fldiv@a+2)& (0+255),b
  9083   002C18  0E00               	movlw	0
  9084   002C1A  6FA0               	movwf	(___fldiv@a+3)& (0+255),b
  9085   002C1C                     l5724:
  9086                           
  9087                           ; BSR set to: 0
  9088   002C1C  519D               	movf	___fldiv@a& (0+255),w,b
  9089   002C1E  119E               	iorwf	(___fldiv@a+1)& (0+255),w,b
  9090   002C20  119F               	iorwf	(___fldiv@a+2)& (0+255),w,b
  9091   002C22  11A0               	iorwf	(___fldiv@a+3)& (0+255),w,b
  9092   002C24  A4D8               	btfss	status,2,c
  9093   002C26  EF17  F016         	goto	u6591
  9094   002C2A  EF19  F016         	goto	u6590
  9095   002C2E                     u6591:
  9096   002C2E  EF31  F016         	goto	l5736
  9097   002C32                     u6590:
  9098   002C32                     
  9099                           ; BSR set to: 0
  9100   002C32  0E00               	movlw	0
  9101   002C34  6F99               	movwf	___fldiv@b& (0+255),b
  9102   002C36  0E00               	movlw	0
  9103   002C38  6F9A               	movwf	(___fldiv@b+1)& (0+255),b
  9104   002C3A  0E00               	movlw	0
  9105   002C3C  6F9B               	movwf	(___fldiv@b+2)& (0+255),b
  9106   002C3E  0E00               	movlw	0
  9107   002C40  6F9C               	movwf	(___fldiv@b+3)& (0+255),b
  9108   002C42                     
  9109                           ; BSR set to: 0
  9110   002C42  0E80               	movlw	128
  9111   002C44  139B               	iorwf	(___fldiv@b+2)& (0+255),f,b
  9112   002C46  0E7F               	movlw	127
  9113   002C48  139C               	iorwf	(___fldiv@b+3)& (0+255),f,b
  9114   002C4A                     l5730:
  9115                           
  9116                           ; BSR set to: 0
  9117   002C4A  51A9               	movf	___fldiv@sign& (0+255),w,b
  9118   002C4C  139C               	iorwf	(___fldiv@b+3)& (0+255),f,b
  9119   002C4E                     
  9120                           ; BSR set to: 0
  9121   002C4E  C099  F099         	movff	___fldiv@b,?___fldiv
  9122   002C52  C09A  F09A         	movff	___fldiv@b+1,?___fldiv+1
  9123   002C56  C09B  F09B         	movff	___fldiv@b+2,?___fldiv+2
  9124   002C5A  C09C  F09C         	movff	___fldiv@b+3,?___fldiv+3
  9125   002C5E  EF74  F017         	goto	l922
  9126   002C62                     l5736:
  9127                           
  9128                           ; BSR set to: 0
  9129   002C62  51B0               	movf	___fldiv@bexp& (0+255),w,b
  9130   002C64  A4D8               	btfss	status,2,c
  9131   002C66  EF37  F016         	goto	u6601
  9132   002C6A  EF39  F016         	goto	u6600
  9133   002C6E                     u6601:
  9134   002C6E  EF43  F016         	goto	l5744
  9135   002C72                     u6600:
  9136   002C72                     
  9137                           ; BSR set to: 0
  9138   002C72  0E00               	movlw	0
  9139   002C74  6F99               	movwf	?___fldiv& (0+255),b
  9140   002C76  0E00               	movlw	0
  9141   002C78  6F9A               	movwf	(?___fldiv+1)& (0+255),b
  9142   002C7A  0E00               	movlw	0
  9143   002C7C  6F9B               	movwf	(?___fldiv+2)& (0+255),b
  9144   002C7E  0E00               	movlw	0
  9145   002C80  6F9C               	movwf	(?___fldiv+3)& (0+255),b
  9146   002C82  EF74  F017         	goto	l922
  9147   002C86                     l5744:
  9148                           
  9149                           ; BSR set to: 0
  9150   002C86  51B1               	movf	___fldiv@aexp& (0+255),w,b
  9151   002C88  C0B0  F0A1         	movff	___fldiv@bexp,??___fldiv
  9152   002C8C  6BA2               	clrf	(??___fldiv+1)& (0+255),b
  9153   002C8E  5FA1               	subwf	??___fldiv& (0+255),f,b
  9154   002C90  0E00               	movlw	0
  9155   002C92  5BA2               	subwfb	(??___fldiv+1)& (0+255),f,b
  9156   002C94  0E7F               	movlw	127
  9157   002C96  25A1               	addwf	??___fldiv& (0+255),w,b
  9158   002C98  6FAA               	movwf	___fldiv@new_exp& (0+255),b
  9159   002C9A  0E00               	movlw	0
  9160   002C9C  21A2               	addwfc	(??___fldiv+1)& (0+255),w,b
  9161   002C9E  6FAB               	movwf	(___fldiv@new_exp+1)& (0+255),b
  9162   002CA0                     
  9163                           ; BSR set to: 0
  9164   002CA0  C099  F0A5         	movff	___fldiv@b,___fldiv@rem
  9165   002CA4  C09A  F0A6         	movff	___fldiv@b+1,___fldiv@rem+1
  9166   002CA8  C09B  F0A7         	movff	___fldiv@b+2,___fldiv@rem+2
  9167   002CAC  C09C  F0A8         	movff	___fldiv@b+3,___fldiv@rem+3
  9168   002CB0                     
  9169                           ; BSR set to: 0
  9170   002CB0  0E00               	movlw	0
  9171   002CB2  6F99               	movwf	___fldiv@b& (0+255),b
  9172   002CB4  0E00               	movlw	0
  9173   002CB6  6F9A               	movwf	(___fldiv@b+1)& (0+255),b
  9174   002CB8  0E00               	movlw	0
  9175   002CBA  6F9B               	movwf	(___fldiv@b+2)& (0+255),b
  9176   002CBC  0E00               	movlw	0
  9177   002CBE  6F9C               	movwf	(___fldiv@b+3)& (0+255),b
  9178   002CC0                     
  9179                           ; BSR set to: 0
  9180   002CC0  0E00               	movlw	0
  9181   002CC2  6FAC               	movwf	___fldiv@grs& (0+255),b
  9182   002CC4  0E00               	movlw	0
  9183   002CC6  6FAD               	movwf	(___fldiv@grs+1)& (0+255),b
  9184   002CC8  0E00               	movlw	0
  9185   002CCA  6FAE               	movwf	(___fldiv@grs+2)& (0+255),b
  9186   002CCC  0E00               	movlw	0
  9187   002CCE  6FAF               	movwf	(___fldiv@grs+3)& (0+255),b
  9188   002CD0                     
  9189                           ; BSR set to: 0
  9190   002CD0  0E00               	movlw	0
  9191   002CD2  6FB1               	movwf	___fldiv@aexp& (0+255),b
  9192   002CD4  EFA4  F016         	goto	l924
  9193   002CD8                     l5754:
  9194                           
  9195                           ; BSR set to: 0
  9196   002CD8  51B1               	movf	___fldiv@aexp& (0+255),w,b
  9197   002CDA  B4D8               	btfsc	status,2,c
  9198   002CDC  EF72  F016         	goto	u6611
  9199   002CE0  EF74  F016         	goto	u6610
  9200   002CE4                     u6611:
  9201   002CE4  EF8B  F016         	goto	l5762
  9202   002CE8                     u6610:
  9203   002CE8                     
  9204                           ; BSR set to: 0
  9205   002CE8  90D8               	bcf	status,0,c
  9206   002CEA  37A5               	rlcf	___fldiv@rem& (0+255),f,b
  9207   002CEC  37A6               	rlcf	(___fldiv@rem+1)& (0+255),f,b
  9208   002CEE  37A7               	rlcf	(___fldiv@rem+2)& (0+255),f,b
  9209   002CF0  37A8               	rlcf	(___fldiv@rem+3)& (0+255),f,b
  9210   002CF2  90D8               	bcf	status,0,c
  9211   002CF4  3799               	rlcf	___fldiv@b& (0+255),f,b
  9212   002CF6  379A               	rlcf	(___fldiv@b+1)& (0+255),f,b
  9213   002CF8  379B               	rlcf	(___fldiv@b+2)& (0+255),f,b
  9214   002CFA  379C               	rlcf	(___fldiv@b+3)& (0+255),f,b
  9215   002CFC                     
  9216                           ; BSR set to: 0
  9217   002CFC  AFAF               	btfss	(___fldiv@grs+3)& (0+255),7,b
  9218   002CFE  EF83  F016         	goto	u6621
  9219   002D02  EF85  F016         	goto	u6620
  9220   002D06                     u6621:
  9221   002D06  EF86  F016         	goto	l927
  9222   002D0A                     u6620:
  9223   002D0A                     
  9224                           ; BSR set to: 0
  9225   002D0A  8199               	bsf	___fldiv@b& (0+255),0,b
  9226   002D0C                     l927:
  9227                           
  9228                           ; BSR set to: 0
  9229   002D0C  90D8               	bcf	status,0,c
  9230   002D0E  37AC               	rlcf	___fldiv@grs& (0+255),f,b
  9231   002D10  37AD               	rlcf	(___fldiv@grs+1)& (0+255),f,b
  9232   002D12  37AE               	rlcf	(___fldiv@grs+2)& (0+255),f,b
  9233   002D14  37AF               	rlcf	(___fldiv@grs+3)& (0+255),f,b
  9234   002D16                     l5762:
  9235                           
  9236                           ; BSR set to: 0
  9237   002D16  519D               	movf	___fldiv@a& (0+255),w,b
  9238   002D18  5DA5               	subwf	___fldiv@rem& (0+255),w,b
  9239   002D1A  519E               	movf	(___fldiv@a+1)& (0+255),w,b
  9240   002D1C  59A6               	subwfb	(___fldiv@rem+1)& (0+255),w,b
  9241   002D1E  519F               	movf	(___fldiv@a+2)& (0+255),w,b
  9242   002D20  59A7               	subwfb	(___fldiv@rem+2)& (0+255),w,b
  9243   002D22  51A0               	movf	(___fldiv@a+3)& (0+255),w,b
  9244   002D24  59A8               	subwfb	(___fldiv@rem+3)& (0+255),w,b
  9245   002D26  A0D8               	btfss	status,0,c
  9246   002D28  EF98  F016         	goto	u6631
  9247   002D2C  EF9A  F016         	goto	u6630
  9248   002D30                     u6631:
  9249   002D30  EFA3  F016         	goto	l5768
  9250   002D34                     u6630:
  9251   002D34                     
  9252                           ; BSR set to: 0
  9253   002D34  8DAF               	bsf	(___fldiv@grs+3)& (0+255),6,b
  9254   002D36                     
  9255                           ; BSR set to: 0
  9256   002D36  519D               	movf	___fldiv@a& (0+255),w,b
  9257   002D38  5FA5               	subwf	___fldiv@rem& (0+255),f,b
  9258   002D3A  519E               	movf	(___fldiv@a+1)& (0+255),w,b
  9259   002D3C  5BA6               	subwfb	(___fldiv@rem+1)& (0+255),f,b
  9260   002D3E  519F               	movf	(___fldiv@a+2)& (0+255),w,b
  9261   002D40  5BA7               	subwfb	(___fldiv@rem+2)& (0+255),f,b
  9262   002D42  51A0               	movf	(___fldiv@a+3)& (0+255),w,b
  9263   002D44  5BA8               	subwfb	(___fldiv@rem+3)& (0+255),f,b
  9264   002D46                     l5768:
  9265                           
  9266                           ; BSR set to: 0
  9267   002D46  2BB1               	incf	___fldiv@aexp& (0+255),f,b
  9268   002D48                     l924:
  9269                           
  9270                           ; BSR set to: 0
  9271   002D48  0E19               	movlw	25
  9272   002D4A  65B1               	cpfsgt	___fldiv@aexp& (0+255),b
  9273   002D4C  EFAA  F016         	goto	u6641
  9274   002D50  EFAC  F016         	goto	u6640
  9275   002D54                     u6641:
  9276   002D54  EF6C  F016         	goto	l5754
  9277   002D58                     u6640:
  9278   002D58                     
  9279                           ; BSR set to: 0
  9280   002D58  51A5               	movf	___fldiv@rem& (0+255),w,b
  9281   002D5A  11A6               	iorwf	(___fldiv@rem+1)& (0+255),w,b
  9282   002D5C  11A7               	iorwf	(___fldiv@rem+2)& (0+255),w,b
  9283   002D5E  11A8               	iorwf	(___fldiv@rem+3)& (0+255),w,b
  9284   002D60  B4D8               	btfsc	status,2,c
  9285   002D62  EFB5  F016         	goto	u6651
  9286   002D66  EFB7  F016         	goto	u6650
  9287   002D6A                     u6651:
  9288   002D6A  EFCF  F016         	goto	l5780
  9289   002D6E                     u6650:
  9290   002D6E                     
  9291                           ; BSR set to: 0
  9292   002D6E  81AC               	bsf	___fldiv@grs& (0+255),0,b
  9293   002D70  EFCF  F016         	goto	l5780
  9294   002D74                     l5774:
  9295                           
  9296                           ; BSR set to: 0
  9297   002D74  90D8               	bcf	status,0,c
  9298   002D76  3799               	rlcf	___fldiv@b& (0+255),f,b
  9299   002D78  379A               	rlcf	(___fldiv@b+1)& (0+255),f,b
  9300   002D7A  379B               	rlcf	(___fldiv@b+2)& (0+255),f,b
  9301   002D7C  379C               	rlcf	(___fldiv@b+3)& (0+255),f,b
  9302   002D7E                     
  9303                           ; BSR set to: 0
  9304   002D7E  AFAF               	btfss	(___fldiv@grs+3)& (0+255),7,b
  9305   002D80  EFC4  F016         	goto	u6661
  9306   002D84  EFC6  F016         	goto	u6660
  9307   002D88                     u6661:
  9308   002D88  EFC7  F016         	goto	l933
  9309   002D8C                     u6660:
  9310   002D8C                     
  9311                           ; BSR set to: 0
  9312   002D8C  8199               	bsf	___fldiv@b& (0+255),0,b
  9313   002D8E                     l933:
  9314                           
  9315                           ; BSR set to: 0
  9316   002D8E  90D8               	bcf	status,0,c
  9317   002D90  37AC               	rlcf	___fldiv@grs& (0+255),f,b
  9318   002D92  37AD               	rlcf	(___fldiv@grs+1)& (0+255),f,b
  9319   002D94  37AE               	rlcf	(___fldiv@grs+2)& (0+255),f,b
  9320   002D96  37AF               	rlcf	(___fldiv@grs+3)& (0+255),f,b
  9321   002D98  07AA               	decf	___fldiv@new_exp& (0+255),f,b
  9322   002D9A  A0D8               	btfss	status,0,c
  9323   002D9C  07AB               	decf	(___fldiv@new_exp+1)& (0+255),f,b
  9324   002D9E                     l5780:
  9325                           
  9326                           ; BSR set to: 0
  9327   002D9E  AF9B               	btfss	(___fldiv@b+2)& (0+255),7,b
  9328   002DA0  EFD4  F016         	goto	u6671
  9329   002DA4  EFD6  F016         	goto	u6670
  9330   002DA8                     u6671:
  9331   002DA8  EFBA  F016         	goto	l5774
  9332   002DAC                     u6670:
  9333   002DAC                     
  9334                           ; BSR set to: 0
  9335   002DAC  0E00               	movlw	0
  9336   002DAE  6FB1               	movwf	___fldiv@aexp& (0+255),b
  9337   002DB0                     
  9338                           ; BSR set to: 0
  9339   002DB0  AFAF               	btfss	(___fldiv@grs+3)& (0+255),7,b
  9340   002DB2  EFDD  F016         	goto	u6681
  9341   002DB6  EFDF  F016         	goto	u6680
  9342   002DBA                     u6681:
  9343   002DBA  EF03  F017         	goto	l935
  9344   002DBE                     u6680:
  9345   002DBE                     
  9346                           ; BSR set to: 0
  9347   002DBE  0EFF               	movlw	255
  9348   002DC0  15AC               	andwf	___fldiv@grs& (0+255),w,b
  9349   002DC2  6FA1               	movwf	??___fldiv& (0+255),b
  9350   002DC4  0EFF               	movlw	255
  9351   002DC6  15AD               	andwf	(___fldiv@grs+1)& (0+255),w,b
  9352   002DC8  6FA2               	movwf	(??___fldiv+1)& (0+255),b
  9353   002DCA  0EFF               	movlw	255
  9354   002DCC  15AE               	andwf	(___fldiv@grs+2)& (0+255),w,b
  9355   002DCE  6FA3               	movwf	(??___fldiv+2)& (0+255),b
  9356   002DD0  0E7F               	movlw	127
  9357   002DD2  15AF               	andwf	(___fldiv@grs+3)& (0+255),w,b
  9358   002DD4  6FA4               	movwf	(??___fldiv+3)& (0+255),b
  9359   002DD6  51A1               	movf	??___fldiv& (0+255),w,b
  9360   002DD8  11A2               	iorwf	(??___fldiv+1)& (0+255),w,b
  9361   002DDA  11A3               	iorwf	(??___fldiv+2)& (0+255),w,b
  9362   002DDC  11A4               	iorwf	(??___fldiv+3)& (0+255),w,b
  9363   002DDE  B4D8               	btfsc	status,2,c
  9364   002DE0  EFF4  F016         	goto	u6691
  9365   002DE4  EFF6  F016         	goto	u6690
  9366   002DE8                     u6691:
  9367   002DE8  EFFA  F016         	goto	l936
  9368   002DEC                     u6690:
  9369   002DEC                     l5788:
  9370                           
  9371                           ; BSR set to: 0
  9372   002DEC  0E01               	movlw	1
  9373   002DEE  6FB1               	movwf	___fldiv@aexp& (0+255),b
  9374   002DF0  EF03  F017         	goto	l935
  9375   002DF4                     l936:
  9376                           
  9377                           ; BSR set to: 0
  9378   002DF4  A199               	btfss	___fldiv@b& (0+255),0,b
  9379   002DF6  EFFF  F016         	goto	u6701
  9380   002DFA  EF01  F017         	goto	u6700
  9381   002DFE                     u6701:
  9382   002DFE  EF03  F017         	goto	l935
  9383   002E02                     u6700:
  9384   002E02  EFF6  F016         	goto	l5788
  9385   002E06                     l935:
  9386                           
  9387                           ; BSR set to: 0
  9388   002E06  51B1               	movf	___fldiv@aexp& (0+255),w,b
  9389   002E08  B4D8               	btfsc	status,2,c
  9390   002E0A  EF09  F017         	goto	u6711
  9391   002E0E  EF0B  F017         	goto	u6710
  9392   002E12                     u6711:
  9393   002E12  EF2F  F017         	goto	l5800
  9394   002E16                     u6710:
  9395   002E16                     
  9396                           ; BSR set to: 0
  9397   002E16  0E01               	movlw	1
  9398   002E18  2799               	addwf	___fldiv@b& (0+255),f,b
  9399   002E1A  0E00               	movlw	0
  9400   002E1C  239A               	addwfc	(___fldiv@b+1)& (0+255),f,b
  9401   002E1E  239B               	addwfc	(___fldiv@b+2)& (0+255),f,b
  9402   002E20  239C               	addwfc	(___fldiv@b+3)& (0+255),f,b
  9403   002E22                     
  9404                           ; BSR set to: 0
  9405   002E22  A19C               	btfss	(___fldiv@b+3)& (0+255),0,b
  9406   002E24  EF16  F017         	goto	u6721
  9407   002E28  EF18  F017         	goto	u6720
  9408   002E2C                     u6721:
  9409   002E2C  EF2F  F017         	goto	l5800
  9410   002E30                     u6720:
  9411   002E30                     
  9412                           ; BSR set to: 0
  9413   002E30  C099  F0A1         	movff	___fldiv@b,??___fldiv
  9414   002E34  C09A  F0A2         	movff	___fldiv@b+1,??___fldiv+1
  9415   002E38  C09B  F0A3         	movff	___fldiv@b+2,??___fldiv+2
  9416   002E3C  C09C  F0A4         	movff	___fldiv@b+3,??___fldiv+3
  9417   002E40  35A4               	rlcf	(??___fldiv+3)& (0+255),w,b
  9418   002E42  33A4               	rrcf	(??___fldiv+3)& (0+255),f,b
  9419   002E44  33A3               	rrcf	(??___fldiv+2)& (0+255),f,b
  9420   002E46  33A2               	rrcf	(??___fldiv+1)& (0+255),f,b
  9421   002E48  33A1               	rrcf	??___fldiv& (0+255),f,b
  9422   002E4A  C0A1  F099         	movff	??___fldiv,___fldiv@b
  9423   002E4E  C0A2  F09A         	movff	??___fldiv+1,___fldiv@b+1
  9424   002E52  C0A3  F09B         	movff	??___fldiv+2,___fldiv@b+2
  9425   002E56  C0A4  F09C         	movff	??___fldiv+3,___fldiv@b+3
  9426   002E5A                     
  9427                           ; BSR set to: 0
  9428   002E5A  4BAA               	infsnz	___fldiv@new_exp& (0+255),f,b
  9429   002E5C  2BAB               	incf	(___fldiv@new_exp+1)& (0+255),f,b
  9430   002E5E                     l5800:
  9431                           
  9432                           ; BSR set to: 0
  9433   002E5E  BFAB               	btfsc	(___fldiv@new_exp+1)& (0+255),7,b
  9434   002E60  EF3A  F017         	goto	u6731
  9435   002E64  51AB               	movf	(___fldiv@new_exp+1)& (0+255),w,b
  9436   002E66  E108               	bnz	u6730
  9437   002E68  29AA               	incf	___fldiv@new_exp& (0+255),w,b
  9438   002E6A  A0D8               	btfss	status,0,c
  9439   002E6C  EF3A  F017         	goto	u6731
  9440   002E70  EF3C  F017         	goto	u6730
  9441   002E74                     u6731:
  9442   002E74  EF47  F017         	goto	l5804
  9443   002E78                     u6730:
  9444   002E78                     
  9445                           ; BSR set to: 0
  9446   002E78  0E00               	movlw	0
  9447   002E7A  6FAB               	movwf	(___fldiv@new_exp+1)& (0+255),b
  9448   002E7C  69AA               	setf	___fldiv@new_exp& (0+255),b
  9449   002E7E  0E00               	movlw	0
  9450   002E80  6F99               	movwf	___fldiv@b& (0+255),b
  9451   002E82  0E00               	movlw	0
  9452   002E84  6F9A               	movwf	(___fldiv@b+1)& (0+255),b
  9453   002E86  0E00               	movlw	0
  9454   002E88  6F9B               	movwf	(___fldiv@b+2)& (0+255),b
  9455   002E8A  0E00               	movlw	0
  9456   002E8C  6F9C               	movwf	(___fldiv@b+3)& (0+255),b
  9457   002E8E                     l5804:
  9458                           
  9459                           ; BSR set to: 0
  9460   002E8E  BFAB               	btfsc	(___fldiv@new_exp+1)& (0+255),7,b
  9461   002E90  EF54  F017         	goto	u6740
  9462   002E94  51AB               	movf	(___fldiv@new_exp+1)& (0+255),w,b
  9463   002E96  E106               	bnz	u6741
  9464   002E98  05AA               	decf	___fldiv@new_exp& (0+255),w,b
  9465   002E9A  B0D8               	btfsc	status,0,c
  9466   002E9C  EF52  F017         	goto	u6741
  9467   002EA0  EF54  F017         	goto	u6740
  9468   002EA4                     u6741:
  9469   002EA4  EF62  F017         	goto	l5808
  9470   002EA8                     u6740:
  9471   002EA8                     
  9472                           ; BSR set to: 0
  9473   002EA8  0E00               	movlw	0
  9474   002EAA  6FAB               	movwf	(___fldiv@new_exp+1)& (0+255),b
  9475   002EAC  0E00               	movlw	0
  9476   002EAE  6FAA               	movwf	___fldiv@new_exp& (0+255),b
  9477   002EB0  0E00               	movlw	0
  9478   002EB2  6F99               	movwf	___fldiv@b& (0+255),b
  9479   002EB4  0E00               	movlw	0
  9480   002EB6  6F9A               	movwf	(___fldiv@b+1)& (0+255),b
  9481   002EB8  0E00               	movlw	0
  9482   002EBA  6F9B               	movwf	(___fldiv@b+2)& (0+255),b
  9483   002EBC  0E00               	movlw	0
  9484   002EBE  6F9C               	movwf	(___fldiv@b+3)& (0+255),b
  9485   002EC0  0E00               	movlw	0
  9486   002EC2  6FA9               	movwf	___fldiv@sign& (0+255),b
  9487   002EC4                     l5808:
  9488                           
  9489                           ; BSR set to: 0
  9490   002EC4  C0AA  F0B0         	movff	___fldiv@new_exp,___fldiv@bexp
  9491   002EC8                     
  9492                           ; BSR set to: 0
  9493   002EC8  A1B0               	btfss	___fldiv@bexp& (0+255),0,b
  9494   002ECA  EF69  F017         	goto	u6751
  9495   002ECE  EF6B  F017         	goto	u6750
  9496   002ED2                     u6751:
  9497   002ED2  EF6E  F017         	goto	l5814
  9498   002ED6                     u6750:
  9499   002ED6                     
  9500                           ; BSR set to: 0
  9501   002ED6  8F9B               	bsf	(___fldiv@b+2)& (0+255),7,b
  9502   002ED8  EF6F  F017         	goto	l5816
  9503   002EDC                     l5814:
  9504                           
  9505                           ; BSR set to: 0
  9506   002EDC  9F9B               	bcf	(___fldiv@b+2)& (0+255),7,b
  9507   002EDE                     l5816:
  9508                           
  9509                           ; BSR set to: 0
  9510   002EDE  90D8               	bcf	status,0,c
  9511   002EE0  31B0               	rrcf	___fldiv@bexp& (0+255),w,b
  9512   002EE2  6F9C               	movwf	(___fldiv@b+3)& (0+255),b
  9513   002EE4  EF25  F016         	goto	l5730
  9514   002EE8                     l922:
  9515                           
  9516                           ; BSR set to: 0
  9517   002EE8  0012               	return		;funcret
  9518   002EEA                     __end_of___fldiv:
  9519                           	callstack 0
  9520                           
  9521 ;; *************** function _lcd_puts *****************
  9522 ;; Defined at:
  9523 ;;		line 117 in file "lcd_x8.c"
  9524 ;; Parameters:    Size  Location     Type
  9525 ;;  s               2    4[BANK0 ] PTR unsigned char 
  9526 ;;		 -> main@Buffer(32), 
  9527 ;; Auto vars:     Size  Location     Type
  9528 ;;		None
  9529 ;; Return value:  Size  Location     Type
  9530 ;;                  1    wreg      void 
  9531 ;; Registers used:
  9532 ;;		wreg, fsr2l, fsr2h, status,2, status,0, cstack
  9533 ;; Tracked objects:
  9534 ;;		On entry : 0/0
  9535 ;;		On exit  : 0/0
  9536 ;;		Unchanged: 0/0
  9537 ;; Data sizes:     COMRAM   BANK0   BANK1   BANK2   BANK3   BANK4   BANK5   BANK6   BANK7   BANK8   BANK9  BANK10  BANK1
      +1  BANK12  BANK13  BANK14  BANK15
  9538 ;;      Params:         0       2       0       0       0       0       0       0       0       0       0       0       
      +0       0       0       0       0
  9539 ;;      Locals:         0       0       0       0       0       0       0       0       0       0       0       0       
      +0       0       0       0       0
  9540 ;;      Temps:          0       0       0       0       0       0       0       0       0       0       0       0       
      +0       0       0       0       0
  9541 ;;      Totals:         0       2       0       0       0       0       0       0       0       0       0       0       
      +0       0       0       0       0
  9542 ;;Total ram usage:        2 bytes
  9543 ;; Hardware stack levels used: 1
  9544 ;; Hardware stack levels required when called: 8
  9545 ;; This function calls:
  9546 ;;		_lcd_putc
  9547 ;; This function is called by:
  9548 ;;		_main
  9549 ;; This function uses a non-reentrant model
  9550 ;;
  9551                           
  9552                           	psect	text35
  9553   004D0C                     __ptext35:
  9554                           	callstack 0
  9555   004D0C                     _lcd_puts:
  9556                           	callstack 22
  9557   004D0C                     
  9558                           ;lcd_x8.c: 118:     while (*s) {
  9559   004D0C  EF92  F026         	goto	l6792
  9560   004D10                     l6788:
  9561                           
  9562                           ;lcd_x8.c: 119:         lcd_putc(*s);
  9563   004D10  C084  FFD9         	movff	lcd_puts@s,fsr2l
  9564   004D14  C085  FFDA         	movff	lcd_puts@s+1,fsr2h
  9565   004D18  50DF               	movf	indf2,w,c
  9566   004D1A  ECB3  F023         	call	_lcd_putc
  9567   004D1E                     
  9568                           ;lcd_x8.c: 120:         s++;
  9569   004D1E  0100               	movlb	0	; () banked
  9570   004D20  4B84               	infsnz	lcd_puts@s& (0+255),f,b
  9571   004D22  2B85               	incf	(lcd_puts@s+1)& (0+255),f,b
  9572   004D24                     l6792:
  9573                           
  9574                           ;lcd_x8.c: 118:     while (*s) {
  9575   004D24  C084  FFD9         	movff	lcd_puts@s,fsr2l
  9576   004D28  C085  FFDA         	movff	lcd_puts@s+1,fsr2h
  9577   004D2C  50DF               	movf	indf2,w,c
  9578   004D2E  A4D8               	btfss	status,2,c
  9579   004D30  EF9C  F026         	goto	u8181
  9580   004D34  EF9E  F026         	goto	u8180
  9581   004D38                     u8181:
  9582   004D38  EF88  F026         	goto	l6788
  9583   004D3C                     u8180:
  9584   004D3C  0012               	return		;funcret
  9585   004D3E                     __end_of_lcd_puts:
  9586                           	callstack 0
  9587                           
  9588 ;; *************** function _lcd_putc *****************
  9589 ;; Defined at:
  9590 ;;		line 103 in file "lcd_x8.c"
  9591 ;; Parameters:    Size  Location     Type
  9592 ;;  c               1    wreg     unsigned char 
  9593 ;; Auto vars:     Size  Location     Type
  9594 ;;  c               1   50[COMRAM] unsigned char 
  9595 ;; Return value:  Size  Location     Type
  9596 ;;                  1    wreg      void 
  9597 ;; Registers used:
  9598 ;;		wreg, status,2, status,0, cstack
  9599 ;; Tracked objects:
  9600 ;;		On entry : 0/0
  9601 ;;		On exit  : 0/0
  9602 ;;		Unchanged: 0/0
  9603 ;; Data sizes:     COMRAM   BANK0   BANK1   BANK2   BANK3   BANK4   BANK5   BANK6   BANK7   BANK8   BANK9  BANK10  BANK1
      +1  BANK12  BANK13  BANK14  BANK15
  9604 ;;      Params:         0       0       0       0       0       0       0       0       0       0       0       0       
      +0       0       0       0       0
  9605 ;;      Locals:         1       0       0       0       0       0       0       0       0       0       0       0       
      +0       0       0       0       0
  9606 ;;      Temps:          0       2       0       0       0       0       0       0       0       0       0       0       
      +0       0       0       0       0
  9607 ;;      Totals:         1       2       0       0       0       0       0       0       0       0       0       0       
      +0       0       0       0       0
  9608 ;;Total ram usage:        3 bytes
  9609 ;; Hardware stack levels used: 1
  9610 ;; Hardware stack levels required when called: 7
  9611 ;; This function calls:
  9612 ;;		_delay_ms
  9613 ;;		_lcd_gotoxy
  9614 ;;		_lcd_send_byte
  9615 ;; This function is called by:
  9616 ;;		_lcd_puts
  9617 ;; This function uses a non-reentrant model
  9618 ;;
  9619                           
  9620                           	psect	text36
  9621   004766                     __ptext36:
  9622                           	callstack 0
  9623   004766                     _lcd_putc:
  9624                           	callstack 22
  9625                           
  9626                           ;incstack = 0
  9627                           ;lcd_putc@c stored from wreg
  9628   004766  6E33               	movwf	lcd_putc@c^0,c
  9629   004768                     
  9630                           ;lcd_x8.c: 104:     switch (c) {
  9631   004768  EFD8  F023         	goto	l6720
  9632   00476C                     l6710:
  9633                           
  9634                           ; BSR set to: 0
  9635   00476C  0E01               	movlw	1
  9636   00476E  6E2E               	movwf	lcd_send_byte@n^0,c
  9637   004770  0E00               	movlw	0
  9638   004772  EC00  F025         	call	_lcd_send_byte
  9639                           
  9640                           ;lcd_x8.c: 106:             delay_ms(2);
  9641   004776  0E00               	movlw	0
  9642   004778  6E27               	movwf	(delay_ms@n+1)^0,c
  9643   00477A  0E02               	movlw	2
  9644   00477C  6E26               	movwf	delay_ms@n^0,c
  9645   00477E  EC9F  F026         	call	_delay_ms	;wreg free
  9646                           
  9647                           ;lcd_x8.c: 107:             break;
  9648   004782  EFF2  F023         	goto	l255
  9649   004786                     l6712:
  9650                           
  9651                           ; BSR set to: 0
  9652   004786  0E02               	movlw	2
  9653   004788  6E30               	movwf	lcd_gotoxy@y^0,c
  9654   00478A  0E01               	movlw	1
  9655   00478C  ECF3  F023         	call	_lcd_gotoxy
  9656                           
  9657                           ;lcd_x8.c: 109:             break;
  9658   004790  EFF2  F023         	goto	l255
  9659   004794                     l6714:
  9660                           
  9661                           ; BSR set to: 0
  9662   004794  0E10               	movlw	16
  9663   004796  6E2E               	movwf	lcd_send_byte@n^0,c
  9664   004798  0E00               	movlw	0
  9665   00479A  EC00  F025         	call	_lcd_send_byte
  9666                           
  9667                           ;lcd_x8.c: 111:             break;
  9668   00479E  EFF2  F023         	goto	l255
  9669   0047A2                     l6716:
  9670                           
  9671                           ; BSR set to: 0
  9672   0047A2  C033  F02E         	movff	lcd_putc@c,lcd_send_byte@n
  9673   0047A6  0E01               	movlw	1
  9674   0047A8  EC00  F025         	call	_lcd_send_byte
  9675                           
  9676                           ;lcd_x8.c: 113:             break;
  9677   0047AC  EFF2  F023         	goto	l255
  9678   0047B0                     l6720:
  9679   0047B0  5033               	movf	lcd_putc@c^0,w,c
  9680   0047B2  0100               	movlb	0	; () banked
  9681   0047B4  6F82               	movwf	??_lcd_putc& (0+255),b
  9682   0047B6  6B83               	clrf	(??_lcd_putc+1)& (0+255),b
  9683                           
  9684                           ; Switch on 2 bytes has been partitioned into a top level switch of size 1, and 1 sub-sw
      +                          itches
  9685                           ; Switch size 1, requested type "simple"
  9686                           ; Number of cases is 1, Range of values is 0 to 0
  9687                           ; switch strategies available:
  9688                           ; Name         Instructions Cycles
  9689                           ; simple_byte            4     3 (average)
  9690                           ;	Chosen strategy is simple_byte
  9691   0047B8  5183               	movf	(??_lcd_putc+1)& (0+255),w,b
  9692   0047BA  0A00               	xorlw	0	; case 0
  9693   0047BC  B4D8               	btfsc	status,2,c
  9694   0047BE  EFE3  F023         	goto	l7058
  9695   0047C2  EFD1  F023         	goto	l6716
  9696   0047C6                     l7058:
  9697                           
  9698                           ; BSR set to: 0
  9699                           ; Switch size 1, requested type "simple"
  9700                           ; Number of cases is 3, Range of values is 8 to 12
  9701                           ; switch strategies available:
  9702                           ; Name         Instructions Cycles
  9703                           ; simple_byte           10     6 (average)
  9704                           ;	Chosen strategy is simple_byte
  9705   0047C6  5182               	movf	??_lcd_putc& (0+255),w,b
  9706   0047C8  0A08               	xorlw	8	; case 8
  9707   0047CA  B4D8               	btfsc	status,2,c
  9708   0047CC  EFCA  F023         	goto	l6714
  9709   0047D0  0A02               	xorlw	2	; case 10
  9710   0047D2  B4D8               	btfsc	status,2,c
  9711   0047D4  EFC3  F023         	goto	l6712
  9712   0047D8  0A06               	xorlw	6	; case 12
  9713   0047DA  B4D8               	btfsc	status,2,c
  9714   0047DC  EFB6  F023         	goto	l6710
  9715   0047E0  EFD1  F023         	goto	l6716
  9716   0047E4                     l255:
  9717   0047E4  0012               	return		;funcret
  9718   0047E6                     __end_of_lcd_putc:
  9719                           	callstack 0
  9720                           
  9721 ;; *************** function _lcd_gotoxy *****************
  9722 ;; Defined at:
  9723 ;;		line 85 in file "lcd_x8.c"
  9724 ;; Parameters:    Size  Location     Type
  9725 ;;  x               1    wreg     unsigned char 
  9726 ;;  y               1   47[COMRAM] unsigned char 
  9727 ;; Auto vars:     Size  Location     Type
  9728 ;;  x               1    0[BANK0 ] unsigned char 
  9729 ;;  address         1    1[BANK0 ] unsigned char 
  9730 ;; Return value:  Size  Location     Type
  9731 ;;                  1    wreg      void 
  9732 ;; Registers used:
  9733 ;;		wreg, status,2, status,0, cstack
  9734 ;; Tracked objects:
  9735 ;;		On entry : 0/0
  9736 ;;		On exit  : 0/0
  9737 ;;		Unchanged: 0/0
  9738 ;; Data sizes:     COMRAM   BANK0   BANK1   BANK2   BANK3   BANK4   BANK5   BANK6   BANK7   BANK8   BANK9  BANK10  BANK1
      +1  BANK12  BANK13  BANK14  BANK15
  9739 ;;      Params:         1       0       0       0       0       0       0       0       0       0       0       0       
      +0       0       0       0       0
  9740 ;;      Locals:         0       2       0       0       0       0       0       0       0       0       0       0       
      +0       0       0       0       0
  9741 ;;      Temps:          2       0       0       0       0       0       0       0       0       0       0       0       
      +0       0       0       0       0
  9742 ;;      Totals:         3       2       0       0       0       0       0       0       0       0       0       0       
      +0       0       0       0       0
  9743 ;;Total ram usage:        5 bytes
  9744 ;; Hardware stack levels used: 1
  9745 ;; Hardware stack levels required when called: 6
  9746 ;; This function calls:
  9747 ;;		_lcd_send_byte
  9748 ;; This function is called by:
  9749 ;;		_main
  9750 ;;		_lcd_putc
  9751 ;; This function uses a non-reentrant model
  9752 ;;
  9753                           
  9754                           	psect	text37
  9755   0047E6                     __ptext37:
  9756                           	callstack 0
  9757   0047E6                     _lcd_gotoxy:
  9758                           	callstack 22
  9759                           
  9760                           ;incstack = 0
  9761                           ;lcd_gotoxy@x stored from wreg
  9762   0047E6  0100               	movlb	0	; () banked
  9763   0047E8  6F80               	movwf	lcd_gotoxy@x& (0+255),b
  9764   0047EA                     
  9765                           ;lcd_x8.c: 86:     unsigned char address;;lcd_x8.c: 88:     switch (y) {
  9766   0047EA  EF0B  F024         	goto	l6588
  9767   0047EE                     l6578:
  9768   0047EE  0E80               	movlw	128
  9769   0047F0  0100               	movlb	0	; () banked
  9770   0047F2  6F81               	movwf	lcd_gotoxy@address& (0+255),b
  9771                           
  9772                           ;lcd_x8.c: 90:             break;
  9773   0047F4  EF28  F024         	goto	l6590
  9774   0047F8                     l6580:
  9775   0047F8  0EC0               	movlw	192
  9776   0047FA  0100               	movlb	0	; () banked
  9777   0047FC  6F81               	movwf	lcd_gotoxy@address& (0+255),b
  9778                           
  9779                           ;lcd_x8.c: 92:             break;
  9780   0047FE  EF28  F024         	goto	l6590
  9781   004802                     l6582:
  9782   004802  0E90               	movlw	144
  9783   004804  0100               	movlb	0	; () banked
  9784   004806  6F81               	movwf	lcd_gotoxy@address& (0+255),b
  9785                           
  9786                           ;lcd_x8.c: 94:             break;
  9787   004808  EF28  F024         	goto	l6590
  9788   00480C                     l6584:
  9789   00480C  0ED0               	movlw	208
  9790   00480E  0100               	movlb	0	; () banked
  9791   004810  6F81               	movwf	lcd_gotoxy@address& (0+255),b
  9792                           
  9793                           ;lcd_x8.c: 96:             break;
  9794   004812  EF28  F024         	goto	l6590
  9795   004816                     l6588:
  9796   004816  5030               	movf	lcd_gotoxy@y^0,w,c
  9797   004818  6E31               	movwf	??_lcd_gotoxy^0,c
  9798   00481A  6A32               	clrf	(??_lcd_gotoxy+1)^0,c
  9799                           
  9800                           ; Switch on 2 bytes has been partitioned into a top level switch of size 1, and 1 sub-sw
      +                          itches
  9801                           ; Switch size 1, requested type "simple"
  9802                           ; Number of cases is 1, Range of values is 0 to 0
  9803                           ; switch strategies available:
  9804                           ; Name         Instructions Cycles
  9805                           ; simple_byte            4     3 (average)
  9806                           ;	Chosen strategy is simple_byte
  9807   00481C  5032               	movf	(??_lcd_gotoxy+1)^0,w,c
  9808   00481E  0A00               	xorlw	0	; case 0
  9809   004820  B4D8               	btfsc	status,2,c
  9810   004822  EF15  F024         	goto	l7060
  9811   004826  EF28  F024         	goto	l6590
  9812   00482A                     l7060:
  9813                           
  9814                           ; Switch size 1, requested type "simple"
  9815                           ; Number of cases is 4, Range of values is 1 to 4
  9816                           ; switch strategies available:
  9817                           ; Name         Instructions Cycles
  9818                           ; simple_byte           13     7 (average)
  9819                           ;	Chosen strategy is simple_byte
  9820   00482A  5031               	movf	??_lcd_gotoxy^0,w,c
  9821   00482C  0A01               	xorlw	1	; case 1
  9822   00482E  B4D8               	btfsc	status,2,c
  9823   004830  EFF7  F023         	goto	l6578
  9824   004834  0A03               	xorlw	3	; case 2
  9825   004836  B4D8               	btfsc	status,2,c
  9826   004838  EFFC  F023         	goto	l6580
  9827   00483C  0A01               	xorlw	1	; case 3
  9828   00483E  B4D8               	btfsc	status,2,c
  9829   004840  EF01  F024         	goto	l6582
  9830   004844  0A07               	xorlw	7	; case 4
  9831   004846  B4D8               	btfsc	status,2,c
  9832   004848  EF06  F024         	goto	l6584
  9833   00484C  EF28  F024         	goto	l6590
  9834   004850                     l6590:
  9835                           
  9836                           ;lcd_x8.c: 98:     address += x - 1;
  9837   004850  0100               	movlb	0	; () banked
  9838   004852  0580               	decf	lcd_gotoxy@x& (0+255),w,b
  9839   004854  2781               	addwf	lcd_gotoxy@address& (0+255),f,b
  9840   004856                     
  9841                           ; BSR set to: 0
  9842                           ;lcd_x8.c: 99:     lcd_send_byte(0, (unsigned char) (0x80 | address));
  9843   004856  5181               	movf	lcd_gotoxy@address& (0+255),w,b
  9844   004858  0980               	iorlw	128
  9845   00485A  6E2E               	movwf	lcd_send_byte@n^0,c
  9846   00485C  0E00               	movlw	0
  9847   00485E  EC00  F025         	call	_lcd_send_byte
  9848   004862  0012               	return		;funcret
  9849   004864                     __end_of_lcd_gotoxy:
  9850                           	callstack 0
  9851                           
  9852 ;; *************** function _lcd_init *****************
  9853 ;; Defined at:
  9854 ;;		line 52 in file "lcd_x8.c"
  9855 ;; Parameters:    Size  Location     Type
  9856 ;;		None
  9857 ;; Auto vars:     Size  Location     Type
  9858 ;;  i               1   47[COMRAM] unsigned char 
  9859 ;; Return value:  Size  Location     Type
  9860 ;;                  1    wreg      void 
  9861 ;; Registers used:
  9862 ;;		wreg, fsr2l, fsr2h, status,2, status,0, cstack
  9863 ;; Tracked objects:
  9864 ;;		On entry : 0/0
  9865 ;;		On exit  : 0/0
  9866 ;;		Unchanged: 0/0
  9867 ;; Data sizes:     COMRAM   BANK0   BANK1   BANK2   BANK3   BANK4   BANK5   BANK6   BANK7   BANK8   BANK9  BANK10  BANK1
      +1  BANK12  BANK13  BANK14  BANK15
  9868 ;;      Params:         0       0       0       0       0       0       0       0       0       0       0       0       
      +0       0       0       0       0
  9869 ;;      Locals:         1       0       0       0       0       0       0       0       0       0       0       0       
      +0       0       0       0       0
  9870 ;;      Temps:          0       0       0       0       0       0       0       0       0       0       0       0       
      +0       0       0       0       0
  9871 ;;      Totals:         1       0       0       0       0       0       0       0       0       0       0       0       
      +0       0       0       0       0
  9872 ;;Total ram usage:        1 bytes
  9873 ;; Hardware stack levels used: 1
  9874 ;; Hardware stack levels required when called: 6
  9875 ;; This function calls:
  9876 ;;		_delay_ms
  9877 ;;		_lcd_send_byte
  9878 ;;		_lcd_send_nibble
  9879 ;; This function is called by:
  9880 ;;		_main
  9881 ;; This function uses a non-reentrant model
  9882 ;;
  9883                           
  9884                           	psect	text38
  9885   0048D6                     __ptext38:
  9886                           	callstack 0
  9887   0048D6                     _lcd_init:
  9888                           	callstack 24
  9889   0048D6                     
  9890                           ;lcd_x8.c: 54:     unsigned char i;;lcd_x8.c: 57:     PORTEbits.RE2 = 0;
  9891   0048D6  9484               	bcf	132,2,c	;volatile
  9892                           
  9893                           ;lcd_x8.c: 59:     PORTEbits.RE1 = 0;
  9894   0048D8  9284               	bcf	132,1,c	;volatile
  9895   0048DA                     
  9896                           ;lcd_x8.c: 61:     delay_ms(25);
  9897   0048DA  0E00               	movlw	0
  9898   0048DC  6E27               	movwf	(delay_ms@n+1)^0,c
  9899   0048DE  0E19               	movlw	25
  9900   0048E0  6E26               	movwf	delay_ms@n^0,c
  9901   0048E2  EC9F  F026         	call	_delay_ms	;wreg free
  9902   0048E6                     
  9903                           ;lcd_x8.c: 62:     for (i = 1; i <= 3; ++i) {
  9904   0048E6  0E01               	movlw	1
  9905   0048E8  6E30               	movwf	lcd_init@i^0,c
  9906   0048EA                     l6746:
  9907                           
  9908                           ;lcd_x8.c: 63:         lcd_send_nibble(3);
  9909   0048EA  0E03               	movlw	3
  9910   0048EC  EC26  F027         	call	_lcd_send_nibble
  9911                           
  9912                           ;lcd_x8.c: 65:         delay_ms(6);
  9913   0048F0  0E00               	movlw	0
  9914   0048F2  6E27               	movwf	(delay_ms@n+1)^0,c
  9915   0048F4  0E06               	movlw	6
  9916   0048F6  6E26               	movwf	delay_ms@n^0,c
  9917   0048F8  EC9F  F026         	call	_delay_ms	;wreg free
  9918   0048FC                     
  9919                           ;lcd_x8.c: 66:     }
  9920   0048FC  2A30               	incf	lcd_init@i^0,f,c
  9921   0048FE  0E03               	movlw	3
  9922   004900  6430               	cpfsgt	lcd_init@i^0,c
  9923   004902  EF85  F024         	goto	u8161
  9924   004906  EF87  F024         	goto	u8160
  9925   00490A                     u8161:
  9926   00490A  EF75  F024         	goto	l6746
  9927   00490E                     u8160:
  9928   00490E                     
  9929                           ;lcd_x8.c: 68:     lcd_send_nibble(2);
  9930   00490E  0E02               	movlw	2
  9931   004910  EC26  F027         	call	_lcd_send_nibble
  9932   004914                     
  9933                           ;lcd_x8.c: 70:     for (i = 0; i <= 3; ++i)
  9934   004914  0E00               	movlw	0
  9935   004916  6E30               	movwf	lcd_init@i^0,c
  9936   004918                     l6760:
  9937                           
  9938                           ;lcd_x8.c: 71:         lcd_send_byte(0, LCD_INIT_STRING[i]);
  9939   004918  0E56               	movlw	low _LCD_INIT_STRING
  9940   00491A  2430               	addwf	lcd_init@i^0,w,c
  9941   00491C  6ED9               	movwf	fsr2l,c
  9942   00491E  6ADA               	clrf	fsr2h,c
  9943   004920  0E00               	movlw	high _LCD_INIT_STRING
  9944   004922  22DA               	addwfc	fsr2h,f,c
  9945   004924  50DF               	movf	indf2,w,c
  9946   004926  6E2E               	movwf	lcd_send_byte@n^0,c
  9947   004928  0E00               	movlw	0
  9948   00492A  EC00  F025         	call	_lcd_send_byte
  9949   00492E  2A30               	incf	lcd_init@i^0,f,c
  9950   004930  0E03               	movlw	3
  9951   004932  6430               	cpfsgt	lcd_init@i^0,c
  9952   004934  EF9E  F024         	goto	u8171
  9953   004938  EFA0  F024         	goto	u8170
  9954   00493C                     u8171:
  9955   00493C  EF8C  F024         	goto	l6760
  9956   004940                     u8170:
  9957   004940  0012               	return		;funcret
  9958   004942                     __end_of_lcd_init:
  9959                           	callstack 0
  9960                           
  9961 ;; *************** function _lcd_send_byte *****************
  9962 ;; Defined at:
  9963 ;;		line 35 in file "lcd_x8.c"
  9964 ;; Parameters:    Size  Location     Type
  9965 ;;  cm_data         1    wreg     unsigned char 
  9966 ;;  n               1   45[COMRAM] unsigned char 
  9967 ;; Auto vars:     Size  Location     Type
  9968 ;;  cm_data         1   46[COMRAM] unsigned char 
  9969 ;; Return value:  Size  Location     Type
  9970 ;;                  1    wreg      void 
  9971 ;; Registers used:
  9972 ;;		wreg, status,2, status,0, cstack
  9973 ;; Tracked objects:
  9974 ;;		On entry : 0/0
  9975 ;;		On exit  : 0/0
  9976 ;;		Unchanged: 0/0
  9977 ;; Data sizes:     COMRAM   BANK0   BANK1   BANK2   BANK3   BANK4   BANK5   BANK6   BANK7   BANK8   BANK9  BANK10  BANK1
      +1  BANK12  BANK13  BANK14  BANK15
  9978 ;;      Params:         1       0       0       0       0       0       0       0       0       0       0       0       
      +0       0       0       0       0
  9979 ;;      Locals:         1       0       0       0       0       0       0       0       0       0       0       0       
      +0       0       0       0       0
  9980 ;;      Temps:          0       0       0       0       0       0       0       0       0       0       0       0       
      +0       0       0       0       0
  9981 ;;      Totals:         2       0       0       0       0       0       0       0       0       0       0       0       
      +0       0       0       0       0
  9982 ;;Total ram usage:        2 bytes
  9983 ;; Hardware stack levels used: 1
  9984 ;; Hardware stack levels required when called: 5
  9985 ;; This function calls:
  9986 ;;		_delay_cycles
  9987 ;;		_delay_ms
  9988 ;;		_lcd_send_nibble
  9989 ;; This function is called by:
  9990 ;;		_lcd_init
  9991 ;;		_lcd_gotoxy
  9992 ;;		_lcd_putc
  9993 ;;		_Lcd_Shift_Right
  9994 ;;		_Lcd_Shift_Left
  9995 ;; This function uses a non-reentrant model
  9996 ;;
  9997                           
  9998                           	psect	text39
  9999   004A00                     __ptext39:
 10000                           	callstack 0
 10001   004A00                     _lcd_send_byte:
 10002                           	callstack 23
 10003                           
 10004                           ;incstack = 0
 10005                           ;lcd_send_byte@cm_data stored from wreg
 10006   004A00  6E2F               	movwf	lcd_send_byte@cm_data^0,c
 10007   004A02                     
 10008                           ;lcd_x8.c: 39:     PORTEbits.RE2 = cm_data;
 10009   004A02  B02F               	btfsc	lcd_send_byte@cm_data^0,0,c
 10010   004A04  D002               	bra	u7505
 10011   004A06  9484               	bcf	132,2,c	;volatile
 10012   004A08  D001               	bra	u7506
 10013   004A0A                     u7505:
 10014   004A0A  8484               	bsf	132,2,c	;volatile
 10015   004A0C                     u7506:
 10016   004A0C                     
 10017                           ;lcd_x8.c: 40:     delay_cycles(1);
 10018   004A0C  0E01               	movlw	1
 10019   004A0E  EC4D  F026         	call	_delay_cycles
 10020   004A12                     
 10021                           ;lcd_x8.c: 42:     delay_cycles(1);
 10022   004A12  0E01               	movlw	1
 10023   004A14  EC4D  F026         	call	_delay_cycles
 10024   004A18                     
 10025                           ;lcd_x8.c: 43:     PORTEbits.RE1 = 0;
 10026   004A18  9284               	bcf	132,1,c	;volatile
 10027   004A1A                     
 10028                           ;lcd_x8.c: 44:     lcd_send_nibble(n >> 4);
 10029   004A1A  382E               	swapf	lcd_send_byte@n^0,w,c
 10030   004A1C  0B0F               	andlw	15
 10031   004A1E  EC26  F027         	call	_lcd_send_nibble
 10032   004A22                     
 10033                           ;lcd_x8.c: 45:     lcd_send_nibble(n & 0x0f);
 10034   004A22  502E               	movf	lcd_send_byte@n^0,w,c
 10035   004A24  0B0F               	andlw	15
 10036   004A26  EC26  F027         	call	_lcd_send_nibble
 10037   004A2A                     
 10038                           ;lcd_x8.c: 46:     if (cm_data) _delaywdt((unsigned long)((200)*(4000000UL/4000000.0)));
 10039   004A2A  502F               	movf	lcd_send_byte@cm_data^0,w,c
 10040   004A2C  B4D8               	btfsc	status,2,c
 10041   004A2E  EF1B  F025         	goto	u7511
 10042   004A32  EF1D  F025         	goto	u7510
 10043   004A36                     u7511:
 10044   004A36  EF23  F025         	goto	l6248
 10045   004A3A                     u7510:
 10046   004A3A  0E32               	movlw	50
 10047   004A3C                     u8387:
 10048   004A3C  0004               	clrwdt	
 10049   004A3E  2EE8               	decfsz	wreg,f,c
 10050   004A40  D7FD               	bra	u8387
 10051   004A42  EF29  F025         	goto	l230
 10052   004A46                     l6248:
 10053                           
 10054                           ;lcd_x8.c: 48:         delay_ms(2);
 10055   004A46  0E00               	movlw	0
 10056   004A48  6E27               	movwf	(delay_ms@n+1)^0,c
 10057   004A4A  0E02               	movlw	2
 10058   004A4C  6E26               	movwf	delay_ms@n^0,c
 10059   004A4E  EC9F  F026         	call	_delay_ms	;wreg free
 10060   004A52                     l230:
 10061   004A52  0012               	return		;funcret
 10062   004A54                     __end_of_lcd_send_byte:
 10063                           	callstack 0
 10064                           
 10065 ;; *************** function _lcd_send_nibble *****************
 10066 ;; Defined at:
 10067 ;;		line 25 in file "lcd_x8.c"
 10068 ;; Parameters:    Size  Location     Type
 10069 ;;  n               1    wreg     unsigned char 
 10070 ;; Auto vars:     Size  Location     Type
 10071 ;;  n               1   44[COMRAM] unsigned char 
 10072 ;; Return value:  Size  Location     Type
 10073 ;;                  1    wreg      void 
 10074 ;; Registers used:
 10075 ;;		wreg, status,2, status,0, cstack
 10076 ;; Tracked objects:
 10077 ;;		On entry : 0/0
 10078 ;;		On exit  : 0/0
 10079 ;;		Unchanged: 0/0
 10080 ;; Data sizes:     COMRAM   BANK0   BANK1   BANK2   BANK3   BANK4   BANK5   BANK6   BANK7   BANK8   BANK9  BANK10  BANK1
      +1  BANK12  BANK13  BANK14  BANK15
 10081 ;;      Params:         0       0       0       0       0       0       0       0       0       0       0       0       
      +0       0       0       0       0
 10082 ;;      Locals:         1       0       0       0       0       0       0       0       0       0       0       0       
      +0       0       0       0       0
 10083 ;;      Temps:          1       0       0       0       0       0       0       0       0       0       0       0       
      +0       0       0       0       0
 10084 ;;      Totals:         2       0       0       0       0       0       0       0       0       0       0       0       
      +0       0       0       0       0
 10085 ;;Total ram usage:        2 bytes
 10086 ;; Hardware stack levels used: 1
 10087 ;; Hardware stack levels required when called: 4
 10088 ;; This function calls:
 10089 ;;		_delay_cycles
 10090 ;; This function is called by:
 10091 ;;		_lcd_send_byte
 10092 ;;		_lcd_init
 10093 ;; This function uses a non-reentrant model
 10094 ;;
 10095                           
 10096                           	psect	text40
 10097   004E4C                     __ptext40:
 10098                           	callstack 0
 10099   004E4C                     _lcd_send_nibble:
 10100                           	callstack 23
 10101                           
 10102                           ;incstack = 0
 10103                           ;lcd_send_nibble@n stored from wreg
 10104   004E4C  6E2D               	movwf	lcd_send_nibble@n^0,c
 10105   004E4E                     
 10106                           ;lcd_x8.c: 27:     lcd.data = n;
 10107   004E4E  C02D  F02C         	movff	lcd_send_nibble@n,??_lcd_send_nibble
 10108   004E52  3A2C               	swapf	??_lcd_send_nibble^0,f,c
 10109   004E54  5083               	movf	131,w,c
 10110   004E56  182C               	xorwf	??_lcd_send_nibble^0,w,c
 10111   004E58  0B0F               	andlw	-241
 10112   004E5A  182C               	xorwf	??_lcd_send_nibble^0,w,c
 10113   004E5C  6E83               	movwf	131,c
 10114   004E5E                     
 10115                           ;lcd_x8.c: 29:     delay_cycles(1);
 10116   004E5E  0E01               	movlw	1
 10117   004E60  EC4D  F026         	call	_delay_cycles
 10118   004E64                     
 10119                           ;lcd_x8.c: 30:     PORTEbits.RE1 = 1;
 10120   004E64  8284               	bsf	132,1,c	;volatile
 10121   004E66                     
 10122                           ;lcd_x8.c: 31:     _delaywdt((unsigned long)((2)*(4000000UL/4000000.0)));
 10123   004E66  0004               	clrwdt	
 10124   004E68  F000               	nop		;2 cycle nop
 10125   004E6A                     
 10126                           ;lcd_x8.c: 32:     PORTEbits.RE1 = 0;
 10127   004E6A  9284               	bcf	132,1,c	;volatile
 10128   004E6C  0012               	return		;funcret
 10129   004E6E                     __end_of_lcd_send_nibble:
 10130                           	callstack 0
 10131                           
 10132 ;; *************** function _delay_cycles *****************
 10133 ;; Defined at:
 10134 ;;		line 16 in file "lcd_x8.c"
 10135 ;; Parameters:    Size  Location     Type
 10136 ;;  n               1    wreg     unsigned char 
 10137 ;; Auto vars:     Size  Location     Type
 10138 ;;  n               1   40[COMRAM] unsigned char 
 10139 ;;  x               2   41[COMRAM] int 
 10140 ;; Return value:  Size  Location     Type
 10141 ;;                  1    wreg      void 
 10142 ;; Registers used:
 10143 ;;		wreg, status,2, status,0
 10144 ;; Tracked objects:
 10145 ;;		On entry : 0/0
 10146 ;;		On exit  : 0/0
 10147 ;;		Unchanged: 0/0
 10148 ;; Data sizes:     COMRAM   BANK0   BANK1   BANK2   BANK3   BANK4   BANK5   BANK6   BANK7   BANK8   BANK9  BANK10  BANK1
      +1  BANK12  BANK13  BANK14  BANK15
 10149 ;;      Params:         0       0       0       0       0       0       0       0       0       0       0       0       
      +0       0       0       0       0
 10150 ;;      Locals:         3       0       0       0       0       0       0       0       0       0       0       0       
      +0       0       0       0       0
 10151 ;;      Temps:          3       0       0       0       0       0       0       0       0       0       0       0       
      +0       0       0       0       0
 10152 ;;      Totals:         6       0       0       0       0       0       0       0       0       0       0       0       
      +0       0       0       0       0
 10153 ;;Total ram usage:        6 bytes
 10154 ;; Hardware stack levels used: 1
 10155 ;; Hardware stack levels required when called: 3
 10156 ;; This function calls:
 10157 ;;		Nothing
 10158 ;; This function is called by:
 10159 ;;		_lcd_send_nibble
 10160 ;;		_lcd_send_byte
 10161 ;; This function uses a non-reentrant model
 10162 ;;
 10163                           
 10164                           	psect	text41
 10165   004C9A                     __ptext41:
 10166                           	callstack 0
 10167   004C9A                     _delay_cycles:
 10168                           	callstack 23
 10169                           
 10170                           ;incstack = 0
 10171                           ;delay_cycles@n stored from wreg
 10172   004C9A  6E29               	movwf	delay_cycles@n^0,c
 10173   004C9C                     
 10174                           ;lcd_x8.c: 17:     int x;;lcd_x8.c: 18:     for (x = 0; x <= n; x++) {
 10175   004C9C  0E00               	movlw	0
 10176   004C9E  6E2B               	movwf	(delay_cycles@x+1)^0,c
 10177   004CA0  0E00               	movlw	0
 10178   004CA2  6E2A               	movwf	delay_cycles@x^0,c
 10179   004CA4  EF57  F026         	goto	l5452
 10180   004CA8                     l220:
 10181   004CA8  0004               	clrwdt		;# 
 10182   004CAA                     
 10183                           ;lcd_x8.c: 20:     }
 10184   004CAA  4A2A               	infsnz	delay_cycles@x^0,f,c
 10185   004CAC  2A2B               	incf	(delay_cycles@x+1)^0,f,c
 10186   004CAE                     l5452:
 10187   004CAE  5029               	movf	delay_cycles@n^0,w,c
 10188   004CB0  6E26               	movwf	??_delay_cycles^0,c
 10189   004CB2  6A27               	clrf	(??_delay_cycles+1)^0,c
 10190   004CB4  502A               	movf	delay_cycles@x^0,w,c
 10191   004CB6  5C26               	subwf	??_delay_cycles^0,w,c
 10192   004CB8  5027               	movf	(??_delay_cycles+1)^0,w,c
 10193   004CBA  0A80               	xorlw	128
 10194   004CBC  6E28               	movwf	(??_delay_cycles+2)^0,c
 10195   004CBE  502B               	movf	(delay_cycles@x+1)^0,w,c
 10196   004CC0  0A80               	xorlw	128
 10197   004CC2  5828               	subwfb	(??_delay_cycles+2)^0,w,c
 10198   004CC4  B0D8               	btfsc	status,0,c
 10199   004CC6  EF67  F026         	goto	u6111
 10200   004CCA  EF69  F026         	goto	u6110
 10201   004CCE                     u6111:
 10202   004CCE  EF54  F026         	goto	l220
 10203   004CD2                     u6110:
 10204   004CD2  0012               	return		;funcret
 10205   004CD4                     __end_of_delay_cycles:
 10206                           	callstack 0
 10207                           
 10208 ;; *************** function _delay_ms *****************
 10209 ;; Defined at:
 10210 ;;		line 8 in file "lcd_x8.c"
 10211 ;; Parameters:    Size  Location     Type
 10212 ;;  n               2   37[COMRAM] unsigned int 
 10213 ;; Auto vars:     Size  Location     Type
 10214 ;;  x               2   39[COMRAM] int 
 10215 ;; Return value:  Size  Location     Type
 10216 ;;                  1    wreg      void 
 10217 ;; Registers used:
 10218 ;;		wreg, status,2, status,0
 10219 ;; Tracked objects:
 10220 ;;		On entry : 0/0
 10221 ;;		On exit  : 0/0
 10222 ;;		Unchanged: 0/0
 10223 ;; Data sizes:     COMRAM   BANK0   BANK1   BANK2   BANK3   BANK4   BANK5   BANK6   BANK7   BANK8   BANK9  BANK10  BANK1
      +1  BANK12  BANK13  BANK14  BANK15
 10224 ;;      Params:         2       0       0       0       0       0       0       0       0       0       0       0       
      +0       0       0       0       0
 10225 ;;      Locals:         2       0       0       0       0       0       0       0       0       0       0       0       
      +0       0       0       0       0
 10226 ;;      Temps:          0       0       0       0       0       0       0       0       0       0       0       0       
      +0       0       0       0       0
 10227 ;;      Totals:         4       0       0       0       0       0       0       0       0       0       0       0       
      +0       0       0       0       0
 10228 ;;Total ram usage:        4 bytes
 10229 ;; Hardware stack levels used: 1
 10230 ;; Hardware stack levels required when called: 3
 10231 ;; This function calls:
 10232 ;;		Nothing
 10233 ;; This function is called by:
 10234 ;;		_lcd_send_byte
 10235 ;;		_lcd_init
 10236 ;;		_lcd_putc
 10237 ;; This function uses a non-reentrant model
 10238 ;;
 10239                           
 10240                           	psect	text42
 10241   004D3E                     __ptext42:
 10242                           	callstack 0
 10243   004D3E                     _delay_ms:
 10244                           	callstack 24
 10245   004D3E                     
 10246                           ;lcd_x8.c: 9:     int x;;lcd_x8.c: 10:     for (x = 0; x <= n; x++) {
 10247   004D3E  0E00               	movlw	0
 10248   004D40  6E29               	movwf	(delay_ms@x+1)^0,c
 10249   004D42  0E00               	movlw	0
 10250   004D44  6E28               	movwf	delay_ms@x^0,c
 10251   004D46  EFAC  F026         	goto	l213
 10252   004D4A                     l5666:
 10253                           
 10254                           ;lcd_x8.c: 11:         _delaywdt((unsigned long)((1)*(4000000UL/4000.0)));
 10255   004D4A  0EC8               	movlw	200
 10256   004D4C                     u8397:
 10257   004D4C  0004               	clrwdt	
 10258   004D4E  0004               	clrwdt	
 10259   004D50  2EE8               	decfsz	wreg,f,c
 10260   004D52  D7FC               	bra	u8397
 10261   004D54                     
 10262                           ;lcd_x8.c: 13:     }
 10263   004D54  4A28               	infsnz	delay_ms@x^0,f,c
 10264   004D56  2A29               	incf	(delay_ms@x+1)^0,f,c
 10265   004D58                     l213:
 10266   004D58  5028               	movf	delay_ms@x^0,w,c
 10267   004D5A  5C26               	subwf	delay_ms@n^0,w,c
 10268   004D5C  5029               	movf	(delay_ms@x+1)^0,w,c
 10269   004D5E  5827               	subwfb	(delay_ms@n+1)^0,w,c
 10270   004D60  B0D8               	btfsc	status,0,c
 10271   004D62  EFB5  F026         	goto	u6521
 10272   004D66  EFB7  F026         	goto	u6520
 10273   004D6A                     u6521:
 10274   004D6A  EFA5  F026         	goto	l5666
 10275   004D6E                     u6520:
 10276   004D6E  0012               	return		;funcret
 10277   004D70                     __end_of_delay_ms:
 10278                           	callstack 0
 10279                           
 10280 ;; *************** function _initialization *****************
 10281 ;; Defined at:
 10282 ;;		line 113 in file "mainprojcet.c"
 10283 ;; Parameters:    Size  Location     Type
 10284 ;;		None
 10285 ;; Auto vars:     Size  Location     Type
 10286 ;;		None
 10287 ;; Return value:  Size  Location     Type
 10288 ;;                  1    wreg      void 
 10289 ;; Registers used:
 10290 ;;		wreg, status,2
 10291 ;; Tracked objects:
 10292 ;;		On entry : 0/0
 10293 ;;		On exit  : 0/0
 10294 ;;		Unchanged: 0/0
 10295 ;; Data sizes:     COMRAM   BANK0   BANK1   BANK2   BANK3   BANK4   BANK5   BANK6   BANK7   BANK8   BANK9  BANK10  BANK1
      +1  BANK12  BANK13  BANK14  BANK15
 10296 ;;      Params:         0       0       0       0       0       0       0       0       0       0       0       0       
      +0       0       0       0       0
 10297 ;;      Locals:         0       0       0       0       0       0       0       0       0       0       0       0       
      +0       0       0       0       0
 10298 ;;      Temps:          0       0       0       0       0       0       0       0       0       0       0       0       
      +0       0       0       0       0
 10299 ;;      Totals:         0       0       0       0       0       0       0       0       0       0       0       0       
      +0       0       0       0       0
 10300 ;;Total ram usage:        0 bytes
 10301 ;; Hardware stack levels used: 1
 10302 ;; Hardware stack levels required when called: 3
 10303 ;; This function calls:
 10304 ;;		Nothing
 10305 ;; This function is called by:
 10306 ;;		_main
 10307 ;; This function uses a non-reentrant model
 10308 ;;
 10309                           
 10310                           	psect	text43
 10311   004DA2                     __ptext43:
 10312                           	callstack 0
 10313   004DA2                     _initialization:
 10314                           	callstack 27
 10315   004DA2                     
 10316                           ;mainprojcet.c: 114:         delay_ms(40);
 10317   004DA2  8EF2               	bsf	242,7,c	;volatile
 10318                           
 10319                           ;mainprojcet.c: 115:         timer+=1;
 10320   004DA4  8CF2               	bsf	242,6,c	;volatile
 10321   004DA6                     
 10322                           ;mainprojcet.c: 116:     }
 10323   004DA6  0E00               	movlw	0
 10324   004DA8  6EF1               	movwf	241,c	;volatile
 10325                           
 10326                           ;mainprojcet.c: 117:     else{
 10327   004DAA  0E00               	movlw	0
 10328   004DAC  6EF0               	movwf	240,c	;volatile
 10329   004DAE                     
 10330                           ;mainprojcet.c: 118:       INTCON3bits.INT1IE=0;
 10331   004DAE  8CF1               	bsf	241,6,c	;volatile
 10332   004DB0                     
 10333                           ;mainprojcet.c: 119:       PORTCbits.RC5=0;
 10334   004DB0  8AF1               	bsf	241,5,c	;volatile
 10335   004DB2                     
 10336                           ;mainprojcet.c: 120:       delay_ms(40);
 10337   004DB2  88F1               	bsf	241,4,c	;volatile
 10338   004DB4                     
 10339                           ;mainprojcet.c: 121:       timer+=1;
 10340   004DB4  86F0               	bsf	240,3,c	;volatile
 10341   004DB6                     
 10342                           ;mainprojcet.c: 122:     }
 10343   004DB6  88F0               	bsf	240,4,c	;volatile
 10344   004DB8                     
 10345                           ;mainprojcet.c: 123:     reloadTimer3();
 10346   004DB8  9ED0               	bcf	208,7,c	;volatile
 10347   004DBA                     
 10348                           ;mainprojcet.c: 124: }
 10349   004DBA  88F2               	bsf	242,4,c	;volatile
 10350   004DBC                     
 10351                           ;mainprojcet.c: 125: 
 10352   004DBC  9A82               	bcf	130,5,c	;volatile
 10353   004DBE                     
 10354                           ;mainprojcet.c: 126: 
 10355   004DBE  80B1               	bsf	177,0,c	;volatile
 10356                           
 10357                           ;mainprojcet.c: 127: 
 10358   004DC0  0E00               	movlw	0
 10359   004DC2  6ED5               	movwf	213,c	;volatile
 10360   004DC4                     
 10361                           ;mainprojcet.c: 128: 
 10362   004DC4  80D5               	bsf	213,0,c	;volatile
 10363   004DC6                     
 10364                           ;mainprojcet.c: 129: void incrementClock(void) {
 10365   004DC6  82D5               	bsf	213,1,c	;volatile
 10366   004DC8                     
 10367                           ;mainprojcet.c: 130: 
 10368   004DC8  94D5               	bcf	213,2,c	;volatile
 10369   004DCA                     
 10370                           ;mainprojcet.c: 131: if(modeschange == 0){
 10371   004DCA  8ED5               	bsf	213,7,c	;volatile
 10372   004DCC                     
 10373                           ;mainprojcet.c: 132:         time++;
 10374   004DCC  8AF2               	bsf	242,5,c	;volatile
 10375   004DCE                     
 10376                           ;mainprojcet.c: 133:     }else if(modeschange == 1){
 10377   004DCE  8ED5               	bsf	213,7,c	;volatile
 10378   004DD0  0012               	return		;funcret
 10379   004DD2                     __end_of_initialization:
 10380                           	callstack 0
 10381                           
 10382 ;; *************** function _init_adc_no_lib *****************
 10383 ;; Defined at:
 10384 ;;		line 11 in file "my_adc.c"
 10385 ;; Parameters:    Size  Location     Type
 10386 ;;		None
 10387 ;; Auto vars:     Size  Location     Type
 10388 ;;		None
 10389 ;; Return value:  Size  Location     Type
 10390 ;;                  1    wreg      void 
 10391 ;; Registers used:
 10392 ;;		wreg, status,2
 10393 ;; Tracked objects:
 10394 ;;		On entry : 0/0
 10395 ;;		On exit  : 0/0
 10396 ;;		Unchanged: 0/0
 10397 ;; Data sizes:     COMRAM   BANK0   BANK1   BANK2   BANK3   BANK4   BANK5   BANK6   BANK7   BANK8   BANK9  BANK10  BANK1
      +1  BANK12  BANK13  BANK14  BANK15
 10398 ;;      Params:         0       0       0       0       0       0       0       0       0       0       0       0       
      +0       0       0       0       0
 10399 ;;      Locals:         0       0       0       0       0       0       0       0       0       0       0       0       
      +0       0       0       0       0
 10400 ;;      Temps:          0       0       0       0       0       0       0       0       0       0       0       0       
      +0       0       0       0       0
 10401 ;;      Totals:         0       0       0       0       0       0       0       0       0       0       0       0       
      +0       0       0       0       0
 10402 ;;Total ram usage:        0 bytes
 10403 ;; Hardware stack levels used: 1
 10404 ;; Hardware stack levels required when called: 3
 10405 ;; This function calls:
 10406 ;;		Nothing
 10407 ;; This function is called by:
 10408 ;;		_main
 10409 ;; This function uses a non-reentrant model
 10410 ;;
 10411                           
 10412                           	psect	text44
 10413   004E88                     __ptext44:
 10414                           	callstack 0
 10415   004E88                     _init_adc_no_lib:
 10416                           	callstack 27
 10417   004E88                     
 10418                           ;my_adc.c: 14:     ADCON0 = 0;
 10419   004E88  0E00               	movlw	0
 10420   004E8A  6EC2               	movwf	194,c	;volatile
 10421   004E8C                     
 10422                           ;my_adc.c: 15:     ADCON0bits.ADON = 1;
 10423   004E8C  80C2               	bsf	194,0,c	;volatile
 10424                           
 10425                           ;my_adc.c: 18:     ADCON2 = 0b10001001;
 10426   004E8E  0E89               	movlw	137
 10427   004E90  6EC0               	movwf	192,c	;volatile
 10428   004E92  0012               	return		;funcret
 10429   004E94                     __end_of_init_adc_no_lib:
 10430                           	callstack 0
 10431                           
 10432 ;; *************** function _initTimers01 *****************
 10433 ;; Defined at:
 10434 ;;		line 91 in file "mainprojcet.c"
 10435 ;; Parameters:    Size  Location     Type
 10436 ;;		None
 10437 ;; Auto vars:     Size  Location     Type
 10438 ;;		None
 10439 ;; Return value:  Size  Location     Type
 10440 ;;                  1    wreg      void 
 10441 ;; Registers used:
 10442 ;;		wreg, status,2
 10443 ;; Tracked objects:
 10444 ;;		On entry : 0/0
 10445 ;;		On exit  : 0/0
 10446 ;;		Unchanged: 0/0
 10447 ;; Data sizes:     COMRAM   BANK0   BANK1   BANK2   BANK3   BANK4   BANK5   BANK6   BANK7   BANK8   BANK9  BANK10  BANK1
      +1  BANK12  BANK13  BANK14  BANK15
 10448 ;;      Params:         0       0       0       0       0       0       0       0       0       0       0       0       
      +0       0       0       0       0
 10449 ;;      Locals:         0       0       0       0       0       0       0       0       0       0       0       0       
      +0       0       0       0       0
 10450 ;;      Temps:          0       0       0       0       0       0       0       0       0       0       0       0       
      +0       0       0       0       0
 10451 ;;      Totals:         0       0       0       0       0       0       0       0       0       0       0       0       
      +0       0       0       0       0
 10452 ;;Total ram usage:        0 bytes
 10453 ;; Hardware stack levels used: 1
 10454 ;; Hardware stack levels required when called: 3
 10455 ;; This function calls:
 10456 ;;		Nothing
 10457 ;; This function is called by:
 10458 ;;		_main
 10459 ;; This function uses a non-reentrant model
 10460 ;;
 10461                           
 10462                           	psect	text45
 10463   004E28                     __ptext45:
 10464                           	callstack 0
 10465   004E28                     _initTimers01:
 10466                           	callstack 27
 10467   004E28                     
 10468                           ;mainprojcet.c: 92: void modeschange1(void)
 10469   004E28  0E00               	movlw	0
 10470   004E2A  6ED5               	movwf	213,c	;volatile
 10471   004E2C                     
 10472                           ;mainprojcet.c: 94:       INTCONbits.INT0IF = 0;
 10473   004E2C  94F2               	bcf	242,2,c	;volatile
 10474   004E2E                     
 10475                           ;mainprojcet.c: 95:     if (modeschange == 0) modeschange = 1;
 10476   004E2E  80D5               	bsf	213,0,c	;volatile
 10477   004E30                     
 10478                           ;mainprojcet.c: 96:     else if (modeschange == 1) modeschange = 2;
 10479   004E30  82D5               	bsf	213,1,c	;volatile
 10480   004E32                     
 10481                           ;mainprojcet.c: 97:     else if (modeschange == 2) modeschange = 3;
 10482   004E32  94D5               	bcf	213,2,c	;volatile
 10483                           
 10484                           ;mainprojcet.c: 98:     else if (modeschange == 3) modeschange = 4;
 10485   004E34  0E0B               	movlw	11
 10486   004E36  6ED7               	movwf	215,c	;volatile
 10487                           
 10488                           ;mainprojcet.c: 99:     else if (modeschange == 4) modeschange = 5;
 10489   004E38  0EDC               	movlw	220
 10490   004E3A  6ED6               	movwf	214,c	;volatile
 10491   004E3C                     
 10492                           ;mainprojcet.c: 100:     else if (modeschange == 5) modeschange = 6;
 10493   004E3C  82CD               	bsf	205,1,c	;volatile
 10494   004E3E                     
 10495                           ;mainprojcet.c: 101:     else if (modeschange == 6) modeschange = 0;
 10496   004E3E  9ACD               	bcf	205,5,c	;volatile
 10497   004E40                     
 10498                           ;mainprojcet.c: 102: 
 10499   004E40  98CD               	bcf	205,4,c	;volatile
 10500   004E42                     
 10501                           ;mainprojcet.c: 104: }
 10502   004E42  8EF2               	bsf	242,7,c	;volatile
 10503   004E44                     
 10504                           ;mainprojcet.c: 105: 
 10505   004E44  8AF2               	bsf	242,5,c	;volatile
 10506   004E46                     
 10507                           ;mainprojcet.c: 106: void Timer3_int(void){
 10508   004E46  80CD               	bsf	205,0,c	;volatile
 10509   004E48                     
 10510                           ;mainprojcet.c: 107: 
 10511   004E48  8ED5               	bsf	213,7,c	;volatile
 10512   004E4A  0012               	return		;funcret
 10513   004E4C                     __end_of_initTimers01:
 10514                           	callstack 0
 10515                           
 10516 ;; *************** function _highIsr *****************
 10517 ;; Defined at:
 10518 ;;		line 246 in file "mainprojcet.c"
 10519 ;; Parameters:    Size  Location     Type
 10520 ;;		None
 10521 ;; Auto vars:     Size  Location     Type
 10522 ;;		None
 10523 ;; Return value:  Size  Location     Type
 10524 ;;                  1    wreg      void 
 10525 ;; Registers used:
 10526 ;;		wreg, status,2, status,0, cstack
 10527 ;; Tracked objects:
 10528 ;;		On entry : 0/0
 10529 ;;		On exit  : 0/0
 10530 ;;		Unchanged: 0/0
 10531 ;; Data sizes:     COMRAM   BANK0   BANK1   BANK2   BANK3   BANK4   BANK5   BANK6   BANK7   BANK8   BANK9  BANK10  BANK1
      +1  BANK12  BANK13  BANK14  BANK15
 10532 ;;      Params:         0       0       0       0       0       0       0       0       0       0       0       0       
      +0       0       0       0       0
 10533 ;;      Locals:         0       0       0       0       0       0       0       0       0       0       0       0       
      +0       0       0       0       0
 10534 ;;      Temps:          0       0       0       0       0       0       0       0       0       0       0       0       
      +0       0       0       0       0
 10535 ;;      Totals:         0       0       0       0       0       0       0       0       0       0       0       0       
      +0       0       0       0       0
 10536 ;;Total ram usage:        0 bytes
 10537 ;; Hardware stack levels used: 1
 10538 ;; Hardware stack levels required when called: 2
 10539 ;; This function calls:
 10540 ;;		_Timer3_int
 10541 ;;		_modeschange1
 10542 ;; This function is called by:
 10543 ;;		Interrupt level 2
 10544 ;; This function uses a non-reentrant model
 10545 ;;
 10546                           
 10547                           	psect	intcode
 10548   000008                     __pintcode:
 10549                           	callstack 0
 10550   000008                     _highIsr:
 10551                           	callstack 20
 10552                           
 10553                           ;incstack = 0
 10554   000008  825A               	bsf	int$flags,1,c	;set compiler interrupt flag (level 2)
 10555   00000A  EDE9  F026         	call	int_func,f	;refresh shadow registers
 10556                           
 10557                           	psect	intcode_body
 10558   004DD2                     __pintcode_body:
 10559                           	callstack 20
 10560   004DD2                     int_func:
 10561                           	callstack 20
 10562   004DD2  0006               	pop		; remove dummy address from shadow register refresh
 10563   004DD4                     
 10564                           ;mainprojcet.c: 248:    if(INTCONbits.INT0IF) { modeschange1();}
 10565   004DD4  A2F2               	btfss	242,1,c	;volatile
 10566   004DD6  EFEF  F026         	goto	i2u593_41
 10567   004DDA  EFF1  F026         	goto	i2u593_40
 10568   004DDE                     i2u593_41:
 10569   004DDE  EFF5  F026         	goto	i2l161
 10570   004DE2                     i2u593_40:
 10571   004DE2  ECB1  F021         	call	_modeschange1	;wreg free
 10572   004DE6  EFFF  F026         	goto	i2l164
 10573   004DEA                     i2l161:
 10574   004DEA  A2A1               	btfss	161,1,c	;volatile
 10575   004DEC  EFFA  F026         	goto	i2u594_41
 10576   004DF0  EFFC  F026         	goto	i2u594_40
 10577   004DF4                     i2u594_41:
 10578   004DF4  EFFF  F026         	goto	i2l164
 10579   004DF8                     i2u594_40:
 10580   004DF8  ECA3  F01F         	call	_Timer3_int	;wreg free
 10581   004DFC  92A1               	bcf	161,1,c	;volatile
 10582   004DFE                     i2l164:
 10583   004DFE  925A               	bcf	int$flags,1,c	;clear compiler interrupt flag (level 2)
 10584   004E00  0011               	retfie		f
 10585   004E02                     __end_of_highIsr:
 10586                           	callstack 0
 10587                           
 10588 ;; *************** function _modeschange1 *****************
 10589 ;; Defined at:
 10590 ;;		line 166 in file "mainprojcet.c"
 10591 ;; Parameters:    Size  Location     Type
 10592 ;;		None
 10593 ;; Auto vars:     Size  Location     Type
 10594 ;;		None
 10595 ;; Return value:  Size  Location     Type
 10596 ;;                  1    wreg      void 
 10597 ;; Registers used:
 10598 ;;		wreg, status,2, status,0
 10599 ;; Tracked objects:
 10600 ;;		On entry : 0/0
 10601 ;;		On exit  : 0/0
 10602 ;;		Unchanged: 0/0
 10603 ;; Data sizes:     COMRAM   BANK0   BANK1   BANK2   BANK3   BANK4   BANK5   BANK6   BANK7   BANK8   BANK9  BANK10  BANK1
      +1  BANK12  BANK13  BANK14  BANK15
 10604 ;;      Params:         0       0       0       0       0       0       0       0       0       0       0       0       
      +0       0       0       0       0
 10605 ;;      Locals:         0       0       0       0       0       0       0       0       0       0       0       0       
      +0       0       0       0       0
 10606 ;;      Temps:          0       0       0       0       0       0       0       0       0       0       0       0       
      +0       0       0       0       0
 10607 ;;      Totals:         0       0       0       0       0       0       0       0       0       0       0       0       
      +0       0       0       0       0
 10608 ;;Total ram usage:        0 bytes
 10609 ;; Hardware stack levels used: 1
 10610 ;; This function calls:
 10611 ;;		Nothing
 10612 ;; This function is called by:
 10613 ;;		_highIsr
 10614 ;; This function uses a non-reentrant model
 10615 ;;
 10616                           
 10617                           	psect	text47
 10618   004362                     __ptext47:
 10619                           	callstack 0
 10620   004362                     _modeschange1:
 10621                           	callstack 21
 10622   004362  92F2               	bcf	242,1,c	;volatile
 10623   004364  0101               	movlb	1	; () banked
 10624   004366  5176               	movf	_modeschange& (0+255),w,b
 10625   004368  A4D8               	btfss	status,2,c
 10626   00436A  EFB9  F021         	goto	i2u573_41
 10627   00436E  EFBB  F021         	goto	i2u573_40
 10628   004372                     i2u573_41:
 10629   004372  EFBF  F021         	goto	i2l5062
 10630   004376                     i2u573_40:
 10631   004376                     
 10632                           ; BSR set to: 1
 10633   004376  0E01               	movlw	1
 10634   004378  6F76               	movwf	_modeschange& (0+255),b
 10635   00437A  EF0C  F022         	goto	i2l131
 10636   00437E                     i2l5062:
 10637                           
 10638                           ; BSR set to: 1
 10639   00437E  0576               	decf	_modeschange& (0+255),w,b
 10640   004380  A4D8               	btfss	status,2,c
 10641   004382  EFC5  F021         	goto	i2u574_41
 10642   004386  EFC7  F021         	goto	i2u574_40
 10643   00438A                     i2u574_41:
 10644   00438A  EFCB  F021         	goto	i2l5066
 10645   00438E                     i2u574_40:
 10646   00438E                     
 10647                           ; BSR set to: 1
 10648   00438E  0E02               	movlw	2
 10649   004390  6F76               	movwf	_modeschange& (0+255),b
 10650   004392  EF0C  F022         	goto	i2l131
 10651   004396                     i2l5066:
 10652                           
 10653                           ; BSR set to: 1
 10654   004396  0E02               	movlw	2
 10655   004398  1976               	xorwf	_modeschange& (0+255),w,b
 10656   00439A  A4D8               	btfss	status,2,c
 10657   00439C  EFD2  F021         	goto	i2u575_41
 10658   0043A0  EFD4  F021         	goto	i2u575_40
 10659   0043A4                     i2u575_41:
 10660   0043A4  EFD8  F021         	goto	i2l5070
 10661   0043A8                     i2u575_40:
 10662   0043A8                     
 10663                           ; BSR set to: 1
 10664   0043A8  0E03               	movlw	3
 10665   0043AA  6F76               	movwf	_modeschange& (0+255),b
 10666   0043AC  EF0C  F022         	goto	i2l131
 10667   0043B0                     i2l5070:
 10668                           
 10669                           ; BSR set to: 1
 10670   0043B0  0E03               	movlw	3
 10671   0043B2  1976               	xorwf	_modeschange& (0+255),w,b
 10672   0043B4  A4D8               	btfss	status,2,c
 10673   0043B6  EFDF  F021         	goto	i2u576_41
 10674   0043BA  EFE1  F021         	goto	i2u576_40
 10675   0043BE                     i2u576_41:
 10676   0043BE  EFE5  F021         	goto	i2l5074
 10677   0043C2                     i2u576_40:
 10678   0043C2                     
 10679                           ; BSR set to: 1
 10680   0043C2  0E04               	movlw	4
 10681   0043C4  6F76               	movwf	_modeschange& (0+255),b
 10682   0043C6  EF0C  F022         	goto	i2l131
 10683   0043CA                     i2l5074:
 10684                           
 10685                           ; BSR set to: 1
 10686   0043CA  0E04               	movlw	4
 10687   0043CC  1976               	xorwf	_modeschange& (0+255),w,b
 10688   0043CE  A4D8               	btfss	status,2,c
 10689   0043D0  EFEC  F021         	goto	i2u577_41
 10690   0043D4  EFEE  F021         	goto	i2u577_40
 10691   0043D8                     i2u577_41:
 10692   0043D8  EFF2  F021         	goto	i2l5078
 10693   0043DC                     i2u577_40:
 10694   0043DC                     
 10695                           ; BSR set to: 1
 10696   0043DC  0E05               	movlw	5
 10697   0043DE  6F76               	movwf	_modeschange& (0+255),b
 10698   0043E0  EF0C  F022         	goto	i2l131
 10699   0043E4                     i2l5078:
 10700                           
 10701                           ; BSR set to: 1
 10702   0043E4  0E05               	movlw	5
 10703   0043E6  1976               	xorwf	_modeschange& (0+255),w,b
 10704   0043E8  A4D8               	btfss	status,2,c
 10705   0043EA  EFF9  F021         	goto	i2u578_41
 10706   0043EE  EFFB  F021         	goto	i2u578_40
 10707   0043F2                     i2u578_41:
 10708   0043F2  EFFF  F021         	goto	i2l5082
 10709   0043F6                     i2u578_40:
 10710   0043F6                     
 10711                           ; BSR set to: 1
 10712   0043F6  0E06               	movlw	6
 10713   0043F8  6F76               	movwf	_modeschange& (0+255),b
 10714   0043FA  EF0C  F022         	goto	i2l131
 10715   0043FE                     i2l5082:
 10716                           
 10717                           ; BSR set to: 1
 10718   0043FE  0E06               	movlw	6
 10719   004400  1976               	xorwf	_modeschange& (0+255),w,b
 10720   004402  A4D8               	btfss	status,2,c
 10721   004404  EF06  F022         	goto	i2u579_41
 10722   004408  EF08  F022         	goto	i2u579_40
 10723   00440C                     i2u579_41:
 10724   00440C  EF0C  F022         	goto	i2l125
 10725   004410                     i2u579_40:
 10726   004410                     
 10727                           ; BSR set to: 1
 10728   004410  0E00               	movlw	0
 10729   004412  6F76               	movwf	_modeschange& (0+255),b
 10730   004414  EF0C  F022         	goto	i2l131
 10731   004418                     i2l125:
 10732   004418                     i2l131:
 10733                           
 10734                           ; BSR set to: 1
 10735   004418  0012               	return		;funcret
 10736   00441A                     __end_of_modeschange1:
 10737                           	callstack 0
 10738                           
 10739 ;; *************** function _Timer3_int *****************
 10740 ;; Defined at:
 10741 ;;		line 180 in file "mainprojcet.c"
 10742 ;; Parameters:    Size  Location     Type
 10743 ;;		None
 10744 ;; Auto vars:     Size  Location     Type
 10745 ;;		None
 10746 ;; Return value:  Size  Location     Type
 10747 ;;                  1    wreg      void 
 10748 ;; Registers used:
 10749 ;;		wreg, status,2, status,0, cstack
 10750 ;; Tracked objects:
 10751 ;;		On entry : 0/0
 10752 ;;		On exit  : 0/0
 10753 ;;		Unchanged: 0/0
 10754 ;; Data sizes:     COMRAM   BANK0   BANK1   BANK2   BANK3   BANK4   BANK5   BANK6   BANK7   BANK8   BANK9  BANK10  BANK1
      +1  BANK12  BANK13  BANK14  BANK15
 10755 ;;      Params:         0       0       0       0       0       0       0       0       0       0       0       0       
      +0       0       0       0       0
 10756 ;;      Locals:         0       0       0       0       0       0       0       0       0       0       0       0       
      +0       0       0       0       0
 10757 ;;      Temps:          0       0       0       0       0       0       0       0       0       0       0       0       
      +0       0       0       0       0
 10758 ;;      Totals:         0       0       0       0       0       0       0       0       0       0       0       0       
      +0       0       0       0       0
 10759 ;;Total ram usage:        0 bytes
 10760 ;; Hardware stack levels used: 1
 10761 ;; Hardware stack levels required when called: 1
 10762 ;; This function calls:
 10763 ;;		_reloadTimer3
 10764 ;;		i2___fldiv
 10765 ;;		i2___fleq
 10766 ;;		i2___flge
 10767 ;;		i2___xxtofl
 10768 ;;		i2_delay_ms
 10769 ;; This function is called by:
 10770 ;;		_highIsr
 10771 ;; This function uses a non-reentrant model
 10772 ;;
 10773                           
 10774                           	psect	text48
 10775   003F46                     __ptext48:
 10776                           	callstack 0
 10777   003F46                     _Timer3_int:
 10778                           	callstack 20
 10779   003F46  0E14               	movlw	20
 10780   003F48  1844               	xorwf	_timer^0,w,c
 10781   003F4A  1045               	iorwf	(_timer+1)^0,w,c
 10782   003F4C  A4D8               	btfss	status,2,c
 10783   003F4E  EFAB  F01F         	goto	i2u580_41
 10784   003F52  EFAD  F01F         	goto	i2u580_40
 10785   003F56                     i2u580_41:
 10786   003F56  EFB3  F01F         	goto	i2l5090
 10787   003F5A                     i2u580_40:
 10788   003F5A  0E00               	movlw	0
 10789   003F5C  6E45               	movwf	(_timer+1)^0,c
 10790   003F5E  0E00               	movlw	0
 10791   003F60  6E44               	movwf	_timer^0,c
 10792   003F62  EF13  F020         	goto	i2l5104
 10793   003F66                     i2l5090:
 10794   003F66  0E00               	movlw	0
 10795   003F68  6E05               	movwf	i2___fldiv@a^0,c
 10796   003F6A  0E00               	movlw	0
 10797   003F6C  6E06               	movwf	(i2___fldiv@a+1)^0,c
 10798   003F6E  0E20               	movlw	32
 10799   003F70  6E07               	movwf	(i2___fldiv@a+2)^0,c
 10800   003F72  0E41               	movlw	65
 10801   003F74  6E08               	movwf	(i2___fldiv@a+3)^0,c
 10802   003F76  C038  F001         	movff	_Percent_Heat_Counter,i2___fldiv@b
 10803   003F7A  C039  F002         	movff	_Percent_Heat_Counter+1,i2___fldiv@b+1
 10804   003F7E  C03A  F003         	movff	_Percent_Heat_Counter+2,i2___fldiv@b+2
 10805   003F82  C03B  F004         	movff	_Percent_Heat_Counter+3,i2___fldiv@b+3
 10806   003F86  EC75  F017         	call	i2___fldiv	;wreg free
 10807   003F8A  C001  F01A         	movff	?i2___fldiv,i2___flge@ff1
 10808   003F8E  C002  F01B         	movff	?i2___fldiv+1,i2___flge@ff1+1
 10809   003F92  C003  F01C         	movff	?i2___fldiv+2,i2___flge@ff1+2
 10810   003F96  C004  F01D         	movff	?i2___fldiv+3,i2___flge@ff1+3
 10811   003F9A  C044  F001         	movff	_timer,i2___xxtofl@val
 10812   003F9E  C045  F002         	movff	_timer+1,i2___xxtofl@val+1
 10813   003FA2  0E00               	movlw	0
 10814   003FA4  BE02               	btfsc	(i2___xxtofl@val+1)^0,7,c
 10815   003FA6  0EFF               	movlw	-1
 10816   003FA8  6E03               	movwf	(i2___xxtofl@val+2)^0,c
 10817   003FAA  6E04               	movwf	(i2___xxtofl@val+3)^0,c
 10818   003FAC  0E01               	movlw	1
 10819   003FAE  EC27  F01B         	call	i2___xxtofl
 10820   003FB2  C001  F01E         	movff	?i2___xxtofl,i2___flge@ff2
 10821   003FB6  C002  F01F         	movff	?i2___xxtofl+1,i2___flge@ff2+1
 10822   003FBA  C003  F020         	movff	?i2___xxtofl+2,i2___flge@ff2+2
 10823   003FBE  C004  F021         	movff	?i2___xxtofl+3,i2___flge@ff2+3
 10824   003FC2  ECA2  F01E         	call	i2___flge	;wreg free
 10825   003FC6  A0D8               	btfss	status,0,c
 10826   003FC8  EFE8  F01F         	goto	i2u581_41
 10827   003FCC  EFEA  F01F         	goto	i2u581_40
 10828   003FD0                     i2u581_41:
 10829   003FD0  EF0F  F020         	goto	i2l136
 10830   003FD4                     i2u581_40:
 10831   003FD4  C038  F001         	movff	_Percent_Heat_Counter,i2___fleq@ff1
 10832   003FD8  C039  F002         	movff	_Percent_Heat_Counter+1,i2___fleq@ff1+1
 10833   003FDC  C03A  F003         	movff	_Percent_Heat_Counter+2,i2___fleq@ff1+2
 10834   003FE0  C03B  F004         	movff	_Percent_Heat_Counter+3,i2___fleq@ff1+3
 10835   003FE4  0E00               	movlw	0
 10836   003FE6  6E05               	movwf	i2___fleq@ff2^0,c
 10837   003FE8  0E00               	movlw	0
 10838   003FEA  6E06               	movwf	(i2___fleq@ff2+1)^0,c
 10839   003FEC  0E00               	movlw	0
 10840   003FEE  6E07               	movwf	(i2___fleq@ff2+2)^0,c
 10841   003FF0  0E00               	movlw	0
 10842   003FF2  6E08               	movwf	(i2___fleq@ff2+3)^0,c
 10843   003FF4  EC11  F023         	call	i2___fleq	;wreg free
 10844   003FF8  B0D8               	btfsc	status,0,c
 10845   003FFA  EF01  F020         	goto	i2u582_41
 10846   003FFE  EF03  F020         	goto	i2u582_40
 10847   004002                     i2u582_41:
 10848   004002  EF0F  F020         	goto	i2l136
 10849   004006                     i2u582_40:
 10850   004006  86F0               	bsf	240,3,c	;volatile
 10851   004008  8A82               	bsf	130,5,c	;volatile
 10852   00400A                     i2l5096:
 10853   00400A  0E00               	movlw	0
 10854   00400C  6E02               	movwf	(i2delay_ms@n+1)^0,c
 10855   00400E  0E28               	movlw	40
 10856   004010  6E01               	movwf	i2delay_ms@n^0,c
 10857   004012  ECB8  F026         	call	i2_delay_ms	;wreg free
 10858   004016  4A44               	infsnz	_timer^0,f,c
 10859   004018  2A45               	incf	(_timer+1)^0,f,c
 10860   00401A  EF13  F020         	goto	i2l5104
 10861   00401E                     i2l136:
 10862   00401E  96F0               	bcf	240,3,c	;volatile
 10863   004020  9A82               	bcf	130,5,c	;volatile
 10864   004022  EF05  F020         	goto	i2l5096
 10865   004026                     i2l5104:
 10866   004026  EC4A  F027         	call	_reloadTimer3	;wreg free
 10867   00402A  0012               	return		;funcret
 10868   00402C                     __end_of_Timer3_int:
 10869                           	callstack 0
 10870                           
 10871 ;; *************** function i2_delay_ms *****************
 10872 ;; Defined at:
 10873 ;;		line 8 in file "lcd_x8.c"
 10874 ;; Parameters:    Size  Location     Type
 10875 ;;  n               2    0[COMRAM] unsigned int 
 10876 ;; Auto vars:     Size  Location     Type
 10877 ;;  x               2    2[COMRAM] int 
 10878 ;; Return value:  Size  Location     Type
 10879 ;;                  1    wreg      void 
 10880 ;; Registers used:
 10881 ;;		wreg, status,2, status,0
 10882 ;; Tracked objects:
 10883 ;;		On entry : 0/0
 10884 ;;		On exit  : 0/0
 10885 ;;		Unchanged: 0/0
 10886 ;; Data sizes:     COMRAM   BANK0   BANK1   BANK2   BANK3   BANK4   BANK5   BANK6   BANK7   BANK8   BANK9  BANK10  BANK1
      +1  BANK12  BANK13  BANK14  BANK15
 10887 ;;      Params:         2       0       0       0       0       0       0       0       0       0       0       0       
      +0       0       0       0       0
 10888 ;;      Locals:         2       0       0       0       0       0       0       0       0       0       0       0       
      +0       0       0       0       0
 10889 ;;      Temps:          0       0       0       0       0       0       0       0       0       0       0       0       
      +0       0       0       0       0
 10890 ;;      Totals:         4       0       0       0       0       0       0       0       0       0       0       0       
      +0       0       0       0       0
 10891 ;;Total ram usage:        4 bytes
 10892 ;; Hardware stack levels used: 1
 10893 ;; This function calls:
 10894 ;;		Nothing
 10895 ;; This function is called by:
 10896 ;;		_Timer3_int
 10897 ;; This function uses a non-reentrant model
 10898 ;;
 10899                           
 10900                           	psect	text49
 10901   004D70                     __ptext49:
 10902                           	callstack 0
 10903   004D70                     i2_delay_ms:
 10904                           	callstack 20
 10905   004D70                     
 10906                           ;lcd_x8.c: 9:     int x;;lcd_x8.c: 10:     for (x = 0; x <= n; x++) {
 10907   004D70  0E00               	movlw	0
 10908   004D72  6E04               	movwf	(i2delay_ms@x+1)^0,c
 10909   004D74  0E00               	movlw	0
 10910   004D76  6E03               	movwf	i2delay_ms@x^0,c
 10911   004D78  EFC5  F026         	goto	i2l213
 10912   004D7C                     i2l4766:
 10913                           
 10914                           ;lcd_x8.c: 11:         _delaywdt((unsigned long)((1)*(4000000UL/4000.0)));
 10915   004D7C  0EC8               	movlw	200
 10916   004D7E                     i2u840_47:
 10917   004D7E  0004               	clrwdt	
 10918   004D80  0004               	clrwdt	
 10919   004D82  2EE8               	decfsz	wreg,f,c
 10920   004D84  D7FC               	bra	i2u840_47
 10921   004D86                     
 10922                           ;lcd_x8.c: 13:     }
 10923   004D86  4A03               	infsnz	i2delay_ms@x^0,f,c
 10924   004D88  2A04               	incf	(i2delay_ms@x+1)^0,f,c
 10925   004D8A                     i2l213:
 10926   004D8A  5003               	movf	i2delay_ms@x^0,w,c
 10927   004D8C  5C01               	subwf	i2delay_ms@n^0,w,c
 10928   004D8E  5004               	movf	(i2delay_ms@x+1)^0,w,c
 10929   004D90  5802               	subwfb	(i2delay_ms@n+1)^0,w,c
 10930   004D92  B0D8               	btfsc	status,0,c
 10931   004D94  EFCE  F026         	goto	i2u531_41
 10932   004D98  EFD0  F026         	goto	i2u531_40
 10933   004D9C                     i2u531_41:
 10934   004D9C  EFBE  F026         	goto	i2l4766
 10935   004DA0                     i2u531_40:
 10936   004DA0  0012               	return		;funcret
 10937   004DA2                     __end_ofi2_delay_ms:
 10938                           	callstack 0
 10939                           
 10940 ;; *************** function i2___xxtofl *****************
 10941 ;; Defined at:
 10942 ;;		line 10 in file "C:\Program Files\Microchip\xc8\v2.41\pic\sources\c99\common\xxtofl.c"
 10943 ;; Parameters:    Size  Location     Type
 10944 ;;  sign            1    wreg     unsigned char 
 10945 ;;  val             4    0[COMRAM] long 
 10946 ;; Auto vars:     Size  Location     Type
 10947 ;;  sign            1    8[COMRAM] unsigned char 
 10948 ;;  arg             4   10[COMRAM] unsigned long 
 10949 ;;  exp             1    9[COMRAM] unsigned char 
 10950 ;; Return value:  Size  Location     Type
 10951 ;;                  4    0[COMRAM] unsigned char 
 10952 ;; Registers used:
 10953 ;;		wreg, status,2, status,0
 10954 ;; Tracked objects:
 10955 ;;		On entry : 0/0
 10956 ;;		On exit  : 0/0
 10957 ;;		Unchanged: 0/0
 10958 ;; Data sizes:     COMRAM   BANK0   BANK1   BANK2   BANK3   BANK4   BANK5   BANK6   BANK7   BANK8   BANK9  BANK10  BANK1
      +1  BANK12  BANK13  BANK14  BANK15
 10959 ;;      Params:         4       0       0       0       0       0       0       0       0       0       0       0       
      +0       0       0       0       0
 10960 ;;      Locals:         6       0       0       0       0       0       0       0       0       0       0       0       
      +0       0       0       0       0
 10961 ;;      Temps:          4       0       0       0       0       0       0       0       0       0       0       0       
      +0       0       0       0       0
 10962 ;;      Totals:        14       0       0       0       0       0       0       0       0       0       0       0       
      +0       0       0       0       0
 10963 ;;Total ram usage:       14 bytes
 10964 ;; Hardware stack levels used: 1
 10965 ;; This function calls:
 10966 ;;		Nothing
 10967 ;; This function is called by:
 10968 ;;		_Timer3_int
 10969 ;; This function uses a non-reentrant model
 10970 ;;
 10971                           
 10972                           	psect	text50
 10973   00364E                     __ptext50:
 10974                           	callstack 0
 10975   00364E                     i2___xxtofl:
 10976                           	callstack 20
 10977                           
 10978                           ;incstack = 0
 10979                           ;i2___xxtofl@sign stored from wreg
 10980   00364E  6E09               	movwf	i2___xxtofl@sign^0,c
 10981   003650  5009               	movf	i2___xxtofl@sign^0,w,c
 10982   003652  B4D8               	btfsc	status,2,c
 10983   003654  EF2E  F01B         	goto	i2u563_41
 10984   003658  EF30  F01B         	goto	i2u563_40
 10985   00365C                     i2u563_41:
 10986   00365C  EF52  F01B         	goto	i2l995
 10987   003660                     i2u563_40:
 10988   003660  BE04               	btfsc	(i2___xxtofl@val+3)^0,7,c
 10989   003662  EF37  F01B         	goto	i2u564_40
 10990   003666  EF35  F01B         	goto	i2u564_41
 10991   00366A                     i2u564_41:
 10992   00366A  EF52  F01B         	goto	i2l995
 10993   00366E                     i2u564_40:
 10994   00366E  C001  F005         	movff	i2___xxtofl@val,??i2___xxtofl
 10995   003672  C002  F006         	movff	i2___xxtofl@val+1,??i2___xxtofl+1
 10996   003676  C003  F007         	movff	i2___xxtofl@val+2,??i2___xxtofl+2
 10997   00367A  C004  F008         	movff	i2___xxtofl@val+3,??i2___xxtofl+3
 10998   00367E  1E05               	comf	??i2___xxtofl^0,f,c
 10999   003680  1E06               	comf	(??i2___xxtofl+1)^0,f,c
 11000   003682  1E07               	comf	(??i2___xxtofl+2)^0,f,c
 11001   003684  1E08               	comf	(??i2___xxtofl+3)^0,f,c
 11002   003686  2A05               	incf	??i2___xxtofl^0,f,c
 11003   003688  0E00               	movlw	0
 11004   00368A  2206               	addwfc	(??i2___xxtofl+1)^0,f,c
 11005   00368C  2207               	addwfc	(??i2___xxtofl+2)^0,f,c
 11006   00368E  2208               	addwfc	(??i2___xxtofl+3)^0,f,c
 11007   003690  C005  F00B         	movff	??i2___xxtofl,i2___xxtofl@arg
 11008   003694  C006  F00C         	movff	??i2___xxtofl+1,i2___xxtofl@arg+1
 11009   003698  C007  F00D         	movff	??i2___xxtofl+2,i2___xxtofl@arg+2
 11010   00369C  C008  F00E         	movff	??i2___xxtofl+3,i2___xxtofl@arg+3
 11011   0036A0  EF5A  F01B         	goto	i2l4952
 11012   0036A4                     i2l995:
 11013   0036A4  C001  F00B         	movff	i2___xxtofl@val,i2___xxtofl@arg
 11014   0036A8  C002  F00C         	movff	i2___xxtofl@val+1,i2___xxtofl@arg+1
 11015   0036AC  C003  F00D         	movff	i2___xxtofl@val+2,i2___xxtofl@arg+2
 11016   0036B0  C004  F00E         	movff	i2___xxtofl@val+3,i2___xxtofl@arg+3
 11017   0036B4                     i2l4952:
 11018   0036B4  5001               	movf	i2___xxtofl@val^0,w,c
 11019   0036B6  1002               	iorwf	(i2___xxtofl@val+1)^0,w,c
 11020   0036B8  1003               	iorwf	(i2___xxtofl@val+2)^0,w,c
 11021   0036BA  1004               	iorwf	(i2___xxtofl@val+3)^0,w,c
 11022   0036BC  A4D8               	btfss	status,2,c
 11023   0036BE  EF63  F01B         	goto	i2u565_41
 11024   0036C2  EF65  F01B         	goto	i2u565_40
 11025   0036C6                     i2u565_41:
 11026   0036C6  EF6F  F01B         	goto	i2l4958
 11027   0036CA                     i2u565_40:
 11028   0036CA  0E00               	movlw	0
 11029   0036CC  6E01               	movwf	?i2___xxtofl^0,c
 11030   0036CE  0E00               	movlw	0
 11031   0036D0  6E02               	movwf	(?i2___xxtofl+1)^0,c
 11032   0036D2  0E00               	movlw	0
 11033   0036D4  6E03               	movwf	(?i2___xxtofl+2)^0,c
 11034   0036D6  0E00               	movlw	0
 11035   0036D8  6E04               	movwf	(?i2___xxtofl+3)^0,c
 11036   0036DA  EF00  F01C         	goto	i2l998
 11037   0036DE                     i2l4958:
 11038   0036DE  0E96               	movlw	150
 11039   0036E0  6E0A               	movwf	i2___xxtofl@exp^0,c
 11040   0036E2  EF79  F01B         	goto	i2l4962
 11041   0036E6                     i2l4960:
 11042   0036E6  2A0A               	incf	i2___xxtofl@exp^0,f,c
 11043   0036E8  90D8               	bcf	status,0,c
 11044   0036EA  320E               	rrcf	(i2___xxtofl@arg+3)^0,f,c
 11045   0036EC  320D               	rrcf	(i2___xxtofl@arg+2)^0,f,c
 11046   0036EE  320C               	rrcf	(i2___xxtofl@arg+1)^0,f,c
 11047   0036F0  320B               	rrcf	i2___xxtofl@arg^0,f,c
 11048   0036F2                     i2l4962:
 11049   0036F2  0E00               	movlw	0
 11050   0036F4  140B               	andwf	i2___xxtofl@arg^0,w,c
 11051   0036F6  6E05               	movwf	??i2___xxtofl^0,c
 11052   0036F8  0E00               	movlw	0
 11053   0036FA  140C               	andwf	(i2___xxtofl@arg+1)^0,w,c
 11054   0036FC  6E06               	movwf	(??i2___xxtofl+1)^0,c
 11055   0036FE  0E00               	movlw	0
 11056   003700  140D               	andwf	(i2___xxtofl@arg+2)^0,w,c
 11057   003702  6E07               	movwf	(??i2___xxtofl+2)^0,c
 11058   003704  0EFE               	movlw	254
 11059   003706  140E               	andwf	(i2___xxtofl@arg+3)^0,w,c
 11060   003708  6E08               	movwf	(??i2___xxtofl+3)^0,c
 11061   00370A  5005               	movf	??i2___xxtofl^0,w,c
 11062   00370C  1006               	iorwf	(??i2___xxtofl+1)^0,w,c
 11063   00370E  1007               	iorwf	(??i2___xxtofl+2)^0,w,c
 11064   003710  1008               	iorwf	(??i2___xxtofl+3)^0,w,c
 11065   003712  A4D8               	btfss	status,2,c
 11066   003714  EF8E  F01B         	goto	i2u566_41
 11067   003718  EF90  F01B         	goto	i2u566_40
 11068   00371C                     i2u566_41:
 11069   00371C  EF73  F01B         	goto	i2l4960
 11070   003720                     i2u566_40:
 11071   003720  EF9E  F01B         	goto	i2l1002
 11072   003724                     i2l4964:
 11073   003724  2A0A               	incf	i2___xxtofl@exp^0,f,c
 11074   003726  0E01               	movlw	1
 11075   003728  260B               	addwf	i2___xxtofl@arg^0,f,c
 11076   00372A  0E00               	movlw	0
 11077   00372C  220C               	addwfc	(i2___xxtofl@arg+1)^0,f,c
 11078   00372E  220D               	addwfc	(i2___xxtofl@arg+2)^0,f,c
 11079   003730  220E               	addwfc	(i2___xxtofl@arg+3)^0,f,c
 11080   003732  90D8               	bcf	status,0,c
 11081   003734  320E               	rrcf	(i2___xxtofl@arg+3)^0,f,c
 11082   003736  320D               	rrcf	(i2___xxtofl@arg+2)^0,f,c
 11083   003738  320C               	rrcf	(i2___xxtofl@arg+1)^0,f,c
 11084   00373A  320B               	rrcf	i2___xxtofl@arg^0,f,c
 11085   00373C                     i2l1002:
 11086   00373C  0E00               	movlw	0
 11087   00373E  140B               	andwf	i2___xxtofl@arg^0,w,c
 11088   003740  6E05               	movwf	??i2___xxtofl^0,c
 11089   003742  0E00               	movlw	0
 11090   003744  140C               	andwf	(i2___xxtofl@arg+1)^0,w,c
 11091   003746  6E06               	movwf	(??i2___xxtofl+1)^0,c
 11092   003748  0E00               	movlw	0
 11093   00374A  140D               	andwf	(i2___xxtofl@arg+2)^0,w,c
 11094   00374C  6E07               	movwf	(??i2___xxtofl+2)^0,c
 11095   00374E  0EFF               	movlw	255
 11096   003750  140E               	andwf	(i2___xxtofl@arg+3)^0,w,c
 11097   003752  6E08               	movwf	(??i2___xxtofl+3)^0,c
 11098   003754  5005               	movf	??i2___xxtofl^0,w,c
 11099   003756  1006               	iorwf	(??i2___xxtofl+1)^0,w,c
 11100   003758  1007               	iorwf	(??i2___xxtofl+2)^0,w,c
 11101   00375A  1008               	iorwf	(??i2___xxtofl+3)^0,w,c
 11102   00375C  A4D8               	btfss	status,2,c
 11103   00375E  EFB3  F01B         	goto	i2u567_41
 11104   003762  EFB5  F01B         	goto	i2u567_40
 11105   003766                     i2u567_41:
 11106   003766  EF92  F01B         	goto	i2l4964
 11107   00376A                     i2u567_40:
 11108   00376A  EFBD  F01B         	goto	i2l4972
 11109   00376E                     i2l4970:
 11110   00376E  060A               	decf	i2___xxtofl@exp^0,f,c
 11111   003770  90D8               	bcf	status,0,c
 11112   003772  360B               	rlcf	i2___xxtofl@arg^0,f,c
 11113   003774  360C               	rlcf	(i2___xxtofl@arg+1)^0,f,c
 11114   003776  360D               	rlcf	(i2___xxtofl@arg+2)^0,f,c
 11115   003778  360E               	rlcf	(i2___xxtofl@arg+3)^0,f,c
 11116   00377A                     i2l4972:
 11117   00377A  BE0D               	btfsc	(i2___xxtofl@arg+2)^0,7,c
 11118   00377C  EFC2  F01B         	goto	i2u568_41
 11119   003780  EFC4  F01B         	goto	i2u568_40
 11120   003784                     i2u568_41:
 11121   003784  EFCC  F01B         	goto	i2l1009
 11122   003788                     i2u568_40:
 11123   003788  0E02               	movlw	2
 11124   00378A  600A               	cpfslt	i2___xxtofl@exp^0,c
 11125   00378C  EFCA  F01B         	goto	i2u569_41
 11126   003790  EFCC  F01B         	goto	i2u569_40
 11127   003794                     i2u569_41:
 11128   003794  EFB7  F01B         	goto	i2l4970
 11129   003798                     i2u569_40:
 11130   003798                     i2l1009:
 11131   003798  B00A               	btfsc	i2___xxtofl@exp^0,0,c
 11132   00379A  EFD1  F01B         	goto	i2u570_41
 11133   00379E  EFD3  F01B         	goto	i2u570_40
 11134   0037A2                     i2u570_41:
 11135   0037A2  EFD4  F01B         	goto	i2l4978
 11136   0037A6                     i2u570_40:
 11137   0037A6  9E0D               	bcf	(i2___xxtofl@arg+2)^0,7,c
 11138   0037A8                     i2l4978:
 11139   0037A8  90D8               	bcf	status,0,c
 11140   0037AA  320A               	rrcf	i2___xxtofl@exp^0,f,c
 11141   0037AC  C00A  F005         	movff	i2___xxtofl@exp,??i2___xxtofl
 11142   0037B0  6A06               	clrf	(??i2___xxtofl+1)^0,c
 11143   0037B2  6A07               	clrf	(??i2___xxtofl+2)^0,c
 11144   0037B4  6A08               	clrf	(??i2___xxtofl+3)^0,c
 11145   0037B6  C005  F008         	movff	??i2___xxtofl,??i2___xxtofl+3
 11146   0037BA  6A07               	clrf	(??i2___xxtofl+2)^0,c
 11147   0037BC  6A06               	clrf	(??i2___xxtofl+1)^0,c
 11148   0037BE  6A05               	clrf	??i2___xxtofl^0,c
 11149   0037C0  5005               	movf	??i2___xxtofl^0,w,c
 11150   0037C2  120B               	iorwf	i2___xxtofl@arg^0,f,c
 11151   0037C4  5006               	movf	(??i2___xxtofl+1)^0,w,c
 11152   0037C6  120C               	iorwf	(i2___xxtofl@arg+1)^0,f,c
 11153   0037C8  5007               	movf	(??i2___xxtofl+2)^0,w,c
 11154   0037CA  120D               	iorwf	(i2___xxtofl@arg+2)^0,f,c
 11155   0037CC  5008               	movf	(??i2___xxtofl+3)^0,w,c
 11156   0037CE  120E               	iorwf	(i2___xxtofl@arg+3)^0,f,c
 11157   0037D0  5009               	movf	i2___xxtofl@sign^0,w,c
 11158   0037D2  B4D8               	btfsc	status,2,c
 11159   0037D4  EFEE  F01B         	goto	i2u571_41
 11160   0037D8  EFF0  F01B         	goto	i2u571_40
 11161   0037DC                     i2u571_41:
 11162   0037DC  EFF8  F01B         	goto	i2l4988
 11163   0037E0                     i2u571_40:
 11164   0037E0  BE04               	btfsc	(i2___xxtofl@val+3)^0,7,c
 11165   0037E2  EFF7  F01B         	goto	i2u572_40
 11166   0037E6  EFF5  F01B         	goto	i2u572_41
 11167   0037EA                     i2u572_41:
 11168   0037EA  EFF8  F01B         	goto	i2l4988
 11169   0037EE                     i2u572_40:
 11170   0037EE  8E0E               	bsf	(i2___xxtofl@arg+3)^0,7,c
 11171   0037F0                     i2l4988:
 11172   0037F0  C00B  F001         	movff	i2___xxtofl@arg,?i2___xxtofl
 11173   0037F4  C00C  F002         	movff	i2___xxtofl@arg+1,?i2___xxtofl+1
 11174   0037F8  C00D  F003         	movff	i2___xxtofl@arg+2,?i2___xxtofl+2
 11175   0037FC  C00E  F004         	movff	i2___xxtofl@arg+3,?i2___xxtofl+3
 11176   003800                     i2l998:
 11177   003800  0012               	return		;funcret
 11178   003802                     __end_ofi2___xxtofl:
 11179                           	callstack 0
 11180                           
 11181 ;; *************** function i2___flge *****************
 11182 ;; Defined at:
 11183 ;;		line 4 in file "C:\Program Files\Microchip\xc8\v2.41\pic\sources\c99\common\flge.c"
 11184 ;; Parameters:    Size  Location     Type
 11185 ;;  ff1             4   25[COMRAM] unsigned char 
 11186 ;;  ff2             4   29[COMRAM] unsigned char 
 11187 ;; Auto vars:     Size  Location     Type
 11188 ;;		None
 11189 ;; Return value:  Size  Location     Type
 11190 ;;		None               void
 11191 ;; Registers used:
 11192 ;;		wreg, status,2, status,0
 11193 ;; Tracked objects:
 11194 ;;		On entry : 0/0
 11195 ;;		On exit  : 0/0
 11196 ;;		Unchanged: 0/0
 11197 ;; Data sizes:     COMRAM   BANK0   BANK1   BANK2   BANK3   BANK4   BANK5   BANK6   BANK7   BANK8   BANK9  BANK10  BANK1
      +1  BANK12  BANK13  BANK14  BANK15
 11198 ;;      Params:         8       0       0       0       0       0       0       0       0       0       0       0       
      +0       0       0       0       0
 11199 ;;      Locals:         0       0       0       0       0       0       0       0       0       0       0       0       
      +0       0       0       0       0
 11200 ;;      Temps:          4       0       0       0       0       0       0       0       0       0       0       0       
      +0       0       0       0       0
 11201 ;;      Totals:        12       0       0       0       0       0       0       0       0       0       0       0       
      +0       0       0       0       0
 11202 ;;Total ram usage:       12 bytes
 11203 ;; Hardware stack levels used: 1
 11204 ;; This function calls:
 11205 ;;		Nothing
 11206 ;; This function is called by:
 11207 ;;		_Timer3_int
 11208 ;; This function uses a non-reentrant model
 11209 ;;
 11210                           
 11211                           	psect	text51
 11212   003D44                     __ptext51:
 11213                           	callstack 0
 11214   003D44                     i2___flge:
 11215                           	callstack 20
 11216   003D44  0E00               	movlw	0
 11217   003D46  141A               	andwf	i2___flge@ff1^0,w,c
 11218   003D48  6E22               	movwf	??i2___flge^0,c
 11219   003D4A  0E00               	movlw	0
 11220   003D4C  141B               	andwf	(i2___flge@ff1+1)^0,w,c
 11221   003D4E  6E23               	movwf	(??i2___flge+1)^0,c
 11222   003D50  0E80               	movlw	128
 11223   003D52  141C               	andwf	(i2___flge@ff1+2)^0,w,c
 11224   003D54  6E24               	movwf	(??i2___flge+2)^0,c
 11225   003D56  0E7F               	movlw	127
 11226   003D58  141D               	andwf	(i2___flge@ff1+3)^0,w,c
 11227   003D5A  6E25               	movwf	(??i2___flge+3)^0,c
 11228   003D5C  5022               	movf	??i2___flge^0,w,c
 11229   003D5E  1023               	iorwf	(??i2___flge+1)^0,w,c
 11230   003D60  1024               	iorwf	(??i2___flge+2)^0,w,c
 11231   003D62  1025               	iorwf	(??i2___flge+3)^0,w,c
 11232   003D64  A4D8               	btfss	status,2,c
 11233   003D66  EFB7  F01E         	goto	i2u535_41
 11234   003D6A  EFB9  F01E         	goto	i2u535_40
 11235   003D6E                     i2u535_41:
 11236   003D6E  EFC1  F01E         	goto	i2l4790
 11237   003D72                     i2u535_40:
 11238   003D72  0E00               	movlw	0
 11239   003D74  6E1A               	movwf	i2___flge@ff1^0,c
 11240   003D76  0E00               	movlw	0
 11241   003D78  6E1B               	movwf	(i2___flge@ff1+1)^0,c
 11242   003D7A  0E00               	movlw	0
 11243   003D7C  6E1C               	movwf	(i2___flge@ff1+2)^0,c
 11244   003D7E  0E00               	movlw	0
 11245   003D80  6E1D               	movwf	(i2___flge@ff1+3)^0,c
 11246   003D82                     i2l4790:
 11247   003D82  0E00               	movlw	0
 11248   003D84  141E               	andwf	i2___flge@ff2^0,w,c
 11249   003D86  6E22               	movwf	??i2___flge^0,c
 11250   003D88  0E00               	movlw	0
 11251   003D8A  141F               	andwf	(i2___flge@ff2+1)^0,w,c
 11252   003D8C  6E23               	movwf	(??i2___flge+1)^0,c
 11253   003D8E  0E80               	movlw	128
 11254   003D90  1420               	andwf	(i2___flge@ff2+2)^0,w,c
 11255   003D92  6E24               	movwf	(??i2___flge+2)^0,c
 11256   003D94  0E7F               	movlw	127
 11257   003D96  1421               	andwf	(i2___flge@ff2+3)^0,w,c
 11258   003D98  6E25               	movwf	(??i2___flge+3)^0,c
 11259   003D9A  5022               	movf	??i2___flge^0,w,c
 11260   003D9C  1023               	iorwf	(??i2___flge+1)^0,w,c
 11261   003D9E  1024               	iorwf	(??i2___flge+2)^0,w,c
 11262   003DA0  1025               	iorwf	(??i2___flge+3)^0,w,c
 11263   003DA2  A4D8               	btfss	status,2,c
 11264   003DA4  EFD6  F01E         	goto	i2u536_41
 11265   003DA8  EFD8  F01E         	goto	i2u536_40
 11266   003DAC                     i2u536_41:
 11267   003DAC  EFE0  F01E         	goto	i2l4794
 11268   003DB0                     i2u536_40:
 11269   003DB0  0E00               	movlw	0
 11270   003DB2  6E1E               	movwf	i2___flge@ff2^0,c
 11271   003DB4  0E00               	movlw	0
 11272   003DB6  6E1F               	movwf	(i2___flge@ff2+1)^0,c
 11273   003DB8  0E00               	movlw	0
 11274   003DBA  6E20               	movwf	(i2___flge@ff2+2)^0,c
 11275   003DBC  0E00               	movlw	0
 11276   003DBE  6E21               	movwf	(i2___flge@ff2+3)^0,c
 11277   003DC0                     i2l4794:
 11278   003DC0  AE1D               	btfss	(i2___flge@ff1+3)^0,7,c
 11279   003DC2  EFE5  F01E         	goto	i2u537_41
 11280   003DC6  EFE7  F01E         	goto	i2u537_40
 11281   003DCA                     i2u537_41:
 11282   003DCA  EFF0  F01E         	goto	i2l4798
 11283   003DCE                     i2u537_40:
 11284   003DCE  6C1A               	negf	i2___flge@ff1^0,c
 11285   003DD0  1E1B               	comf	(i2___flge@ff1+1)^0,f,c
 11286   003DD2  B0D8               	btfsc	status,0,c
 11287   003DD4  2A1B               	incf	(i2___flge@ff1+1)^0,f,c
 11288   003DD6  1E1C               	comf	(i2___flge@ff1+2)^0,f,c
 11289   003DD8  B0D8               	btfsc	status,0,c
 11290   003DDA  2A1C               	incf	(i2___flge@ff1+2)^0,f,c
 11291   003DDC  0E80               	movlw	128
 11292   003DDE  561D               	subfwb	(i2___flge@ff1+3)^0,f,c
 11293   003DE0                     i2l4798:
 11294   003DE0  AE21               	btfss	(i2___flge@ff2+3)^0,7,c
 11295   003DE2  EFF5  F01E         	goto	i2u538_41
 11296   003DE6  EFF7  F01E         	goto	i2u538_40
 11297   003DEA                     i2u538_41:
 11298   003DEA  EF00  F01F         	goto	i2l605
 11299   003DEE                     i2u538_40:
 11300   003DEE  6C1E               	negf	i2___flge@ff2^0,c
 11301   003DF0  1E1F               	comf	(i2___flge@ff2+1)^0,f,c
 11302   003DF2  B0D8               	btfsc	status,0,c
 11303   003DF4  2A1F               	incf	(i2___flge@ff2+1)^0,f,c
 11304   003DF6  1E20               	comf	(i2___flge@ff2+2)^0,f,c
 11305   003DF8  B0D8               	btfsc	status,0,c
 11306   003DFA  2A20               	incf	(i2___flge@ff2+2)^0,f,c
 11307   003DFC  0E80               	movlw	128
 11308   003DFE  5621               	subfwb	(i2___flge@ff2+3)^0,f,c
 11309   003E00                     i2l605:
 11310   003E00  0E00               	movlw	0
 11311   003E02  1A1A               	xorwf	i2___flge@ff1^0,f,c
 11312   003E04  0E00               	movlw	0
 11313   003E06  1A1B               	xorwf	(i2___flge@ff1+1)^0,f,c
 11314   003E08  0E00               	movlw	0
 11315   003E0A  1A1C               	xorwf	(i2___flge@ff1+2)^0,f,c
 11316   003E0C  0E80               	movlw	128
 11317   003E0E  1A1D               	xorwf	(i2___flge@ff1+3)^0,f,c
 11318   003E10  0E00               	movlw	0
 11319   003E12  1A1E               	xorwf	i2___flge@ff2^0,f,c
 11320   003E14  0E00               	movlw	0
 11321   003E16  1A1F               	xorwf	(i2___flge@ff2+1)^0,f,c
 11322   003E18  0E00               	movlw	0
 11323   003E1A  1A20               	xorwf	(i2___flge@ff2+2)^0,f,c
 11324   003E1C  0E80               	movlw	128
 11325   003E1E  1A21               	xorwf	(i2___flge@ff2+3)^0,f,c
 11326   003E20  501E               	movf	i2___flge@ff2^0,w,c
 11327   003E22  5C1A               	subwf	i2___flge@ff1^0,w,c
 11328   003E24  501F               	movf	(i2___flge@ff2+1)^0,w,c
 11329   003E26  581B               	subwfb	(i2___flge@ff1+1)^0,w,c
 11330   003E28  5020               	movf	(i2___flge@ff2+2)^0,w,c
 11331   003E2A  581C               	subwfb	(i2___flge@ff1+2)^0,w,c
 11332   003E2C  5021               	movf	(i2___flge@ff2+3)^0,w,c
 11333   003E2E  581D               	subwfb	(i2___flge@ff1+3)^0,w,c
 11334   003E30  B0D8               	btfsc	status,0,c
 11335   003E32  EF1D  F01F         	goto	i2u539_41
 11336   003E36  EF1F  F01F         	goto	i2u539_40
 11337   003E3A                     i2u539_41:
 11338   003E3A  EF22  F01F         	goto	i2l4804
 11339   003E3E                     i2u539_40:
 11340   003E3E  90D8               	bcf	status,0,c
 11341   003E40  EF23  F01F         	goto	i2l610
 11342   003E44                     i2l4804:
 11343   003E44  80D8               	bsf	status,0,c
 11344   003E46                     i2l610:
 11345   003E46  0012               	return		;funcret
 11346   003E48                     __end_ofi2___flge:
 11347                           	callstack 0
 11348                           
 11349 ;; *************** function i2___fleq *****************
 11350 ;; Defined at:
 11351 ;;		line 4 in file "C:\Program Files\Microchip\xc8\v2.41\pic\sources\c99\common\fleq.c"
 11352 ;; Parameters:    Size  Location     Type
 11353 ;;  ff1             4    0[COMRAM] unsigned char 
 11354 ;;  ff2             4    4[COMRAM] unsigned char 
 11355 ;; Auto vars:     Size  Location     Type
 11356 ;;		None
 11357 ;; Return value:  Size  Location     Type
 11358 ;;		None               void
 11359 ;; Registers used:
 11360 ;;		wreg, status,2, status,0
 11361 ;; Tracked objects:
 11362 ;;		On entry : 0/0
 11363 ;;		On exit  : 0/0
 11364 ;;		Unchanged: 0/0
 11365 ;; Data sizes:     COMRAM   BANK0   BANK1   BANK2   BANK3   BANK4   BANK5   BANK6   BANK7   BANK8   BANK9  BANK10  BANK1
      +1  BANK12  BANK13  BANK14  BANK15
 11366 ;;      Params:         8       0       0       0       0       0       0       0       0       0       0       0       
      +0       0       0       0       0
 11367 ;;      Locals:         0       0       0       0       0       0       0       0       0       0       0       0       
      +0       0       0       0       0
 11368 ;;      Temps:          4       0       0       0       0       0       0       0       0       0       0       0       
      +0       0       0       0       0
 11369 ;;      Totals:        12       0       0       0       0       0       0       0       0       0       0       0       
      +0       0       0       0       0
 11370 ;;Total ram usage:       12 bytes
 11371 ;; Hardware stack levels used: 1
 11372 ;; This function calls:
 11373 ;;		Nothing
 11374 ;; This function is called by:
 11375 ;;		_Timer3_int
 11376 ;; This function uses a non-reentrant model
 11377 ;;
 11378                           
 11379                           	psect	text52
 11380   004622                     __ptext52:
 11381                           	callstack 0
 11382   004622                     i2___fleq:
 11383                           	callstack 20
 11384   004622  0E00               	movlw	0
 11385   004624  1401               	andwf	i2___fleq@ff1^0,w,c
 11386   004626  6E09               	movwf	??i2___fleq^0,c
 11387   004628  0E00               	movlw	0
 11388   00462A  1402               	andwf	(i2___fleq@ff1+1)^0,w,c
 11389   00462C  6E0A               	movwf	(??i2___fleq+1)^0,c
 11390   00462E  0E80               	movlw	128
 11391   004630  1403               	andwf	(i2___fleq@ff1+2)^0,w,c
 11392   004632  6E0B               	movwf	(??i2___fleq+2)^0,c
 11393   004634  0E7F               	movlw	127
 11394   004636  1404               	andwf	(i2___fleq@ff1+3)^0,w,c
 11395   004638  6E0C               	movwf	(??i2___fleq+3)^0,c
 11396   00463A  5009               	movf	??i2___fleq^0,w,c
 11397   00463C  100A               	iorwf	(??i2___fleq+1)^0,w,c
 11398   00463E  100B               	iorwf	(??i2___fleq+2)^0,w,c
 11399   004640  100C               	iorwf	(??i2___fleq+3)^0,w,c
 11400   004642  A4D8               	btfss	status,2,c
 11401   004644  EF26  F023         	goto	i2u532_41
 11402   004648  EF28  F023         	goto	i2u532_40
 11403   00464C                     i2u532_41:
 11404   00464C  EF30  F023         	goto	i2l4774
 11405   004650                     i2u532_40:
 11406   004650  0E00               	movlw	0
 11407   004652  6E01               	movwf	i2___fleq@ff1^0,c
 11408   004654  0E00               	movlw	0
 11409   004656  6E02               	movwf	(i2___fleq@ff1+1)^0,c
 11410   004658  0E00               	movlw	0
 11411   00465A  6E03               	movwf	(i2___fleq@ff1+2)^0,c
 11412   00465C  0E00               	movlw	0
 11413   00465E  6E04               	movwf	(i2___fleq@ff1+3)^0,c
 11414   004660                     i2l4774:
 11415   004660  0E00               	movlw	0
 11416   004662  1405               	andwf	i2___fleq@ff2^0,w,c
 11417   004664  6E09               	movwf	??i2___fleq^0,c
 11418   004666  0E00               	movlw	0
 11419   004668  1406               	andwf	(i2___fleq@ff2+1)^0,w,c
 11420   00466A  6E0A               	movwf	(??i2___fleq+1)^0,c
 11421   00466C  0E80               	movlw	128
 11422   00466E  1407               	andwf	(i2___fleq@ff2+2)^0,w,c
 11423   004670  6E0B               	movwf	(??i2___fleq+2)^0,c
 11424   004672  0E7F               	movlw	127
 11425   004674  1408               	andwf	(i2___fleq@ff2+3)^0,w,c
 11426   004676  6E0C               	movwf	(??i2___fleq+3)^0,c
 11427   004678  5009               	movf	??i2___fleq^0,w,c
 11428   00467A  100A               	iorwf	(??i2___fleq+1)^0,w,c
 11429   00467C  100B               	iorwf	(??i2___fleq+2)^0,w,c
 11430   00467E  100C               	iorwf	(??i2___fleq+3)^0,w,c
 11431   004680  A4D8               	btfss	status,2,c
 11432   004682  EF45  F023         	goto	i2u533_41
 11433   004686  EF47  F023         	goto	i2u533_40
 11434   00468A                     i2u533_41:
 11435   00468A  EF4F  F023         	goto	i2l4778
 11436   00468E                     i2u533_40:
 11437   00468E  0E00               	movlw	0
 11438   004690  6E05               	movwf	i2___fleq@ff2^0,c
 11439   004692  0E00               	movlw	0
 11440   004694  6E06               	movwf	(i2___fleq@ff2+1)^0,c
 11441   004696  0E00               	movlw	0
 11442   004698  6E07               	movwf	(i2___fleq@ff2+2)^0,c
 11443   00469A  0E00               	movlw	0
 11444   00469C  6E08               	movwf	(i2___fleq@ff2+3)^0,c
 11445   00469E                     i2l4778:
 11446   00469E  5005               	movf	i2___fleq@ff2^0,w,c
 11447   0046A0  1801               	xorwf	i2___fleq@ff1^0,w,c
 11448   0046A2  E10F               	bnz	i2u534_40
 11449   0046A4  5006               	movf	(i2___fleq@ff2+1)^0,w,c
 11450   0046A6  1802               	xorwf	(i2___fleq@ff1+1)^0,w,c
 11451   0046A8  E10C               	bnz	i2u534_40
 11452   0046AA  5007               	movf	(i2___fleq@ff2+2)^0,w,c
 11453   0046AC  1803               	xorwf	(i2___fleq@ff1+2)^0,w,c
 11454   0046AE  E109               	bnz	i2u534_40
 11455   0046B0  5008               	movf	(i2___fleq@ff2+3)^0,w,c
 11456   0046B2  1804               	xorwf	(i2___fleq@ff1+3)^0,w,c
 11457   0046B4  B4D8               	btfsc	status,2,c
 11458   0046B6  EF5F  F023         	goto	i2u534_41
 11459   0046BA  EF61  F023         	goto	i2u534_40
 11460   0046BE                     i2u534_41:
 11461   0046BE  EF64  F023         	goto	i2l4782
 11462   0046C2                     i2u534_40:
 11463   0046C2  90D8               	bcf	status,0,c
 11464   0046C4  EF65  F023         	goto	i2l599
 11465   0046C8                     i2l4782:
 11466   0046C8  80D8               	bsf	status,0,c
 11467   0046CA                     i2l599:
 11468   0046CA  0012               	return		;funcret
 11469   0046CC                     __end_ofi2___fleq:
 11470                           	callstack 0
 11471                           
 11472 ;; *************** function i2___fldiv *****************
 11473 ;; Defined at:
 11474 ;;		line 11 in file "C:\Program Files\Microchip\xc8\v2.41\pic\sources\c99\common\sprcdiv.c"
 11475 ;; Parameters:    Size  Location     Type
 11476 ;;  b               4    0[COMRAM] unsigned char 
 11477 ;;  a               4    4[COMRAM] unsigned char 
 11478 ;; Auto vars:     Size  Location     Type
 11479 ;;  grs             4   19[COMRAM] unsigned long 
 11480 ;;  rem             4   12[COMRAM] unsigned long 
 11481 ;;  new_exp         2   17[COMRAM] short 
 11482 ;;  aexp            1   24[COMRAM] unsigned char 
 11483 ;;  bexp            1   23[COMRAM] unsigned char 
 11484 ;;  sign            1   16[COMRAM] unsigned char 
 11485 ;; Return value:  Size  Location     Type
 11486 ;;                  4    0[COMRAM] unsigned char 
 11487 ;; Registers used:
 11488 ;;		wreg, status,2, status,0
 11489 ;; Tracked objects:
 11490 ;;		On entry : 0/0
 11491 ;;		On exit  : 0/0
 11492 ;;		Unchanged: 0/0
 11493 ;; Data sizes:     COMRAM   BANK0   BANK1   BANK2   BANK3   BANK4   BANK5   BANK6   BANK7   BANK8   BANK9  BANK10  BANK1
      +1  BANK12  BANK13  BANK14  BANK15
 11494 ;;      Params:         8       0       0       0       0       0       0       0       0       0       0       0       
      +0       0       0       0       0
 11495 ;;      Locals:        13       0       0       0       0       0       0       0       0       0       0       0       
      +0       0       0       0       0
 11496 ;;      Temps:          4       0       0       0       0       0       0       0       0       0       0       0       
      +0       0       0       0       0
 11497 ;;      Totals:        25       0       0       0       0       0       0       0       0       0       0       0       
      +0       0       0       0       0
 11498 ;;Total ram usage:       25 bytes
 11499 ;; Hardware stack levels used: 1
 11500 ;; This function calls:
 11501 ;;		Nothing
 11502 ;; This function is called by:
 11503 ;;		_Timer3_int
 11504 ;; This function uses a non-reentrant model
 11505 ;;
 11506                           
 11507                           	psect	text53
 11508   002EEA                     __ptext53:
 11509                           	callstack 0
 11510   002EEA                     i2___fldiv:
 11511                           	callstack 20
 11512   002EEA  5004               	movf	(i2___fldiv@b+3)^0,w,c
 11513   002EEC  0B80               	andlw	128
 11514   002EEE  6E11               	movwf	i2___fldiv@sign^0,c
 11515   002EF0  5004               	movf	(i2___fldiv@b+3)^0,w,c
 11516   002EF2  2404               	addwf	(i2___fldiv@b+3)^0,w,c
 11517   002EF4  6E18               	movwf	i2___fldiv@bexp^0,c
 11518   002EF6  AE03               	btfss	(i2___fldiv@b+2)^0,7,c
 11519   002EF8  EF80  F017         	goto	i2u540_41
 11520   002EFC  EF82  F017         	goto	i2u540_40
 11521   002F00                     i2u540_41:
 11522   002F00  EF83  F017         	goto	i2l4814
 11523   002F04                     i2u540_40:
 11524   002F04  8018               	bsf	i2___fldiv@bexp^0,0,c
 11525   002F06                     i2l4814:
 11526   002F06  5018               	movf	i2___fldiv@bexp^0,w,c
 11527   002F08  B4D8               	btfsc	status,2,c
 11528   002F0A  EF89  F017         	goto	i2u541_41
 11529   002F0E  EF8B  F017         	goto	i2u541_40
 11530   002F12                     i2u541_41:
 11531   002F12  EFA0  F017         	goto	i2l4824
 11532   002F16                     i2u541_40:
 11533   002F16  2818               	incf	i2___fldiv@bexp^0,w,c
 11534   002F18  A4D8               	btfss	status,2,c
 11535   002F1A  EF91  F017         	goto	i2u542_41
 11536   002F1E  EF93  F017         	goto	i2u542_40
 11537   002F22                     i2u542_41:
 11538   002F22  EF9B  F017         	goto	i2l4820
 11539   002F26                     i2u542_40:
 11540   002F26  0E00               	movlw	0
 11541   002F28  6E01               	movwf	i2___fldiv@b^0,c
 11542   002F2A  0E00               	movlw	0
 11543   002F2C  6E02               	movwf	(i2___fldiv@b+1)^0,c
 11544   002F2E  0E00               	movlw	0
 11545   002F30  6E03               	movwf	(i2___fldiv@b+2)^0,c
 11546   002F32  0E00               	movlw	0
 11547   002F34  6E04               	movwf	(i2___fldiv@b+3)^0,c
 11548   002F36                     i2l4820:
 11549   002F36  8E03               	bsf	(i2___fldiv@b+2)^0,7,c
 11550   002F38  0E00               	movlw	0
 11551   002F3A  6E04               	movwf	(i2___fldiv@b+3)^0,c
 11552   002F3C  EFA8  F017         	goto	i2l4826
 11553   002F40                     i2l4824:
 11554   002F40  0E00               	movlw	0
 11555   002F42  6E01               	movwf	i2___fldiv@b^0,c
 11556   002F44  0E00               	movlw	0
 11557   002F46  6E02               	movwf	(i2___fldiv@b+1)^0,c
 11558   002F48  0E00               	movlw	0
 11559   002F4A  6E03               	movwf	(i2___fldiv@b+2)^0,c
 11560   002F4C  0E00               	movlw	0
 11561   002F4E  6E04               	movwf	(i2___fldiv@b+3)^0,c
 11562   002F50                     i2l4826:
 11563   002F50  5008               	movf	(i2___fldiv@a+3)^0,w,c
 11564   002F52  0B80               	andlw	128
 11565   002F54  1A11               	xorwf	i2___fldiv@sign^0,f,c
 11566   002F56  5008               	movf	(i2___fldiv@a+3)^0,w,c
 11567   002F58  2408               	addwf	(i2___fldiv@a+3)^0,w,c
 11568   002F5A  6E19               	movwf	i2___fldiv@aexp^0,c
 11569   002F5C  AE07               	btfss	(i2___fldiv@a+2)^0,7,c
 11570   002F5E  EFB3  F017         	goto	i2u543_41
 11571   002F62  EFB5  F017         	goto	i2u543_40
 11572   002F66                     i2u543_41:
 11573   002F66  EFB6  F017         	goto	i2l4834
 11574   002F6A                     i2u543_40:
 11575   002F6A  8019               	bsf	i2___fldiv@aexp^0,0,c
 11576   002F6C                     i2l4834:
 11577   002F6C  5019               	movf	i2___fldiv@aexp^0,w,c
 11578   002F6E  B4D8               	btfsc	status,2,c
 11579   002F70  EFBC  F017         	goto	i2u544_41
 11580   002F74  EFBE  F017         	goto	i2u544_40
 11581   002F78                     i2u544_41:
 11582   002F78  EFD3  F017         	goto	i2l4844
 11583   002F7C                     i2u544_40:
 11584   002F7C  2819               	incf	i2___fldiv@aexp^0,w,c
 11585   002F7E  A4D8               	btfss	status,2,c
 11586   002F80  EFC4  F017         	goto	i2u545_41
 11587   002F84  EFC6  F017         	goto	i2u545_40
 11588   002F88                     i2u545_41:
 11589   002F88  EFCE  F017         	goto	i2l4840
 11590   002F8C                     i2u545_40:
 11591   002F8C  0E00               	movlw	0
 11592   002F8E  6E05               	movwf	i2___fldiv@a^0,c
 11593   002F90  0E00               	movlw	0
 11594   002F92  6E06               	movwf	(i2___fldiv@a+1)^0,c
 11595   002F94  0E00               	movlw	0
 11596   002F96  6E07               	movwf	(i2___fldiv@a+2)^0,c
 11597   002F98  0E00               	movlw	0
 11598   002F9A  6E08               	movwf	(i2___fldiv@a+3)^0,c
 11599   002F9C                     i2l4840:
 11600   002F9C  8E07               	bsf	(i2___fldiv@a+2)^0,7,c
 11601   002F9E  0E00               	movlw	0
 11602   002FA0  6E08               	movwf	(i2___fldiv@a+3)^0,c
 11603   002FA2  EFDB  F017         	goto	i2l4846
 11604   002FA6                     i2l4844:
 11605   002FA6  0E00               	movlw	0
 11606   002FA8  6E05               	movwf	i2___fldiv@a^0,c
 11607   002FAA  0E00               	movlw	0
 11608   002FAC  6E06               	movwf	(i2___fldiv@a+1)^0,c
 11609   002FAE  0E00               	movlw	0
 11610   002FB0  6E07               	movwf	(i2___fldiv@a+2)^0,c
 11611   002FB2  0E00               	movlw	0
 11612   002FB4  6E08               	movwf	(i2___fldiv@a+3)^0,c
 11613   002FB6                     i2l4846:
 11614   002FB6  5005               	movf	i2___fldiv@a^0,w,c
 11615   002FB8  1006               	iorwf	(i2___fldiv@a+1)^0,w,c
 11616   002FBA  1007               	iorwf	(i2___fldiv@a+2)^0,w,c
 11617   002FBC  1008               	iorwf	(i2___fldiv@a+3)^0,w,c
 11618   002FBE  A4D8               	btfss	status,2,c
 11619   002FC0  EFE4  F017         	goto	i2u546_41
 11620   002FC4  EFE6  F017         	goto	i2u546_40
 11621   002FC8                     i2u546_41:
 11622   002FC8  EFFE  F017         	goto	i2l4858
 11623   002FCC                     i2u546_40:
 11624   002FCC  0E00               	movlw	0
 11625   002FCE  6E01               	movwf	i2___fldiv@b^0,c
 11626   002FD0  0E00               	movlw	0
 11627   002FD2  6E02               	movwf	(i2___fldiv@b+1)^0,c
 11628   002FD4  0E00               	movlw	0
 11629   002FD6  6E03               	movwf	(i2___fldiv@b+2)^0,c
 11630   002FD8  0E00               	movlw	0
 11631   002FDA  6E04               	movwf	(i2___fldiv@b+3)^0,c
 11632   002FDC  0E80               	movlw	128
 11633   002FDE  1203               	iorwf	(i2___fldiv@b+2)^0,f,c
 11634   002FE0  0E7F               	movlw	127
 11635   002FE2  1204               	iorwf	(i2___fldiv@b+3)^0,f,c
 11636   002FE4                     i2l4852:
 11637   002FE4  5011               	movf	i2___fldiv@sign^0,w,c
 11638   002FE6  1204               	iorwf	(i2___fldiv@b+3)^0,f,c
 11639   002FE8  C001  F001         	movff	i2___fldiv@b,?i2___fldiv
 11640   002FEC  C002  F002         	movff	i2___fldiv@b+1,?i2___fldiv+1
 11641   002FF0  C003  F003         	movff	i2___fldiv@b+2,?i2___fldiv+2
 11642   002FF4  C004  F004         	movff	i2___fldiv@b+3,?i2___fldiv+3
 11643   002FF8  EF41  F019         	goto	i2l922
 11644   002FFC                     i2l4858:
 11645   002FFC  5018               	movf	i2___fldiv@bexp^0,w,c
 11646   002FFE  A4D8               	btfss	status,2,c
 11647   003000  EF04  F018         	goto	i2u547_41
 11648   003004  EF06  F018         	goto	i2u547_40
 11649   003008                     i2u547_41:
 11650   003008  EF10  F018         	goto	i2l4866
 11651   00300C                     i2u547_40:
 11652   00300C  0E00               	movlw	0
 11653   00300E  6E01               	movwf	?i2___fldiv^0,c
 11654   003010  0E00               	movlw	0
 11655   003012  6E02               	movwf	(?i2___fldiv+1)^0,c
 11656   003014  0E00               	movlw	0
 11657   003016  6E03               	movwf	(?i2___fldiv+2)^0,c
 11658   003018  0E00               	movlw	0
 11659   00301A  6E04               	movwf	(?i2___fldiv+3)^0,c
 11660   00301C  EF41  F019         	goto	i2l922
 11661   003020                     i2l4866:
 11662   003020  5019               	movf	i2___fldiv@aexp^0,w,c
 11663   003022  C018  F009         	movff	i2___fldiv@bexp,??i2___fldiv
 11664   003026  6A0A               	clrf	(??i2___fldiv+1)^0,c
 11665   003028  5E09               	subwf	??i2___fldiv^0,f,c
 11666   00302A  0E00               	movlw	0
 11667   00302C  5A0A               	subwfb	(??i2___fldiv+1)^0,f,c
 11668   00302E  0E7F               	movlw	127
 11669   003030  2409               	addwf	??i2___fldiv^0,w,c
 11670   003032  6E12               	movwf	i2___fldiv@new_exp^0,c
 11671   003034  0E00               	movlw	0
 11672   003036  200A               	addwfc	(??i2___fldiv+1)^0,w,c
 11673   003038  6E13               	movwf	(i2___fldiv@new_exp+1)^0,c
 11674   00303A  C001  F00D         	movff	i2___fldiv@b,i2___fldiv@rem
 11675   00303E  C002  F00E         	movff	i2___fldiv@b+1,i2___fldiv@rem+1
 11676   003042  C003  F00F         	movff	i2___fldiv@b+2,i2___fldiv@rem+2
 11677   003046  C004  F010         	movff	i2___fldiv@b+3,i2___fldiv@rem+3
 11678   00304A  0E00               	movlw	0
 11679   00304C  6E01               	movwf	i2___fldiv@b^0,c
 11680   00304E  0E00               	movlw	0
 11681   003050  6E02               	movwf	(i2___fldiv@b+1)^0,c
 11682   003052  0E00               	movlw	0
 11683   003054  6E03               	movwf	(i2___fldiv@b+2)^0,c
 11684   003056  0E00               	movlw	0
 11685   003058  6E04               	movwf	(i2___fldiv@b+3)^0,c
 11686   00305A  0E00               	movlw	0
 11687   00305C  6E14               	movwf	i2___fldiv@grs^0,c
 11688   00305E  0E00               	movlw	0
 11689   003060  6E15               	movwf	(i2___fldiv@grs+1)^0,c
 11690   003062  0E00               	movlw	0
 11691   003064  6E16               	movwf	(i2___fldiv@grs+2)^0,c
 11692   003066  0E00               	movlw	0
 11693   003068  6E17               	movwf	(i2___fldiv@grs+3)^0,c
 11694   00306A  0E00               	movlw	0
 11695   00306C  6E19               	movwf	i2___fldiv@aexp^0,c
 11696   00306E  EF71  F018         	goto	i2l924
 11697   003072                     i2l4876:
 11698   003072  5019               	movf	i2___fldiv@aexp^0,w,c
 11699   003074  B4D8               	btfsc	status,2,c
 11700   003076  EF3F  F018         	goto	i2u548_41
 11701   00307A  EF41  F018         	goto	i2u548_40
 11702   00307E                     i2u548_41:
 11703   00307E  EF58  F018         	goto	i2l4884
 11704   003082                     i2u548_40:
 11705   003082  90D8               	bcf	status,0,c
 11706   003084  360D               	rlcf	i2___fldiv@rem^0,f,c
 11707   003086  360E               	rlcf	(i2___fldiv@rem+1)^0,f,c
 11708   003088  360F               	rlcf	(i2___fldiv@rem+2)^0,f,c
 11709   00308A  3610               	rlcf	(i2___fldiv@rem+3)^0,f,c
 11710   00308C  90D8               	bcf	status,0,c
 11711   00308E  3601               	rlcf	i2___fldiv@b^0,f,c
 11712   003090  3602               	rlcf	(i2___fldiv@b+1)^0,f,c
 11713   003092  3603               	rlcf	(i2___fldiv@b+2)^0,f,c
 11714   003094  3604               	rlcf	(i2___fldiv@b+3)^0,f,c
 11715   003096  AE17               	btfss	(i2___fldiv@grs+3)^0,7,c
 11716   003098  EF50  F018         	goto	i2u549_41
 11717   00309C  EF52  F018         	goto	i2u549_40
 11718   0030A0                     i2u549_41:
 11719   0030A0  EF53  F018         	goto	i2l927
 11720   0030A4                     i2u549_40:
 11721   0030A4  8001               	bsf	i2___fldiv@b^0,0,c
 11722   0030A6                     i2l927:
 11723   0030A6  90D8               	bcf	status,0,c
 11724   0030A8  3614               	rlcf	i2___fldiv@grs^0,f,c
 11725   0030AA  3615               	rlcf	(i2___fldiv@grs+1)^0,f,c
 11726   0030AC  3616               	rlcf	(i2___fldiv@grs+2)^0,f,c
 11727   0030AE  3617               	rlcf	(i2___fldiv@grs+3)^0,f,c
 11728   0030B0                     i2l4884:
 11729   0030B0  5005               	movf	i2___fldiv@a^0,w,c
 11730   0030B2  5C0D               	subwf	i2___fldiv@rem^0,w,c
 11731   0030B4  5006               	movf	(i2___fldiv@a+1)^0,w,c
 11732   0030B6  580E               	subwfb	(i2___fldiv@rem+1)^0,w,c
 11733   0030B8  5007               	movf	(i2___fldiv@a+2)^0,w,c
 11734   0030BA  580F               	subwfb	(i2___fldiv@rem+2)^0,w,c
 11735   0030BC  5008               	movf	(i2___fldiv@a+3)^0,w,c
 11736   0030BE  5810               	subwfb	(i2___fldiv@rem+3)^0,w,c
 11737   0030C0  A0D8               	btfss	status,0,c
 11738   0030C2  EF65  F018         	goto	i2u550_41
 11739   0030C6  EF67  F018         	goto	i2u550_40
 11740   0030CA                     i2u550_41:
 11741   0030CA  EF70  F018         	goto	i2l4890
 11742   0030CE                     i2u550_40:
 11743   0030CE  8C17               	bsf	(i2___fldiv@grs+3)^0,6,c
 11744   0030D0  5005               	movf	i2___fldiv@a^0,w,c
 11745   0030D2  5E0D               	subwf	i2___fldiv@rem^0,f,c
 11746   0030D4  5006               	movf	(i2___fldiv@a+1)^0,w,c
 11747   0030D6  5A0E               	subwfb	(i2___fldiv@rem+1)^0,f,c
 11748   0030D8  5007               	movf	(i2___fldiv@a+2)^0,w,c
 11749   0030DA  5A0F               	subwfb	(i2___fldiv@rem+2)^0,f,c
 11750   0030DC  5008               	movf	(i2___fldiv@a+3)^0,w,c
 11751   0030DE  5A10               	subwfb	(i2___fldiv@rem+3)^0,f,c
 11752   0030E0                     i2l4890:
 11753   0030E0  2A19               	incf	i2___fldiv@aexp^0,f,c
 11754   0030E2                     i2l924:
 11755   0030E2  0E19               	movlw	25
 11756   0030E4  6419               	cpfsgt	i2___fldiv@aexp^0,c
 11757   0030E6  EF77  F018         	goto	i2u551_41
 11758   0030EA  EF79  F018         	goto	i2u551_40
 11759   0030EE                     i2u551_41:
 11760   0030EE  EF39  F018         	goto	i2l4876
 11761   0030F2                     i2u551_40:
 11762   0030F2  500D               	movf	i2___fldiv@rem^0,w,c
 11763   0030F4  100E               	iorwf	(i2___fldiv@rem+1)^0,w,c
 11764   0030F6  100F               	iorwf	(i2___fldiv@rem+2)^0,w,c
 11765   0030F8  1010               	iorwf	(i2___fldiv@rem+3)^0,w,c
 11766   0030FA  B4D8               	btfsc	status,2,c
 11767   0030FC  EF82  F018         	goto	i2u552_41
 11768   003100  EF84  F018         	goto	i2u552_40
 11769   003104                     i2u552_41:
 11770   003104  EF9C  F018         	goto	i2l4902
 11771   003108                     i2u552_40:
 11772   003108  8014               	bsf	i2___fldiv@grs^0,0,c
 11773   00310A  EF9C  F018         	goto	i2l4902
 11774   00310E                     i2l4896:
 11775   00310E  90D8               	bcf	status,0,c
 11776   003110  3601               	rlcf	i2___fldiv@b^0,f,c
 11777   003112  3602               	rlcf	(i2___fldiv@b+1)^0,f,c
 11778   003114  3603               	rlcf	(i2___fldiv@b+2)^0,f,c
 11779   003116  3604               	rlcf	(i2___fldiv@b+3)^0,f,c
 11780   003118  AE17               	btfss	(i2___fldiv@grs+3)^0,7,c
 11781   00311A  EF91  F018         	goto	i2u553_41
 11782   00311E  EF93  F018         	goto	i2u553_40
 11783   003122                     i2u553_41:
 11784   003122  EF94  F018         	goto	i2l933
 11785   003126                     i2u553_40:
 11786   003126  8001               	bsf	i2___fldiv@b^0,0,c
 11787   003128                     i2l933:
 11788   003128  90D8               	bcf	status,0,c
 11789   00312A  3614               	rlcf	i2___fldiv@grs^0,f,c
 11790   00312C  3615               	rlcf	(i2___fldiv@grs+1)^0,f,c
 11791   00312E  3616               	rlcf	(i2___fldiv@grs+2)^0,f,c
 11792   003130  3617               	rlcf	(i2___fldiv@grs+3)^0,f,c
 11793   003132  0612               	decf	i2___fldiv@new_exp^0,f,c
 11794   003134  A0D8               	btfss	status,0,c
 11795   003136  0613               	decf	(i2___fldiv@new_exp+1)^0,f,c
 11796   003138                     i2l4902:
 11797   003138  AE03               	btfss	(i2___fldiv@b+2)^0,7,c
 11798   00313A  EFA1  F018         	goto	i2u554_41
 11799   00313E  EFA3  F018         	goto	i2u554_40
 11800   003142                     i2u554_41:
 11801   003142  EF87  F018         	goto	i2l4896
 11802   003146                     i2u554_40:
 11803   003146  0E00               	movlw	0
 11804   003148  6E19               	movwf	i2___fldiv@aexp^0,c
 11805   00314A  AE17               	btfss	(i2___fldiv@grs+3)^0,7,c
 11806   00314C  EFAA  F018         	goto	i2u555_41
 11807   003150  EFAC  F018         	goto	i2u555_40
 11808   003154                     i2u555_41:
 11809   003154  EFD0  F018         	goto	i2l935
 11810   003158                     i2u555_40:
 11811   003158  0EFF               	movlw	255
 11812   00315A  1414               	andwf	i2___fldiv@grs^0,w,c
 11813   00315C  6E09               	movwf	??i2___fldiv^0,c
 11814   00315E  0EFF               	movlw	255
 11815   003160  1415               	andwf	(i2___fldiv@grs+1)^0,w,c
 11816   003162  6E0A               	movwf	(??i2___fldiv+1)^0,c
 11817   003164  0EFF               	movlw	255
 11818   003166  1416               	andwf	(i2___fldiv@grs+2)^0,w,c
 11819   003168  6E0B               	movwf	(??i2___fldiv+2)^0,c
 11820   00316A  0E7F               	movlw	127
 11821   00316C  1417               	andwf	(i2___fldiv@grs+3)^0,w,c
 11822   00316E  6E0C               	movwf	(??i2___fldiv+3)^0,c
 11823   003170  5009               	movf	??i2___fldiv^0,w,c
 11824   003172  100A               	iorwf	(??i2___fldiv+1)^0,w,c
 11825   003174  100B               	iorwf	(??i2___fldiv+2)^0,w,c
 11826   003176  100C               	iorwf	(??i2___fldiv+3)^0,w,c
 11827   003178  B4D8               	btfsc	status,2,c
 11828   00317A  EFC1  F018         	goto	i2u556_41
 11829   00317E  EFC3  F018         	goto	i2u556_40
 11830   003182                     i2u556_41:
 11831   003182  EFC7  F018         	goto	i2l936
 11832   003186                     i2u556_40:
 11833   003186                     i2l4910:
 11834   003186  0E01               	movlw	1
 11835   003188  6E19               	movwf	i2___fldiv@aexp^0,c
 11836   00318A  EFD0  F018         	goto	i2l935
 11837   00318E                     i2l936:
 11838   00318E  A001               	btfss	i2___fldiv@b^0,0,c
 11839   003190  EFCC  F018         	goto	i2u557_41
 11840   003194  EFCE  F018         	goto	i2u557_40
 11841   003198                     i2u557_41:
 11842   003198  EFD0  F018         	goto	i2l935
 11843   00319C                     i2u557_40:
 11844   00319C  EFC3  F018         	goto	i2l4910
 11845   0031A0                     i2l935:
 11846   0031A0  5019               	movf	i2___fldiv@aexp^0,w,c
 11847   0031A2  B4D8               	btfsc	status,2,c
 11848   0031A4  EFD6  F018         	goto	i2u558_41
 11849   0031A8  EFD8  F018         	goto	i2u558_40
 11850   0031AC                     i2u558_41:
 11851   0031AC  EFFC  F018         	goto	i2l4922
 11852   0031B0                     i2u558_40:
 11853   0031B0  0E01               	movlw	1
 11854   0031B2  2601               	addwf	i2___fldiv@b^0,f,c
 11855   0031B4  0E00               	movlw	0
 11856   0031B6  2202               	addwfc	(i2___fldiv@b+1)^0,f,c
 11857   0031B8  2203               	addwfc	(i2___fldiv@b+2)^0,f,c
 11858   0031BA  2204               	addwfc	(i2___fldiv@b+3)^0,f,c
 11859   0031BC  A004               	btfss	(i2___fldiv@b+3)^0,0,c
 11860   0031BE  EFE3  F018         	goto	i2u559_41
 11861   0031C2  EFE5  F018         	goto	i2u559_40
 11862   0031C6                     i2u559_41:
 11863   0031C6  EFFC  F018         	goto	i2l4922
 11864   0031CA                     i2u559_40:
 11865   0031CA  C001  F009         	movff	i2___fldiv@b,??i2___fldiv
 11866   0031CE  C002  F00A         	movff	i2___fldiv@b+1,??i2___fldiv+1
 11867   0031D2  C003  F00B         	movff	i2___fldiv@b+2,??i2___fldiv+2
 11868   0031D6  C004  F00C         	movff	i2___fldiv@b+3,??i2___fldiv+3
 11869   0031DA  340C               	rlcf	(??i2___fldiv+3)^0,w,c
 11870   0031DC  320C               	rrcf	(??i2___fldiv+3)^0,f,c
 11871   0031DE  320B               	rrcf	(??i2___fldiv+2)^0,f,c
 11872   0031E0  320A               	rrcf	(??i2___fldiv+1)^0,f,c
 11873   0031E2  3209               	rrcf	??i2___fldiv^0,f,c
 11874   0031E4  C009  F001         	movff	??i2___fldiv,i2___fldiv@b
 11875   0031E8  C00A  F002         	movff	??i2___fldiv+1,i2___fldiv@b+1
 11876   0031EC  C00B  F003         	movff	??i2___fldiv+2,i2___fldiv@b+2
 11877   0031F0  C00C  F004         	movff	??i2___fldiv+3,i2___fldiv@b+3
 11878   0031F4  4A12               	infsnz	i2___fldiv@new_exp^0,f,c
 11879   0031F6  2A13               	incf	(i2___fldiv@new_exp+1)^0,f,c
 11880   0031F8                     i2l4922:
 11881   0031F8  BE13               	btfsc	(i2___fldiv@new_exp+1)^0,7,c
 11882   0031FA  EF07  F019         	goto	i2u560_41
 11883   0031FE  5013               	movf	(i2___fldiv@new_exp+1)^0,w,c
 11884   003200  E108               	bnz	i2u560_40
 11885   003202  2812               	incf	i2___fldiv@new_exp^0,w,c
 11886   003204  A0D8               	btfss	status,0,c
 11887   003206  EF07  F019         	goto	i2u560_41
 11888   00320A  EF09  F019         	goto	i2u560_40
 11889   00320E                     i2u560_41:
 11890   00320E  EF14  F019         	goto	i2l4926
 11891   003212                     i2u560_40:
 11892   003212  0E00               	movlw	0
 11893   003214  6E13               	movwf	(i2___fldiv@new_exp+1)^0,c
 11894   003216  6812               	setf	i2___fldiv@new_exp^0,c
 11895   003218  0E00               	movlw	0
 11896   00321A  6E01               	movwf	i2___fldiv@b^0,c
 11897   00321C  0E00               	movlw	0
 11898   00321E  6E02               	movwf	(i2___fldiv@b+1)^0,c
 11899   003220  0E00               	movlw	0
 11900   003222  6E03               	movwf	(i2___fldiv@b+2)^0,c
 11901   003224  0E00               	movlw	0
 11902   003226  6E04               	movwf	(i2___fldiv@b+3)^0,c
 11903   003228                     i2l4926:
 11904   003228  BE13               	btfsc	(i2___fldiv@new_exp+1)^0,7,c
 11905   00322A  EF21  F019         	goto	i2u561_40
 11906   00322E  5013               	movf	(i2___fldiv@new_exp+1)^0,w,c
 11907   003230  E106               	bnz	i2u561_41
 11908   003232  0412               	decf	i2___fldiv@new_exp^0,w,c
 11909   003234  B0D8               	btfsc	status,0,c
 11910   003236  EF1F  F019         	goto	i2u561_41
 11911   00323A  EF21  F019         	goto	i2u561_40
 11912   00323E                     i2u561_41:
 11913   00323E  EF2F  F019         	goto	i2l4930
 11914   003242                     i2u561_40:
 11915   003242  0E00               	movlw	0
 11916   003244  6E13               	movwf	(i2___fldiv@new_exp+1)^0,c
 11917   003246  0E00               	movlw	0
 11918   003248  6E12               	movwf	i2___fldiv@new_exp^0,c
 11919   00324A  0E00               	movlw	0
 11920   00324C  6E01               	movwf	i2___fldiv@b^0,c
 11921   00324E  0E00               	movlw	0
 11922   003250  6E02               	movwf	(i2___fldiv@b+1)^0,c
 11923   003252  0E00               	movlw	0
 11924   003254  6E03               	movwf	(i2___fldiv@b+2)^0,c
 11925   003256  0E00               	movlw	0
 11926   003258  6E04               	movwf	(i2___fldiv@b+3)^0,c
 11927   00325A  0E00               	movlw	0
 11928   00325C  6E11               	movwf	i2___fldiv@sign^0,c
 11929   00325E                     i2l4930:
 11930   00325E  C012  F018         	movff	i2___fldiv@new_exp,i2___fldiv@bexp
 11931   003262  A018               	btfss	i2___fldiv@bexp^0,0,c
 11932   003264  EF36  F019         	goto	i2u562_41
 11933   003268  EF38  F019         	goto	i2u562_40
 11934   00326C                     i2u562_41:
 11935   00326C  EF3B  F019         	goto	i2l4936
 11936   003270                     i2u562_40:
 11937   003270  8E03               	bsf	(i2___fldiv@b+2)^0,7,c
 11938   003272  EF3C  F019         	goto	i2l4938
 11939   003276                     i2l4936:
 11940   003276  9E03               	bcf	(i2___fldiv@b+2)^0,7,c
 11941   003278                     i2l4938:
 11942   003278  90D8               	bcf	status,0,c
 11943   00327A  3018               	rrcf	i2___fldiv@bexp^0,w,c
 11944   00327C  6E04               	movwf	(i2___fldiv@b+3)^0,c
 11945   00327E  EFF2  F017         	goto	i2l4852
 11946   003282                     i2l922:
 11947   003282  0012               	return		;funcret
 11948   003284                     __end_ofi2___fldiv:
 11949                           	callstack 0
 11950                           
 11951 ;; *************** function _reloadTimer3 *****************
 11952 ;; Defined at:
 11953 ;;		line 85 in file "mainprojcet.c"
 11954 ;; Parameters:    Size  Location     Type
 11955 ;;		None
 11956 ;; Auto vars:     Size  Location     Type
 11957 ;;		None
 11958 ;; Return value:  Size  Location     Type
 11959 ;;                  1    wreg      void 
 11960 ;; Registers used:
 11961 ;;		wreg, status,2
 11962 ;; Tracked objects:
 11963 ;;		On entry : 0/0
 11964 ;;		On exit  : 0/0
 11965 ;;		Unchanged: 0/0
 11966 ;; Data sizes:     COMRAM   BANK0   BANK1   BANK2   BANK3   BANK4   BANK5   BANK6   BANK7   BANK8   BANK9  BANK10  BANK1
      +1  BANK12  BANK13  BANK14  BANK15
 11967 ;;      Params:         0       0       0       0       0       0       0       0       0       0       0       0       
      +0       0       0       0       0
 11968 ;;      Locals:         0       0       0       0       0       0       0       0       0       0       0       0       
      +0       0       0       0       0
 11969 ;;      Temps:          0       0       0       0       0       0       0       0       0       0       0       0       
      +0       0       0       0       0
 11970 ;;      Totals:         0       0       0       0       0       0       0       0       0       0       0       0       
      +0       0       0       0       0
 11971 ;;Total ram usage:        0 bytes
 11972 ;; Hardware stack levels used: 1
 11973 ;; This function calls:
 11974 ;;		Nothing
 11975 ;; This function is called by:
 11976 ;;		_Timer3_int
 11977 ;; This function uses a non-reentrant model
 11978 ;;
 11979                           
 11980                           	psect	text54
 11981   004E94                     __ptext54:
 11982                           	callstack 0
 11983   004E94                     _reloadTimer3:
 11984                           	callstack 20
 11985   004E94                     
 11986                           ;mainprojcet.c: 87: 
 11987   004E94  0E0B               	movlw	11
 11988   004E96  6EB3               	movwf	179,c	;volatile
 11989                           
 11990                           ;mainprojcet.c: 88: 
 11991   004E98  0EDC               	movlw	220
 11992   004E9A  6EB2               	movwf	178,c	;volatile
 11993   004E9C  0012               	return		;funcret
 11994   004E9E                     __end_of_reloadTimer3:
 11995                           	callstack 0
 11996                           
 11997                           	psect	rparam
 11998   000000                     
 11999                           	psect	temp
 12000   00005A                     btemp:
 12001                           	callstack 0
 12002   00005A                     	ds	1
 12003   000000                     int$flags	set	btemp
 12004   000000                     wtemp8	set	btemp+1
 12005   000000                     ttemp5	set	btemp+1
 12006   000000                     ttemp6	set	btemp+4
 12007   000000                     ttemp7	set	btemp+8
 12008                           
 12009                           	psect	idloc
 12010                           
 12011                           ;Config register IDLOC0 @ 0x200000
 12012                           ;	unspecified, using default values
 12013   200000                     	org	2097152
 12014   200000  FF                 	db	255
 12015                           
 12016                           ;Config register IDLOC1 @ 0x200001
 12017                           ;	unspecified, using default values
 12018   200001                     	org	2097153
 12019   200001  FF                 	db	255
 12020                           
 12021                           ;Config register IDLOC2 @ 0x200002
 12022                           ;	unspecified, using default values
 12023   200002                     	org	2097154
 12024   200002  FF                 	db	255
 12025                           
 12026                           ;Config register IDLOC3 @ 0x200003
 12027                           ;	unspecified, using default values
 12028   200003                     	org	2097155
 12029   200003  FF                 	db	255
 12030                           
 12031                           ;Config register IDLOC4 @ 0x200004
 12032                           ;	unspecified, using default values
 12033   200004                     	org	2097156
 12034   200004  FF                 	db	255
 12035                           
 12036                           ;Config register IDLOC5 @ 0x200005
 12037                           ;	unspecified, using default values
 12038   200005                     	org	2097157
 12039   200005  FF                 	db	255
 12040                           
 12041                           ;Config register IDLOC6 @ 0x200006
 12042                           ;	unspecified, using default values
 12043   200006                     	org	2097158
 12044   200006  FF                 	db	255
 12045                           
 12046                           ;Config register IDLOC7 @ 0x200007
 12047                           ;	unspecified, using default values
 12048   200007                     	org	2097159
 12049   200007  FF                 	db	255
 12050                           
 12051                           	psect	config
 12052                           
 12053                           ; Padding undefined space
 12054   300000                     	org	3145728
 12055   300000  FF                 	db	255
 12056                           
 12057                           ;Config register CONFIG1H @ 0x300001
 12058                           ;	Oscillator Selection bits
 12059                           ;	OSC = XT, XT oscillator
 12060                           ;	Fail-Safe Clock Monitor Enable bit
 12061                           ;	FCMEN = OFF, Fail-Safe Clock Monitor disabled
 12062                           ;	Internal/External Oscillator Switchover bit
 12063                           ;	IESO = OFF, Oscillator Switchover mode disabled
 12064   300001                     	org	3145729
 12065   300001  01                 	db	1
 12066                           
 12067                           ;Config register CONFIG2L @ 0x300002
 12068                           ;	Power-up Timer Enable bit
 12069                           ;	PWRT = OFF, PWRT disabled
 12070                           ;	Brown-out Reset Enable bits
 12071                           ;	BOREN = SBORDIS, Brown-out Reset enabled in hardware only (SBOREN is disabled)
 12072                           ;	Brown Out Reset Voltage bits
 12073                           ;	BORV = 3, Minimum setting
 12074   300002                     	org	3145730
 12075   300002  1F                 	db	31
 12076                           
 12077                           ;Config register CONFIG2H @ 0x300003
 12078                           ;	Watchdog Timer Enable bit
 12079                           ;	WDT = ON, WDT enabled
 12080                           ;	Watchdog Timer Postscale Select bits
 12081                           ;	WDTPS = 32768, 1:32768
 12082   300003                     	org	3145731
 12083   300003  1F                 	db	31
 12084                           
 12085                           ; Padding undefined space
 12086   300004                     	org	3145732
 12087   300004  FF                 	db	255
 12088                           
 12089                           ;Config register CONFIG3H @ 0x300005
 12090                           ;	CCP2 MUX bit
 12091                           ;	CCP2MX = PORTC, CCP2 input/output is multiplexed with RC1
 12092                           ;	PORTB A/D Enable bit
 12093                           ;	PBADEN = ON, PORTB<4:0> pins are configured as analog input channels on Reset
 12094                           ;	Low-Power Timer1 Oscillator Enable bit
 12095                           ;	LPT1OSC = OFF, Timer1 configured for higher power operation
 12096                           ;	MCLR Pin Enable bit
 12097                           ;	MCLRE = ON, MCLR pin enabled; RE3 input pin disabled
 12098   300005                     	org	3145733
 12099   300005  83                 	db	131
 12100                           
 12101                           ;Config register CONFIG4L @ 0x300006
 12102                           ;	Stack Full/Underflow Reset Enable bit
 12103                           ;	STVREN = ON, Stack full/underflow will cause Reset
 12104                           ;	Single-Supply ICSP Enable bit
 12105                           ;	LVP = ON, Single-Supply ICSP enabled
 12106                           ;	Extended Instruction Set Enable bit
 12107                           ;	XINST = OFF, Instruction set extension and Indexed Addressing mode disabled (Legacy mo
      +                          de)
 12108                           ;	Background Debugger Enable bit
 12109                           ;	DEBUG = 0x1, unprogrammed default
 12110   300006                     	org	3145734
 12111   300006  85                 	db	133
 12112                           
 12113                           ; Padding undefined space
 12114   300007                     	org	3145735
 12115   300007  FF                 	db	255
 12116                           
 12117                           ;Config register CONFIG5L @ 0x300008
 12118                           ;	Code Protection bit
 12119                           ;	CP0 = OFF, Block 0 (000800-003FFFh) not code-protected
 12120                           ;	Code Protection bit
 12121                           ;	CP1 = OFF, Block 1 (004000-007FFFh) not code-protected
 12122                           ;	Code Protection bit
 12123                           ;	CP2 = OFF, Block 2 (008000-00BFFFh) not code-protected
 12124                           ;	Code Protection bit
 12125                           ;	CP3 = OFF, Block 3 (00C000-00FFFFh) not code-protected
 12126   300008                     	org	3145736
 12127   300008  0F                 	db	15
 12128                           
 12129                           ;Config register CONFIG5H @ 0x300009
 12130                           ;	Boot Block Code Protection bit
 12131                           ;	CPB = OFF, Boot block (000000-0007FFh) not code-protected
 12132                           ;	Data EEPROM Code Protection bit
 12133                           ;	CPD = OFF, Data EEPROM not code-protected
 12134   300009                     	org	3145737
 12135   300009  C0                 	db	192
 12136                           
 12137                           ;Config register CONFIG6L @ 0x30000A
 12138                           ;	Write Protection bit
 12139                           ;	WRT0 = OFF, Block 0 (000800-003FFFh) not write-protected
 12140                           ;	Write Protection bit
 12141                           ;	WRT1 = OFF, Block 1 (004000-007FFFh) not write-protected
 12142                           ;	Write Protection bit
 12143                           ;	WRT2 = OFF, Block 2 (008000-00BFFFh) not write-protected
 12144                           ;	Write Protection bit
 12145                           ;	WRT3 = OFF, Block 3 (00C000-00FFFFh) not write-protected
 12146   30000A                     	org	3145738
 12147   30000A  0F                 	db	15
 12148                           
 12149                           ;Config register CONFIG6H @ 0x30000B
 12150                           ;	Configuration Register Write Protection bit
 12151                           ;	WRTC = OFF, Configuration registers (300000-3000FFh) not write-protected
 12152                           ;	Boot Block Write Protection bit
 12153                           ;	WRTB = OFF, Boot Block (000000-0007FFh) not write-protected
 12154                           ;	Data EEPROM Write Protection bit
 12155                           ;	WRTD = OFF, Data EEPROM not write-protected
 12156   30000B                     	org	3145739
 12157   30000B  E0                 	db	224
 12158                           
 12159                           ;Config register CONFIG7L @ 0x30000C
 12160                           ;	Table Read Protection bit
 12161                           ;	EBTR0 = OFF, Block 0 (000800-003FFFh) not protected from table reads executed in other
      +                           blocks
 12162                           ;	Table Read Protection bit
 12163                           ;	EBTR1 = OFF, Block 1 (004000-007FFFh) not protected from table reads executed in other
      +                           blocks
 12164                           ;	Table Read Protection bit
 12165                           ;	EBTR2 = OFF, Block 2 (008000-00BFFFh) not protected from table reads executed in other
      +                           blocks
 12166                           ;	Table Read Protection bit
 12167                           ;	EBTR3 = OFF, Block 3 (00C000-00FFFFh) not protected from table reads executed in other
      +                           blocks
 12168   30000C                     	org	3145740
 12169   30000C  0F                 	db	15
 12170                           
 12171                           ;Config register CONFIG7H @ 0x30000D
 12172                           ;	Boot Block Table Read Protection bit
 12173                           ;	EBTRB = OFF, Boot Block (000000-0007FFh) not protected from table reads executed in ot
      +                          her blocks
 12174   30000D                     	org	3145741
 12175   30000D  40                 	db	64
 12176                           tosu	equ	0xFFF
 12177                           tosh	equ	0xFFE
 12178                           tosl	equ	0xFFD
 12179                           stkptr	equ	0xFFC
 12180                           pclatu	equ	0xFFB
 12181                           pclath	equ	0xFFA
 12182                           pcl	equ	0xFF9
 12183                           tblptru	equ	0xFF8
 12184                           tblptrh	equ	0xFF7
 12185                           tblptrl	equ	0xFF6
 12186                           tablat	equ	0xFF5
 12187                           prodh	equ	0xFF4
 12188                           prodl	equ	0xFF3
 12189                           indf0	equ	0xFEF
 12190                           postinc0	equ	0xFEE
 12191                           postdec0	equ	0xFED
 12192                           preinc0	equ	0xFEC
 12193                           plusw0	equ	0xFEB
 12194                           fsr0h	equ	0xFEA
 12195                           fsr0l	equ	0xFE9
 12196                           wreg	equ	0xFE8
 12197                           indf1	equ	0xFE7
 12198                           postinc1	equ	0xFE6
 12199                           postdec1	equ	0xFE5
 12200                           preinc1	equ	0xFE4
 12201                           plusw1	equ	0xFE3
 12202                           fsr1h	equ	0xFE2
 12203                           fsr1l	equ	0xFE1
 12204                           bsr	equ	0xFE0
 12205                           indf2	equ	0xFDF
 12206                           postinc2	equ	0xFDE
 12207                           postdec2	equ	0xFDD
 12208                           preinc2	equ	0xFDC
 12209                           plusw2	equ	0xFDB
 12210                           fsr2h	equ	0xFDA
 12211                           fsr2l	equ	0xFD9
 12212                           status	equ	0xFD8

Data Sizes:
    Strings     72
    Constant    0
    Data        11
    BSS         143
    Persistent  0
    Stack       0

Auto Spaces:
    Space          Size  Autos    Used
    COMRAM          126     51      89
    BANK0           128    112     120
    BANK1           256    102     210
    BANK2           256      0       0
    BANK3           256      0       0
    BANK4           256      0       0
    BANK5           256      0       0
    BANK6           256      0       0
    BANK7           256      0       0
    BANK8           256      0       0
    BANK9           256      0       0
    BANK10          256      0       0
    BANK11          256      0       0
    BANK12          256      0       0
    BANK13          256      0       0
    BANK14          256      0       0
    BANK15          128      0       0

Pointer List with Targets:

    strncmp@_r	PTR const unsigned char  size(2) Largest target is 4
		 -> STR_20(CODE[4]), 

    strncmp@r	PTR const unsigned char  size(2) Largest target is 4
		 -> STR_20(CODE[4]), 

    strncmp@_l	PTR const unsigned char  size(2) Largest target is 11
		 -> STR_11(CODE[5]), STR_3(CODE[6]), STR_2(CODE[11]), STR_1(CODE[11]), 

    strncmp@l	PTR const unsigned char  size(2) Largest target is 11
		 -> STR_11(CODE[5]), STR_3(CODE[6]), STR_2(CODE[11]), STR_1(CODE[11]), 

    strlen@s	PTR const unsigned char  size(2) Largest target is 7
		 -> stoa@nuls(BANK0[7]), ?_sprintf(BANK0[2]), STR_10(CODE[5]), STR_9(CODE[5]), 
		 -> STR_8(CODE[5]), STR_7(CODE[6]), STR_6(CODE[4]), STR_5(CODE[6]), 
		 -> STR_4(CODE[4]), voltage(BANK1[4]), 

    strlen@a	PTR const unsigned char  size(2) Largest target is 7
		 -> stoa@nuls(BANK0[7]), ?_sprintf(BANK0[2]), STR_10(CODE[5]), STR_9(CODE[5]), 
		 -> STR_8(CODE[5]), STR_7(CODE[6]), STR_6(CODE[4]), STR_5(CODE[6]), 
		 -> STR_4(CODE[4]), voltage(BANK1[4]), 

    strcpy@dest	PTR unsigned char  size(2) Largest target is 80
		 -> dbuf(BANK1[80]), 

    strcpy@d	PTR unsigned char  size(2) Largest target is 80
		 -> dbuf(BANK1[80]), 

    strcpy@src	PTR const unsigned char  size(2) Largest target is 4
		 -> STR_15(CODE[4]), STR_12(CODE[4]), 

    strcpy@s	PTR const unsigned char  size(2) Largest target is 4
		 -> STR_15(CODE[4]), STR_12(CODE[4]), 

    fputs@s	PTR const unsigned char  size(2) Largest target is 80
		 -> dbuf(BANK1[80]), 

    fputs@fp	PTR struct _IO_FILE size(2) Largest target is 12
		 -> sprintf@f(BANK1[12]), 

    fputc@fp...source	PTR const unsigned char  size(2) Largest target is 0

    fputc@fp...buffer	PTR unsigned char  size(2) Largest target is 0

    fputc@fp	PTR struct _IO_FILE size(2) Largest target is 12
		 -> sprintf@f(BANK1[12]), 

    memcpy@d1	PTR void  size(2) Largest target is 80
		 -> dbuf(BANK1[80]), 

    memcpy@d	PTR unsigned char  size(2) Largest target is 80
		 -> dbuf(BANK1[80]), 

    memcpy@s1	PTR const void  size(2) Largest target is 80
		 -> dbuf(BANK1[80]), 

    memcpy@s	PTR const unsigned char  size(2) Largest target is 80
		 -> dbuf(BANK1[80]), 

    vfprintf@ap	PTR PTR void  size(2) Largest target is 2
		 -> sprintf@ap(BANK1[2]), 

    vfprintf@fp	PTR struct _IO_FILE size(2) Largest target is 12
		 -> sprintf@f(BANK1[12]), 

    vfprintf@fmt	PTR const unsigned char  size(2) Largest target is 11
		 -> STR_11(CODE[5]), STR_3(CODE[6]), STR_2(CODE[11]), STR_1(CODE[11]), 

    vfprintf@cfmt	PTR unsigned char  size(2) Largest target is 11
		 -> STR_11(CODE[5]), STR_3(CODE[6]), STR_2(CODE[11]), STR_1(CODE[11]), 

    vfpfcnvrt@fp	PTR struct _IO_FILE size(2) Largest target is 12
		 -> sprintf@f(BANK1[12]), 

    vfpfcnvrt@cp	PTR unsigned char  size(2) Largest target is 11
		 -> STR_11(CODE[5]), STR_3(CODE[6]), STR_2(CODE[11]), STR_1(CODE[11]), 

    vfpfcnvrt@ap	PTR PTR void  size(2) Largest target is 2
		 -> sprintf@ap(BANK1[2]), 

    vfpfcnvrt@fmt	PTR PTR unsigned char  size(2) Largest target is 2
		 -> vfprintf@cfmt(BANK0[2]), 

    S1776$vp	PTR void  size(2) Largest target is 0

    convarg.vp	PTR void  size(2) Largest target is 0

    read_prec_or_width@ap	PTR PTR void [1] size(2) Largest target is 2
		 -> sprintf@ap(BANK1[2]), 

    read_prec_or_width@fmt	PTR PTR const unsigned char  size(2) Largest target is 2
		 -> vfprintf@cfmt(BANK0[2]), 

    stoa@fp	PTR struct _IO_FILE size(2) Largest target is 12
		 -> sprintf@f(BANK1[12]), 

    stoa@s	PTR unsigned char  size(2) Largest target is 2
		 -> ?_sprintf(BANK0[2]), STR_10(CODE[5]), STR_9(CODE[5]), STR_8(CODE[5]), 
		 -> STR_7(CODE[6]), STR_6(CODE[4]), STR_5(CODE[6]), STR_4(CODE[4]), 
		 -> voltage(BANK1[4]), 

    stoa@cp	PTR unsigned char  size(2) Largest target is 7
		 -> stoa@nuls(BANK0[7]), ?_sprintf(BANK0[2]), STR_10(CODE[5]), STR_9(CODE[5]), 
		 -> STR_8(CODE[5]), STR_7(CODE[6]), STR_6(CODE[4]), STR_5(CODE[6]), 
		 -> STR_4(CODE[4]), voltage(BANK1[4]), 

    sp__memcpy	PTR void  size(2) Largest target is 80
		 -> dbuf(BANK1[80]), 

    efgtoa@fp	PTR struct _IO_FILE size(2) Largest target is 12
		 -> sprintf@f(BANK1[12]), 

    sp__strcpy	PTR unsigned char  size(2) Largest target is 80
		 -> dbuf(BANK1[80]), 

    dtoa@fp	PTR struct _IO_FILE size(2) Largest target is 12
		 -> sprintf@f(BANK1[12]), 

    pad@fp	PTR struct _IO_FILE size(2) Largest target is 12
		 -> sprintf@f(BANK1[12]), 

    pad@buf	PTR unsigned char  size(2) Largest target is 80
		 -> dbuf(BANK1[80]), 

    sprintf@fmt	PTR const unsigned char  size(2) Largest target is 11
		 -> STR_11(CODE[5]), STR_3(CODE[6]), STR_2(CODE[11]), STR_1(CODE[11]), 

    sprintf@s	PTR unsigned char  size(2) Largest target is 32
		 -> main@Buffer(BANK1[32]), 

    sprintf@ap	PTR void [1] size(2) Largest target is 2
		 -> ?_sprintf(BANK0[2]), 

    S1681$source	PTR const unsigned char  size(2) Largest target is 0

    f...source	PTR const unsigned char  size(2) Largest target is 0

    S1681$buffer	PTR unsigned char  size(2) Largest target is 0

    f...buffer	PTR unsigned char  size(2) Largest target is 0

    lcd_puts@s	PTR unsigned char  size(2) Largest target is 32
		 -> main@Buffer(BANK1[32]), 

    main$742	PTR const unsigned char  size(2) Largest target is 5
		 -> STR_10(CODE[5]), STR_9(CODE[5]), 

    main$741	PTR const unsigned char  size(2) Largest target is 5
		 -> STR_10(CODE[5]), STR_9(CODE[5]), STR_8(CODE[5]), 

    main$740	PTR const unsigned char  size(2) Largest target is 6
		 -> STR_10(CODE[5]), STR_9(CODE[5]), STR_8(CODE[5]), STR_7(CODE[6]), 

    main$739	PTR const unsigned char  size(2) Largest target is 6
		 -> STR_10(CODE[5]), STR_9(CODE[5]), STR_8(CODE[5]), STR_7(CODE[6]), 
		 -> STR_6(CODE[4]), 

    main$738	PTR const unsigned char  size(2) Largest target is 6
		 -> STR_10(CODE[5]), STR_9(CODE[5]), STR_8(CODE[5]), STR_7(CODE[6]), 
		 -> STR_6(CODE[4]), STR_5(CODE[6]), 

    main$737	PTR const unsigned char  size(2) Largest target is 6
		 -> STR_10(CODE[5]), STR_9(CODE[5]), STR_8(CODE[5]), STR_7(CODE[6]), 
		 -> STR_6(CODE[4]), STR_5(CODE[6]), STR_4(CODE[4]), 


Critical Paths under _main in COMRAM

    _vfpfcnvrt->_stoa
    _stoa->_fputc
    _read_prec_or_width->___wmul
    _efgtoa->___fpclassifyf
    _efgtoa->_pad
    _dtoa->_pad
    _pad->_fputs
    _fputs->_fputc
    _abs->___awmod
    _read_adc_voltage->___xxtofl
    ___flmul->___xxtofl
    ___fldiv->___xxtofl
    _lcd_puts->_lcd_putc
    _lcd_putc->_lcd_gotoxy
    _lcd_gotoxy->_lcd_send_byte
    _lcd_init->_lcd_send_byte
    _lcd_send_byte->_lcd_send_nibble
    _lcd_send_nibble->_delay_cycles

Critical Paths under _highIsr in COMRAM

    _Timer3_int->i2___flge
    i2___flge->i2___fldiv

Critical Paths under _main in BANK0

    _main->_sprintf
    _sprintf->_vfprintf
    _vfprintf->_vfpfcnvrt
    _vfpfcnvrt->_efgtoa
    _efgtoa->_floorf
    _floorf->___fldiv
    ___flsub->___flmul
    ___flge->___flmul
    _dtoa->_pad
    _pad->_fputs
    _read_adc_voltage->___fldiv
    ___fldiv->___flmul
    _lcd_puts->_lcd_putc
    _lcd_putc->_lcd_gotoxy

Critical Paths under _highIsr in BANK0

    None.

Critical Paths under _main in BANK1

    _main->_sprintf
    _vfpfcnvrt->_efgtoa

Critical Paths under _highIsr in BANK1

    None.

Critical Paths under _main in BANK2

    None.

Critical Paths under _highIsr in BANK2

    None.

Critical Paths under _main in BANK3

    None.

Critical Paths under _highIsr in BANK3

    None.

Critical Paths under _main in BANK4

    None.

Critical Paths under _highIsr in BANK4

    None.

Critical Paths under _main in BANK5

    None.

Critical Paths under _highIsr in BANK5

    None.

Critical Paths under _main in BANK6

    None.

Critical Paths under _highIsr in BANK6

    None.

Critical Paths under _main in BANK7

    None.

Critical Paths under _highIsr in BANK7

    None.

Critical Paths under _main in BANK8

    None.

Critical Paths under _highIsr in BANK8

    None.

Critical Paths under _main in BANK9

    None.

Critical Paths under _highIsr in BANK9

    None.

Critical Paths under _main in BANK10

    None.

Critical Paths under _highIsr in BANK10

    None.

Critical Paths under _main in BANK11

    None.

Critical Paths under _highIsr in BANK11

    None.

Critical Paths under _main in BANK12

    None.

Critical Paths under _highIsr in BANK12

    None.

Critical Paths under _main in BANK13

    None.

Critical Paths under _highIsr in BANK13

    None.

Critical Paths under _main in BANK14

    None.

Critical Paths under _highIsr in BANK14

    None.

Critical Paths under _main in BANK15

    None.

Critical Paths under _highIsr in BANK15

    None.

Call Graph Tables:

 ---------------------------------------------------------------------------------
 (Depth) Function   	        Calls       Base Space   Used Autos Params    Refs
 ---------------------------------------------------------------------------------
 (0) _main                                                44    44      0   78864
                                             58 BANK1     44    44      0
                            ___fladd
                            ___fldiv
                             ___fleq
                            ___flmul
                            ___flsub
                       _initTimers01
                    _init_adc_no_lib
                     _initialization
                         _lcd_gotoxy
                           _lcd_init
                           _lcd_puts
                   _read_adc_voltage
                         _setupPorts
                            _sprintf
 ---------------------------------------------------------------------------------
 (1) _sprintf                                             24    16      8   45842
                                            104 BANK0      8     0      8
                                             44 BANK1     14    14      0
                           _vfprintf
 ---------------------------------------------------------------------------------
 (2) _vfprintf                                             8     2      6   44792
                                             96 BANK0      8     2      6
                          _vfpfcnvrt
 ---------------------------------------------------------------------------------
 (3) _vfpfcnvrt                                           21    15      6   44280
                                             79 BANK0     17    11      6
                               _dtoa
                             _efgtoa
                              _fputc
                 _read_prec_or_width
                               _stoa
                            _strncmp
 ---------------------------------------------------------------------------------
 (4) _strncmp                                             11     5      6     453
                                             37 COMRAM    11     5      6
 ---------------------------------------------------------------------------------
 (4) _stoa                                                22    18      4    2431
                                             46 COMRAM     5     1      4
                                              0 BANK0     17    17      0
                              _fputc
                             _strlen
 ---------------------------------------------------------------------------------
 (5) _strlen                                               4     2      2     220
                                             37 COMRAM     4     2      2
 ---------------------------------------------------------------------------------
 (4) _read_prec_or_width                                   9     5      4    2212
                                             43 COMRAM     6     2      4
                                              0 BANK0      3     3      0
                             ___wmul
 ---------------------------------------------------------------------------------
 (5) ___wmul                                               6     2      4    1592
                                             37 COMRAM     6     2      4
 ---------------------------------------------------------------------------------
 (4) _efgtoa                                              54    47      7   28624
                                             70 BANK0      9     2      7
                                              0 BANK1     44    44      0
                            ___fladd
                            ___fldiv
                             ___fleq
                             ___flge
                            ___flmul
                            ___flneg
                            ___flsub
                            ___fltol
                      ___fpclassifyf
                             _floorf
                               _labs
                             _memcpy
                                _pad
                             _strcpy
 ---------------------------------------------------------------------------------
 (5) _strcpy                                               8     4      4     497
                                             37 COMRAM     8     4      4
 ---------------------------------------------------------------------------------
 (5) _memcpy                                              11     5      6     478
                                             37 COMRAM    11     5      6
 ---------------------------------------------------------------------------------
 (5) _labs                                                 8     4      4     363
                                             37 COMRAM     8     4      4
 ---------------------------------------------------------------------------------
 (5) _floorf                                              20    16      4     669
                                             50 BANK0     20    16      4
                            ___fldiv (ARG)
 ---------------------------------------------------------------------------------
 (5) ___fpclassifyf                                       14    10      4     375
                                             37 COMRAM    14    10      4
 ---------------------------------------------------------------------------------
 (5) ___fltol                                             10     6      4     607
                                             37 COMRAM    10     6      4
 ---------------------------------------------------------------------------------
 (5) ___flsub                                              8     0      8    4367
                                             25 BANK0      8     0      8
                            ___fladd
                            ___flmul (ARG)
 ---------------------------------------------------------------------------------
 (6) ___fladd                                             16     8      8    3622
                                             37 COMRAM    12     4      8
                                              0 BANK0      4     4      0
 ---------------------------------------------------------------------------------
 (5) ___flneg                                              4     0      4     155
                                             37 COMRAM     4     0      4
 ---------------------------------------------------------------------------------
 (5) ___flge                                              12     4      8    1096
                                             25 BANK0     12     4      8
                            ___flmul (ARG)
 ---------------------------------------------------------------------------------
 (5) ___fleq                                              12     4      8    1240
                                             37 COMRAM    12     4      8
 ---------------------------------------------------------------------------------
 (4) _dtoa                                                13     9      4    7620
                                             13 BANK0     13     9      4
                            ___awdiv
                            ___awmod
                                _abs
                                _pad
 ---------------------------------------------------------------------------------
 (5) _pad                                                 11     5      6    4665
                                             50 COMRAM     1     1      0
                                              3 BANK0     10     4      6
                              _fputc
                              _fputs
 ---------------------------------------------------------------------------------
 (6) _fputs                                                7     3      4    1897
                                             46 COMRAM     4     0      4
                                              0 BANK0      3     3      0
                              _fputc
 ---------------------------------------------------------------------------------
 (5) _fputc                                                9     5      4    1397
                                             37 COMRAM     9     5      4
                              _putch
 ---------------------------------------------------------------------------------
 (6) _putch                                                1     1      0       0
 ---------------------------------------------------------------------------------
 (5) _abs                                                  4     2      2     183
                                             43 COMRAM     4     2      2
                            ___awmod (ARG)
 ---------------------------------------------------------------------------------
 (5) ___awmod                                              6     2      4     613
                                             37 COMRAM     6     2      4
 ---------------------------------------------------------------------------------
 (5) ___awdiv                                              8     4      4    1345
                                             37 COMRAM     8     4      4
 ---------------------------------------------------------------------------------
 (1) _setupPorts                                           0     0      0       0
 ---------------------------------------------------------------------------------
 (1) _read_adc_voltage                                    11     7      4    7558
                                             50 BANK0     11     7      4
                            ___fldiv
                            ___flmul
                           ___xxtofl
                _read_adc_raw_no_lib
 ---------------------------------------------------------------------------------
 (2) _read_adc_raw_no_lib                                  7     5      2      45
                                             37 COMRAM     7     5      2
 ---------------------------------------------------------------------------------
 (2) ___xxtofl                                            14    10      4     448
                                             37 COMRAM    14    10      4
 ---------------------------------------------------------------------------------
 (5) ___flmul                                             25    17      8    3773
                                              0 BANK0     25    17      8
                           ___xxtofl (ARG)
 ---------------------------------------------------------------------------------
 (5) ___fldiv                                             25    17      8    3193
                                             25 BANK0     25    17      8
                            ___flmul (ARG)
                           ___xxtofl (ARG)
 ---------------------------------------------------------------------------------
 (1) _lcd_puts                                             2     0      2    4501
                                              4 BANK0      2     0      2
                           _lcd_putc
 ---------------------------------------------------------------------------------
 (2) _lcd_putc                                             3     3      0    4076
                                             50 COMRAM     1     1      0
                                              2 BANK0      2     2      0
                           _delay_ms
                         _lcd_gotoxy
                      _lcd_send_byte
 ---------------------------------------------------------------------------------
 (3) _lcd_gotoxy                                           5     4      1    2017
                                             47 COMRAM     3     2      1
                                              0 BANK0      2     2      0
                      _lcd_send_byte
 ---------------------------------------------------------------------------------
 (1) _lcd_init                                             1     1      0    2263
                                             47 COMRAM     1     1      0
                           _delay_ms
                      _lcd_send_byte
                    _lcd_send_nibble
 ---------------------------------------------------------------------------------
 (3) _lcd_send_byte                                        2     1      1    1459
                                             45 COMRAM     2     1      1
                       _delay_cycles
                           _delay_ms
                    _lcd_send_nibble
 ---------------------------------------------------------------------------------
 (4) _lcd_send_nibble                                      2     2      0      99
                                             43 COMRAM     2     2      0
                       _delay_cycles
 ---------------------------------------------------------------------------------
 (5) _delay_cycles                                         6     6      0      68
                                             37 COMRAM     6     6      0
 ---------------------------------------------------------------------------------
 (4) _delay_ms                                             4     2      2     538
                                             37 COMRAM     4     2      2
 ---------------------------------------------------------------------------------
 (1) _initialization                                       0     0      0       0
 ---------------------------------------------------------------------------------
 (1) _init_adc_no_lib                                      0     0      0       0
 ---------------------------------------------------------------------------------
 (1) _initTimers01                                         0     0      0       0
 ---------------------------------------------------------------------------------
 Estimated maximum stack depth 6
 ---------------------------------------------------------------------------------
 (Depth) Function   	        Calls       Base Space   Used Autos Params    Refs
 ---------------------------------------------------------------------------------
 (9) _highIsr                                              0     0      0    1995
                         _Timer3_int
                       _modeschange1
 ---------------------------------------------------------------------------------
 (10) _modeschange1                                        0     0      0       0
 ---------------------------------------------------------------------------------
 (10) _Timer3_int                                          0     0      0    1995
                       _reloadTimer3
                          i2___fldiv
                           i2___fleq
                           i2___flge
                         i2___xxtofl
                         i2_delay_ms
 ---------------------------------------------------------------------------------
 (11) i2_delay_ms                                          4     2      2      98
                                              0 COMRAM     4     2      2
 ---------------------------------------------------------------------------------
 (11) i2___xxtofl                                         14    10      4     348
                                              0 COMRAM    14    10      4
 ---------------------------------------------------------------------------------
 (11) i2___flge                                           12     4      8     234
                                             25 COMRAM    12     4      8
                          i2___fldiv (ARG)
                         i2___xxtofl (ARG)
 ---------------------------------------------------------------------------------
 (11) i2___fleq                                           12     4      8     142
                                              0 COMRAM    12     4      8
 ---------------------------------------------------------------------------------
 (11) i2___fldiv                                          25    17      8    1173
                                              0 COMRAM    25    17      8
 ---------------------------------------------------------------------------------
 (11) _reloadTimer3                                        0     0      0       0
 ---------------------------------------------------------------------------------
 Estimated maximum stack depth 11
 ---------------------------------------------------------------------------------

 Call Graph Graphs:

 _main (ROOT)
   ___fladd
   ___fldiv
     ___flmul (ARG)
       ___xxtofl (ARG)
     ___xxtofl (ARG)
   ___fleq
   ___flmul
   ___flsub
     ___fladd
     ___flmul (ARG)
   _initTimers01
   _init_adc_no_lib
   _initialization
   _lcd_gotoxy
     _lcd_send_byte
       _delay_cycles
       _delay_ms
       _lcd_send_nibble
         _delay_cycles
   _lcd_init
     _delay_ms
     _lcd_send_byte
     _lcd_send_nibble
   _lcd_puts
     _lcd_putc
       _delay_ms
       _lcd_gotoxy
       _lcd_send_byte
   _read_adc_voltage
     ___fldiv
     ___flmul
     ___xxtofl
     _read_adc_raw_no_lib
   _setupPorts
   _sprintf
     _vfprintf
       _vfpfcnvrt
         _dtoa
           ___awdiv
           ___awmod
           _abs
             ___awmod (ARG)
           _pad
             _fputc
               _putch
             _fputs
               _fputc
         _efgtoa
           ___fladd
           ___fldiv
           ___fleq
           ___flge
             ___flmul (ARG)
           ___flmul
           ___flneg
           ___flsub
           ___fltol
           ___fpclassifyf
           _floorf
             ___fldiv (ARG)
           _labs
           _memcpy
           _pad
           _strcpy
         _fputc
         _read_prec_or_width
           ___wmul
         _stoa
           _fputc
           _strlen
         _strncmp

 _highIsr (ROOT)
   _Timer3_int
     _reloadTimer3
     i2___fldiv
     i2___fleq
     i2___flge
       i2___fldiv (ARG)
       i2___xxtofl (ARG)
     i2___xxtofl
     i2_delay_ms
   _modeschange1

 Address spaces:
Name               Size   Autos  Total    Cost      Usage
BIGRAM             F7F      0       0      49        0.0%
EEDATA             400      0       0       0        0.0%
BITBANK14          100      0       0      33        0.0%
BANK14             100      0       0      34        0.0%
BITBANK13          100      0       0      31        0.0%
BANK13             100      0       0      32        0.0%
BITBANK12          100      0       0      29        0.0%
BANK12             100      0       0      30        0.0%
BITBANK11          100      0       0      27        0.0%
BANK11             100      0       0      28        0.0%
BITBANK10          100      0       0      25        0.0%
BANK10             100      0       0      26        0.0%
BITBANK9           100      0       0      23        0.0%
BANK9              100      0       0      24        0.0%
BITBANK8           100      0       0      21        0.0%
BANK8              100      0       0      22        0.0%
BITBANK7           100      0       0      19        0.0%
BANK7              100      0       0      20        0.0%
BITBANK6           100      0       0      17        0.0%
BANK6              100      0       0      18        0.0%
BITBANK5           100      0       0      15        0.0%
BANK5              100      0       0      16        0.0%
BITBANK4           100      0       0      13        0.0%
BANK4              100      0       0      14        0.0%
BITBANK3           100      0       0      10        0.0%
BANK3              100      0       0      11        0.0%
BITBANK2           100      0       0       8        0.0%
BANK2              100      0       0       9        0.0%
BITBANK1           100      0       0       6        0.0%
BANK1              100     66      D2       7       82.0%
BITBANK15           80      0       0      35        0.0%
BANK15              80      0       0      36        0.0%
BITBANK0            80      0       0       4        0.0%
BANK0               80     70      78       5       93.8%
BITCOMRAM           7E      0       0       0        0.0%
COMRAM              7E     33      59       1       70.6%
BITBIGSFRhl         18      0       0      38        0.0%
BITBIGSFRllhl        D      0       0      47        0.0%
BITBIGSFRhh          D      0       0      37        0.0%
BITBIGSFRllhhhl      9      0       0      44        0.0%
BITBIGSFRlhlhh       8      0       0      41        0.0%
BITBIGSFRlhllh       7      0       0      42        0.0%
BITBIGSFRllhhll      7      0       0      46        0.0%
BITBIGSFRlhhh        4      0       0      39        0.0%
BITBIGSFRlhlll       4      0       0      43        0.0%
BITBIGSFRllhhlh      2      0       0      45        0.0%
BITBIGSFRlhhl        2      0       0      40        0.0%
BITBIGSFRlll         1      0       0      48        0.0%
BIGSFR               0      0       0     200        0.0%
BITSFR               0      0       0     200        0.0%
SFR                  0      0       0     200        0.0%
STACK                0      0       0       2        0.0%
NULL                 0      0       0       0        0.0%
ABS                  0      0     1A3      12        0.0%
DATA                 0      0     1A3       3        0.0%
CODE                 0      0       0       0        0.0%


Microchip Technology PIC18 Macro Assembler V2.41 build 20230208172133 
Symbol Table                                                                                   Sun May 21 11:44:16 2023

           ?_read_adc_voltage 00B2                             _H 0046                  ___fldiv@aexp 00B1  
                ___fldiv@bexp 00B0                             _t 016A                  ___fldiv@sign 00A9  
          ??_read_adc_voltage 0034                            l73 4E4A                            l76 4DD0  
                          l79 4E86                            _a0 003C                            _a1 00F4  
              ?_lcd_send_byte 002E                            _p1 016E                  ___awdiv@sign 002B  
                          _sp 0166           ___wmul@multiplicand 0028                           l220 4CA8  
                         l213 4D58                           l222 4CD2                           l230 4A52  
                         l216 4D6E                           l225 4E6C                           l331 4BEC  
                         l340 4E26                           l237 4940                           l261 4D3C  
                         l173 29F0                           l246 4862                           l334 4C18  
                         l255 47E4                           l183 2AC8                           l191 2AA0  
                         l328 4E92                           l337 4764                           l169 27A0  
                         l610 3D42                           l187 2AB4                           l195 2A8C  
                         l605 3CFC                           l614 4D0A                           l199 2A78  
                         l571 4360                           l637 3C3C                           l910 4B8C  
                         l584 44C8                           l922 2EE8                           l924 2D48  
                         l933 2D8E                           l870 1C24                           l935 2E06  
                         l927 2D0C                           l599 4620                           l936 2DF4  
                         l961 21FE                           l954 2008                           l971 232E  
                         l963 2276                           l964 2264                           l868 1C70  
                         l885 1D8A                           l877 1F40                           l869 1C5E  
                         l958 236C                           l894 1E5A                           l895 1E48  
                         l995 34F0                           l998 364C                           _abs 4C5A  
                         _lcd 0F83                           _pad 44CA                   i2___fldiv@a 0005  
                 i2___fldiv@b 0001                  ___awmod@sign 002B                    i2___xxtofl 364E  
   read_adc_voltage@raw_value 00BB                           wreg 0FE8                  ___flmul@aexp 008D  
                ___flmul@bexp 0092                    i2_delay_ms 4D70                  ___flmul@sign 008C  
                ___flmul@temp 0097                  ___flmul@prod 0093                   lcd_gotoxy@x 0080  
                 lcd_gotoxy@y 0030                  ___fltol@exp1 002F                          l1002 3588  
                        l1200 4AA4                          l1009 35E4                          l1210 3F44  
                        l1018 49FE                          l1123 183E                          ?_abs 002C  
                        l1060 4576                          l1140 388E                          l1215 4C90  
                        l1055 4510                          l1224 3498                          l1065 39E6  
                        l1218 4C98                          l1058 4554                          l1090 1A7E  
                        l1162 41D2                          l1154 399C                          l1138 3886  
                        l1067 39EE                          l1227 33DC                          l1235 4996  
                        l1171 278A                          l1068 3A34                          l1244 4B44  
                        l1093 13E4                          l1149 3952                          l1238 49A6  
                        l1158 41CA                          l1079 3B36                          l1095 1224  
                        l1256 429C                          l1264 4BD4                          l1273 4C58  
                        l1267 4EAA                          l1283 4108                          l1279 4AF4  
                        l5000 4E32                          l5010 4E44                          l5002 4E3C  
                        l5012 4E46                          l5004 4E3E                          l5020 4DAE  
                        l5014 4E48                          l5006 4E40                          l5030 4DB8  
                        l5022 4DB0                          l5008 4E42                          l5040 4DC6  
                        l5032 4DBA                          l5024 4DB2                          l5016 4DA2  
                        l6000 4358                          l5042 4DC8                          l5034 4DBC  
                        l5026 4DB4                          l5018 4DA6                          l5050 4E6E  
                        l6010 4434                          l5044 4DCA                          l5036 4DBE  
                        l5028 4DB6                          l5052 4E76                          l6020 4468  
                        l6012 4438                          l6004 441A                          l6100 3BA2  
                        l5046 4DCC                          l5038 4DC4                          l5054 4E7C  
                        l6030 44A2                          l6022 4470                          l6014 4446  
                        l6006 441E                          l6110 3BD2                          l6102 3BB0  
                        l5136 4E88                          l5048 4DCE                          l6024 447E  
                        l6032 44A8                          l6016 444E                          l6008 442C  
                        l6040 4578                          l6120 3BFC                          l6112 3BDC  
                        l6200 343C                          l5138 4E8C                          l6034 44B8  
                        l6026 4494                          l6018 4460                          l6130 44CA  
                        l6050 4618                          l6042 45A6                          l6122 3C0C  
                        l6202 3450                          l6210 4AF6                          l4530 4056  
                        l4700 4BEA                          l6036 44C0                          l6028 449C  
                        l6140 451C                          l6132 44D8                          l6052 461E  
                        l6044 45B6                          l6060 3C7E                          l5500 1B82  
                        l6124 3C1C                          l6108 3BC8                          l6204 3478  
                        l6212 4B0A                          l6220 4B2A                          l6300 104A  
                        l4540 40A8                          l4710 34AC                          l4702 4BFA  
                        l6150 4C74                          l6142 4530                          l6134 44EC  
                        l6046 45E4                          l6070 3CEA                          l6062 3CAC  
                        l5510 1B96                          l5502 1B86                          l6126 3C2C  
                        l6118 3BF0                          l6206 3488                          l6214 4B16  
                        l6310 1096                          l6302 1050                          l6222 4AA6  
                        l4542 40BA                          l4534 4062                          ?_pad 0083  
                        l6240 4A1A                          l6232 4A02                          l4720 352A  
                        l4712 34BA                          l4704 4C10                          l5440 4202  
                        l6144 4536                          l6136 44FC                          l6048 45F4  
                        l6072 3D3A                          l6064 3CBC                          l6056 3C3E  
                        l6080 4CEA                          l5600 1DDC                          l5520 1BAA  
                        l5512 1B9A                          l5504 1B8A                          l6160 3EDA  
                        l6152 3E48                          l6216 4B1A                          l6400 1430  
                        l6320 10D4                          l6312 10A0                          l6304 1060  
                        l6224 4AB2                          l4544 40E4                          l4536 4070  
                        l4528 402C                          l5450 4CAA                          l6242 4A22  
                        l6234 4A0C                          l4730 357E                          l4722 3532  
                        l4714 3500                          l5442 4220                          l5434 41D4  
                        l6146 4562                          l6138 4508                          l6250 399E  
                        l6074 3D40                          l6066 3CCA                          l6058 3C6E  
                        l6082 4CFA                          l5610 1E08                          l5602 1DDE  
                        l5530 1BBE                          l5522 1BAE                          l5514 1B9E  
                        l5506 1B8E                          l6170 3F3C                          l6154 3E68  
                        l6218 4B26                          l6410 1478                          l6402 143E  
                        l6330 111C                          l6322 10DC                          l6314 10A8  
                        l6306 106E                          l6226 4AB6                          l4538 408C  
                        l5452 4CAE                          l6244 4A2A                          l6236 4A12  
                        l7060 482A                          l5700 2B9E                          l4740 35F4  
                        l4732 35BA                          l4724 353E                          l4716 3516  
                        l4708 349C                          l6148 4C5A                          l5444 4256  
                        l5436 41E6                          l6260 39F6                          l6252 39B4  
                        l6068 3CDC                          l5620 1E40                          l5604 1DEC  
                        l5612 1E0A                          l5540 1C1C                          l5524 1BB2  
                        l5516 1BA2                          l5508 1B92                          l5532 1BC2  
                        l5460 1A9E                          l6092 3B62                          l6156 3EA6  
                        l6164 3EE6                          l6180 4960                          l6500 198C  
                        l6420 158E                          l6412 1488                          l6404 1456  
                        l6332 1122                          l6316 10B8                          l6324 10E0  
                        l6308 1072                          l6228 4AE8                          l7052 2606  
                        l6246 4A3A                          l6238 4A18                          l5710 2BD0  
                        l5702 2BA6                          l4750 363C                          l4742 35F8  
                        l4734 35C6                          l4726 3570                          l5438 41F8  
                        l6270 3A30                          l6262 3A06                          l6254 39C4  
                        l6078 4CD4                          l5630 1EBE                          l5606 1DF4  
                        l5614 1E18                          l5550 1C52                          l5542 1C32  
                        l5534 1BC6                          l5526 1BB6                          l5518 1BA6  
                        l5462 1AAE                          l5470 1AD8                          l5454 1A80  
                        l6094 3B8C                          l6086 3B38                          l6166 3EF8  
                        l6158 3ECE                          l6190 331E                          l6182 3284  
                        l6174 4C1A                          l6510 1A12                          l6502 19AA  
                        l6430 1636                          l6414 149C                          l6422 1594  
                        l6406 1468                          l6350 11B0                          l6334 112A  
                        l6326 1106                          l6342 116E                          l6318 10C8  
                        l7054 26C0                          l5448 4C9C                          l6248 4A46  
                        l5800 2E5E                          l5720 2C04                          l5712 2BD2  
                        l5704 2BB6                          l4744 361C                          l4736 35D4  
                        l4728 3572                          l6280 3A86                          l6272 3A3C  
                        l6264 3A0C                          l6256 39CC                          l5640 1F04  
                        l5624 1E6A                          l5632 1EC0                          l5616 1E1C  
                        l5608 1DF8                          l5560 1CA2                          l5552 1C5C  
                        l5544 1C3E                          l5536 1BF0                          l5528 1BBA  
                        l5480 1B08                          l5472 1AE8                          l5464 1ABE  
                        l5456 1A8E                          l6096 3B8E                          l6088 3B4E  
                        l6184 32A4                          l6176 4C2A                          l6512 1A2A  
                        l6504 19B4                          l6440 1716                          l6432 1668  
                        l6424 15B8                          l6416 1500                          l6408 1470  
                        l6352 11B8                          l6344 1194                          l6360 11D4  
                        l6336 1142                          l6328 1118                          l7056 2742  
                        l6600 2392                          l7058 47C6                          l5810 2EC8  
                        l5802 2E78                          l5730 2C4A                          l5714 2BE2  
                        l5722 2C0C                          l5706 2BBC                          l4746 362C  
                        l4738 35F2                          l6290 3AF0                          l6282 3A8C  
                        l6274 3A46                          l6266 3A1C                          l6258 39DA  
                        l5650 1F2E                          l5642 1F12                          l5634 1ED0  
                        l5626 1E76                          l5618 1E2A                          l5570 1CDE  
                        l5562 1CB2                          l5554 1C7E                          l5546 1C42  
                        l5538 1C0C                          l5490 1B48                          l5482 1B16  
                        l5474 1AEE                          l5466 1ACE                          l5458 1A9C  
                        l6098 3B9E                          l6194 3390                          l6186 32FC  
                        l6178 4942                          l6514 1A3A                          l6506 19C2  
                        l6450 177A                          l6442 171C                          l6434 1678  
                        l6426 15EC                          l6418 1558                          l6370 1270  
                        l6362 11EE                          l6346 11A6                          l6338 114C  
                        l6530 3838                          l6522 3802                          l6610 23DA  
                        l6602 23A0                          l5812 2ED6                          l5804 2E8E  
                        l5740 2C72                          l5732 2C4E                          l5724 2C1C  
                        l5716 2BF2                          l5708 2BC2                          l5900 2182  
                        l4748 363A                          l5660 4BAE                          l6292 3B00  
                        l6276 3A4C                          l6284 3AA8                          l6268 3A28  
                        l5652 1F30                          l5644 1F18                          l5636 1EE0  
                        l5628 1E84                          l5580 1D24                          l5572 1CEC  
                        l5564 1CC0                          l5556 1C8E                          l5548 1C50  
                        l5492 1B4A                          l5484 1B18                          l5476 1B00  
                        l5468 1AD0                          l6196 33CC                          l6188 3310  
                        l6516 1A50                          l6508 1A04                          l6460 1814  
                        l6452 1782                          l6444 1752                          l6436 1688  
                        l6428 1620                          l6380 1368                          l6372 12AE  
                        l6348 11AA                          l6540 38B0                          l6532 384C  
                        l6524 3814                          l6620 2442                          l6612 23E4  
                        l6604 23AC                          l5670 4E4E                          l6710 476C  
                        l5814 2EDC                          l5806 2EA8                          l5750 2CC0  
                        l5726 2C32                          l5718 2C02                          l5910 21FC  
                        l5902 21B8                          l5830 1F60                          l5662 4BB4  
                        l6294 3B06                          l6286 3AC4                          l6278 3A7E  
                        l5646 1F1A                          l5638 1F00                          l5590 1DA0  
                        l5582 1D58                          l5574 1CEE                          l5566 1CCE  
                        l5486 1B28                          l5494 1B52                          l5478 1B02  
                        l6198 3400                          l6518 1A58                          l6470 1872  
                        l6462 1834                          l6454 1788                          l6446 1766  
                        l6438 16BC                          l6390 13FA                          l6382 1370  
                        l6374 12E2                          l6366 1234                          l6550 392A  
                        l6542 38C4                          l6534 3854                          l6526 381C  
                        l6630 24D8                          l6622 245E                          l6614 2408  
                        l6606 23B0                          l5664 4D3E                          l5672 4E5E  
                        l6712 4786                          l6720 47B0                          l5816 2EDE  
                        l5808 2EC4                          l5760 2D0A                          l5752 2CD0  
                        l5744 2C86                          l5728 2C42                          l5736 2C62  
                        l5920 225C                          l5912 220E                          l5904 21C6  
                        l5840 1FA6                          l5832 1F70                          l5824 1F42  
                        l5656 4B8E                          l6296 3B16                          l6288 3AD6  
                        l5648 1F20                          l5592 1DB0                          l5584 1D5A  
                        l5576 1CF8                          l5568 1CDA                          l5496 1B62  
                        l5488 1B38                          l6480 189A                          l6472 1878  
                        l6464 1850                          l6456 1790                          l6448 176A  
                        l6392 1406                          l6376 1320                          l6368 123A  
                        l5680 4E02                          l6560 3978                          l6552 3930  
                        l6544 38CA                          l6536 3864                          l6528 3830  
                        l6640 256E                          l6632 24FC                          l6624 247A  
                        l6616 2416                          l6608 23CC                          l5666 4D4A  
                        l5674 4E64                          l6714 4794                          l5770 2D58  
                        l5762 2D16                          l5754 2CD8                          l5746 2CA0  
                        l5738 2C72                          l5690 2B6A                          l5930 22CA  
                        l5914 221C                          l5906 21E4                          l5850 1FD2  
                        l5842 1FAC                          l5834 1F80                          l5826 1F50  
                        l4698 4BD8                          l5658 4B9C                          l5586 1D6A  
                        l5578 1CFE                          l5498 1B74                          l6490 18CE  
                        l6474 1880                          l6466 185E                          l6482 18A0  
                        l6458 179C                          l6394 1410                          l6378 1334  
                        l6386 13B0                          l5682 4E1E                          l6570 4172  
                        l6562 397E                          l6554 3934                          l6546 38E8  
                        l6650 25D8                          l6642 257E                          l6634 2532  
                        l6626 24C0                          l6618 2432                          l6730 4A7E  
                        l5668 4D54                          l5676 4E66                          l6740 48E6  
                        l6580 47F8                          l6716 47A2                          l6708 4768  
                        l5772 2D6E                          l5780 2D9E                          l5764 2D34  
                        l5756 2CE8                          l5748 2CB0                          l5692 2B6C  
                        l5940 2332                          l5924 2286                          l5932 22CE  
                        l5916 2220                          l5908 21EE                          l5860 2028  
                        l5852 1FE2                          l5844 1FB2                          l5836 1F90  
                        l5828 1F5E                          l5596 1DC4                          l5588 1D7A  
                        l6492 1926                          l6484 18B2                          l6476 1890  
                        l6468 186E                          l6396 1418                          l6388 13EC  
                        l6572 4194                          l6564 410A                          l6548 38F4  
                        l6652 25E0                          l6660 2624                          l6636 2556  
                        l6732 4A9A                          l6900 2A98                          l5678 4E6A  
                        l6750 48FE                          l6582 4802                          l6590 4850  
                        l5782 2DAC                          l5774 2D74                          l5766 2D36  
                        l5758 2CFC                          l5694 2B7C                          l5686 2B4E  
                        l5950 235C                          l5942 2342                          l5934 22E8  
                        l5926 2292                          l5918 222E                          l5870 2068  
                        l5854 1FF2                          l5846 1FC0                          l5838 1F96  
                        l5598 1DCE                          l6494 195C                          l6486 18C4  
                        l6478 1894                          l6398 141E                          l6574 41A2  
                        l6566 4114                          l6558 3964                          l6670 26D6  
                        l6662 2644                          l6654 25E8                          l6638 2564  
                        l6646 25B6                          l6726 4A54                          l6910 2AFA  
                        l6902 2AAC                          l4992 4E28                          l6760 4918  
                        l6752 490E                          l6736 48D6                          l6592 4856  
                        l6584 480C                          l6576 47EA                          l5792 2E16  
                        l5784 2DB0                          l5776 2D7E                          l5768 2D46  
                        l5696 2B8C                          l5688 2B5C                          l5944 2350  
                        l5936 22FC                          l5928 22A0                          l5880 20B2  
                        l5872 2074                          l5864 203C                          l5856 1FF8  
                        l5848 1FC2                          l5960 429E                          l6496 1964  
                        l6488 18C8                          l6568 4138                          l6672 26F6  
                        l6664 2678                          l6680 2750                          l6648 25C6  
                        l6728 4A60                          l6912 2B08                          l6904 2AC0  
                        l6840 279C                          l4994 4E2C                          l6762 492E  
                        l6754 4914                          l6746 48EA                          l6738 48DA  
                        l6578 47EE                          l5794 2E22                          l5786 2DBE  
                        l5778 2D8C                          l5698 2B9C                          l5946 2352  
                        l5938 2316                          l5890 2104                          l5882 20BE  
                        l5874 208C                          l5866 2048                          l5858 2018  
                        l6770 4754                          l5970 42CA                          l5962 42A2  
                        l5954 4B46                          l6498 1968                          l6658 25F0  
                        l6914 2B12                          l6906 2AD4                          l6850 283A  
                        l6842 27A2                          l6834 278C                          l4996 4E2E  
                        l6764 4930                          l6748 48FC                          l6588 4816  
                        l5796 2E30                          l5788 2DEC                          l5948 2358  
                        l5892 2114                          l5884 20CE                          l5876 2098  
                        l5868 2052                          l5980 42F8                          l5972 42D2  
                        l5964 42B0                          l5956 4B58                          l6668 26AC  
                        l6684 2762                          l6780 49CA                          l6916 2B38  
                        l6908 2ADC                          l6860 28A8                          l6852 2844  
                        l6844 27B8                          l6836 2794                          l4998 4E30  
                        l6790 4D1E                          l5798 2E5A                          l5894 2130  
                        l5886 20DA                          l5878 20A4                          l6766 46D0  
                        l5990 4332                          l5982 4300                          l5974 42D6  
                        l5966 42B8                          l6678 2724                          l6598 236E  
                        l6782 49E8                          l6774 49A8                          l6870 291E  
                        l6862 28B6                          l6854 286A                          l6846 27CE  
                        l6838 2798                          l6792 4D24                          l5896 213C  
                        l5888 20EA                          l6768 46E0                          l5992 4334  
                        l5984 430E                          l5976 42DE                          l5968 42BC  
                        l6776 49BA                          l6880 29BA                          l6864 28C4  
                        l6872 2952                          l6856 2878                          l6848 2804  
                        l6786 4D0C                          l5898 2158                          l5994 433A  
                        l5986 4314                          l5978 42F0                          l6778 49C2  
                        l6890 2A40                          l6882 29FA                          l6874 2960  
                        l6866 28D8                          l6858 2882                          l6788 4D10  
                        l5988 432A                          l5996 4340                          l6892 2A52  
                        l6884 2A0C                          l6876 2974                          l6868 290A  
                        l5998 4350                          l6894 2A64                          l6886 2A1C  
                        l6878 29A6                          l6896 2A70                          l6888 2A2E  
                        l6898 2A84                          STR_1 1001                          STR_2 100C  
                        STR_3 1023                          STR_4 101F                          STR_5 101D  
                        STR_6 1019                          STR_7 1017                          STR_8 1029  
                        STR_9 1033                          u5200 34AC                          u5201 34A8  
                        u5210 34BA                          u5050 4056                          u5211 34B6  
                        u5051 4052                          u5220 3516                          u6100 4256  
                        u5060 408C                          u5221 3512                          u6101 4252  
                        u5061 4088                          u6110 4CD2                          u5230 356C  
                        u5070 40A8                          u6111 4CCE                          u5231 3568  
                        u5071 40A4                          u5240 35B6                          u7000 4350  
                        u6200 1B82                          u6120 1A9C                          u5080 40BA  
                        u5241 35B2                          u7001 434C                          u6201 1B7E  
                        u6121 1A98                          u5081 40B6                          u5250 35D4  
                        u7010 442C                          u6210 1BF0                          u6130 1AAE  
                        u5090 40E4                          u5251 35D0                          u7011 4428  
                        u6211 1BEC                          u6131 1AAA                          u5091 40E0  
                        u5260 35E4                          u7020 4446                          u7100 3C6E  
                        u6300 1CCE                          u6220 1C08                          u6140 1ABE  
                        u5261 35E0                          u7021 4442                          u7101 3C6A  
                        u6301 1CCA                          u6221 1C02                          u6141 1ABA  
                        u5270 35F2                          u5190 4BFA                          u7030 4460  
                        u6070 41E6                          u7110 3CAC                          u6310 1CEC  
                        u6230 1C0A                          u6150 1B00                          u5271 35EE  
                        u5191 4BF6                          u7031 445C                          u6071 41E2  
                        u7111 3CA8                          u6311 1CE8                          u6151 1AFC  
                        u5280 362C                          u7040 447E                          u6080 41F8  
                        u7120 3CCA                          u6400 1E2A                          u6320 1D24  
                        u6240 1C32                          u6160 1B16                          u7200 3BEC  
                        u8000 3916                          u5281 3628                          u7041 447A  
                        u6081 41F4                          u7121 3CC6                          u6401 1E26  
                        u6321 1D20                          u6241 1C2E                          u6161 1B12  
                        u7201 3BE8                          u5290 363A                          u7050 4494  
                        u6090 4220                          u7130 3CEA                          u6410 1E40  
                        u6330 1D6A                          u6250 1C50                          u6170 1B28  
                        u7210 3C0C                          u8010 3952                          u5291 3636  
                        u7051 4490                          u6091 421C                          u7131 3CE6  
                        u6411 1E3C                          u6331 1D66                          u6251 1C4C  
                        u6171 1B24                          u7211 3C08                          u8011 394E  
                        u7060 44B8                          u7140 3D3A                          u6500 1F2E  
                        u6420 1E56                          u6340 1DA0                          u6260 1C70  
                        u6180 1B38                          u7220 3C1C                          u7300 3ECE  
                        u8020 3960                          u8100 247A                          u7061 44B4  
                        u7141 3D36                          u6501 1F2A                          u6421 1E52  
                        u6341 1D9C                          u6261 1C6C                          u6181 1B34  
                        u7221 3C18                          u7301 3ECA                          u8021 395C  
                        u8101 2476                          u6510 4BD4                          u7230 44D8  
                        u7070 45A6                          u7150 4CEA                          u6430 1E6A  
                        u6350 1DB0                          u6270 1C7E                          u6190 1B74  
                        u7310 3EF8                          u8030 399C                          u8110 24FC  
                        u6511 4BD0                          u7231 44D4                          u7071 45A2  
                        u7151 4CE6                          u6431 1E66                          u6351 1DAC  
                        u6271 1C7A                          u6191 1B70                          u7311 3EF4  
                        u8031 3998                          u8007 390C                          u8111 24F8  
                        u6520 4D6E                          u6600 2C72                          u7240 44FC  
                        u7080 45E4                          u6440 1E84                          u6360 1DDC  
                        u6280 1C8E                          u7160 3B4E                          u8040 4138  
                        u8120 2532                          u6521 4D6A                          u6601 2C6E  
                        u7241 44F8                          u7081 45E0                          u6441 1E80  
                        u6361 1DD8                          u6281 1C8A                          u7161 3B4A  
                        u8041 4134                          u8121 252E                          u6610 2CE8  
                        u6530 2B6A                          u7250 4554                          u7090 4618  
                        u6450 1EBE                          u6370 1DEC                          u6290 1CC0  
                        u7170 3B82                          u7330 3F32                          u7410 338C  
                        u8050 41CA                          u8130 2556                          u6611 2CE4  
                        u6531 2B66                          u7251 4550                          u7091 4614  
                        u6451 1EBA                          u6371 1DE8                          u6291 1CBC  
                        u7331 3F2C                          u7411 3388                          u8051 41C6  
                        u8131 2552                          u6700 2E02                          u6620 2D0A  
                        u6540 2B7C                          u7260 4562                          u6460 1ED0  
                        u6380 1E08                          u7180 3BB0                          u7340 3F34  
                        u7420 33B0                          u8140 2640                          u8060 2392  
                        u8300 2974                          u6701 2DFE                          u6621 2D06  
                        u6541 2B78                          u7261 455E                          u6461 1ECC  
                        u6381 1E04                          u7181 3BAC                          u7325 3F0A  
                        u7405 3332                          u8141 263C                          u8061 238E  
                        u8301 2970                          i2l70 4E9C                          u7510 4A3A  
                        u6710 2E16                          u6630 2D34                          u6550 2B8C  
                        u7270 4C74                          u6470 1EE0                          u6390 1E18  
                        u7190 3BC4                          u7430 33CC                          u7406 333C  
                        u7350 4C58                          u8070 23DA                          u8150 4A9A  
                        u8310 29A6                          u7511 4A36                          u6711 2E12  
                        u6631 2D30                          u6551 2B88                          u7271 4C70  
                        u6471 1EDC                          u6391 1E14                          u7191 3BC0  
                        u7175 3B78                          u7431 33C8                          u7407 334C  
                        u7351 4C54                          u8071 23D6                          u8151 4A96  
                        u8311 29A2                          u8160 490E                          u6720 2E30  
                        u6640 2D58                          u6560 2BD0                          u6800 1FD2  
                        u7600 3AF0                          u7520 39B0                          u6480 1F00  
                        u7280 3E88                          u7440 3420                          u7360 4960  
                        u8080 2408                          u8320 2A0C                          u7505 4A0A  
                        u8161 490A                          u6721 2E2C                          u6641 2D54  
                        u6561 2BCC                          u6801 1FCE                          u7601 3AEC  
                        u7521 39AA                          u6481 1EFC                          u7425 33A6  
                        u7361 495C                          u8081 2404                          u8321 2A08  
                        u7506 4A0C                          u8170 4940                          u6730 2E78  
                        u6650 2D6E                          u6570 2BE2                          u6810 1FE2  
                        u7610 3B00                          u7530 39B2                          u6490 1F12  
                        u7290 3EA6                          u7450 343C                          u7370 32CE  
                        u8090 245E                          u8330 2A1C                          u8171 493C  
                        u6731 2E74                          u6651 2D6A                          u6571 2BDE  
                        u6811 1FDE                          u7611 3AFC                          u6491 1F0E  
                        u7291 3EA2                          u7451 3438                          u8091 245A  
                        u8331 2A18                          u8180 4D3C                          u6740 2EA8  
                        u6660 2D8C                          u6580 2BF2                          u6900 2286  
                        u6820 2018                          u7540 39C4                          u7460 3478  
                        u7380 32FC                          u7700 12AE                          u7620 106E  
                        u8340 2A2E                          u8260 28C4                          u8181 4D38  
                        u6741 2EA4                          u6661 2D88                          u6581 2BEE  
                        u6901 2282                          u6821 2014                          u7541 39C0  
                        u7285 3E7E                          u7461 3474                          u7445 3416  
                        u7381 32F8                          u7701 12AA                          u7621 106A  
                        u8341 2A2A                          u8261 28C0                          u6750 2ED6  
                        u6670 2DAC                          u6590 2C32                          u6910 22A0  
                        u6830 2028                          u7550 39DA                          u7390 331E  
                        u7470 4B44                          u7710 12E2                          u7630 10B8  
                        u8350 2A40                          u8270 28D8                          u6751 2ED2  
                        u6671 2DA8                          u6591 2C2E                          u6911 229C  
                        u6831 2024                          u7551 39D6                          u7391 331A  
                        u7375 32C4                          u7471 4B40                          u7711 12DE  
                        u7631 10B4                          u8351 2A3C                          u8271 28D4  
                        u6680 2DBE                          u6920 22E8                          u6840 21A2  
                        u6760 1F5E                          u7560 3A06                          u7800 1620  
                        u7720 1320                          u7640 10C8                          u7480 4AD8  
                        u8360 2A52                          u8280 290A                          u6681 2DBA  
                        u6921 22E4                          u6761 1F5A                          u7561 3A02  
                        u7801 161C                          u7721 131C                          u7641 10C4  
                        u8361 2A4E                          u8281 2906                          u6690 2DEC  
                        u6930 2316                          u6850 21FC                          u6770 1F70  
                        u7570 3A1C                          u7810 1668                          u7730 13AC  
                        u7650 1106                          u7490 4AE8                          u8370 2A64  
                        u8290 2960                          u6691 2DE8                          u6931 2312  
                        u6851 21F8                          u6771 1F6C                          u7571 3A18  
                        u7811 1664                          u7731 13A8                          u7651 1102  
                        u7491 4AE4                          u8371 2A60                          u8291 295C  
                        u6940 2350                          u6860 221C                          u6780 1F80  
                        u7580 3AC4                          u7900 19AA                          u7820 1678  
                        u7740 13E4                          u7660 1118                          u6941 234C  
                        u6861 2218                          u6845 2198                          u6781 1F7C  
                        u7581 3AC0                          u7901 19A6                          u7821 1674  
                        u7741 13E0                          u7661 1114                          u6870 222E  
                        u6790 1FC0                          u6950 42B0                          u7590 3AD6  
                        u7910 1A24                          u7830 1716                          u7750 13FA  
                        u7670 1194                          u6871 222A                          u6791 1FBC  
                        u6951 42AC                          u7591 3AD2                          u7911 1A1E  
                        u7831 1712                          u7751 13F6                          u7671 1190  
                        u7487 4ACE                          u6880 225C                          u6960 42CA  
                        u7920 1A26                          u7840 1766                          u7760 1430  
                        u7680 11A6                          u6881 2258                          u6961 42C6  
                        u7841 1762                          u7761 142C                          u7681 11A2  
                        u6890 2272                          u6970 42F0                          u7930 1A3A  
                        u7850 1814                          u7770 143E                          u7690 1220  
                        u8387 4A3C                          u6891 226E                          u6971 42EC  
                        u7931 1A36                          u7851 1810                          u7771 143A  
                        u7691 121C                          u6980 430E                          u7860 1850  
                        u7780 1468                          u8397 4D4C                          u6981 430A  
                        u7861 184C                          u7781 1464                          u7941 380C  
                        u6990 432A                          u7870 185E                          u7790 15B8  
                        u7950 3830                          u6991 4326                          u7871 185A  
                        u7791 15B4                          u7951 382C                          u7880 18B2  
                        u7960 3864                          u7881 18AE                          u7961 3860  
                        u7890 198C                          u7970 3882                          u7891 1988  
                        u7971 387E                          u7980 38AC                          u7981 38A8  
                        u7990 38E8                          u7991 38E4              ?_lcd_send_nibble 0001  
                i2___flge@ff1 001A                  i2___flge@ff2 001E                  i2___fleq@ff1 0001  
                i2___fleq@ff2 0005                          abs@a 002C              ??_initialization 0026  
                        _dbuf 0177                          _labs 4942                          _main 278C  
                        _dtoa 399E                          _prec 0042                          _temp 0172  
                        _time 004C                          pad@i 0089                          pad@p 0087  
                        fsr1h 0FE2                          fsr2h 0FDA                          indf1 0FE7  
                        indf2 0FDF                          fsr1l 0FE1                          pad@w 008B  
                        fsr2l 0FD9                          _stoa 3802                          btemp 005A  
               ___fpclassifyf 3E48                          prodh 0FF4                          prodl 0FF3  
                        start 000E               ___fldiv@new_exp 00AA                  ___param_bank 0000  
                       ??_abs 002E                         ??_pad 0033          __end_of_delay_cycles 4CD4  
               ___fltol@sign1 002E                         ?_labs 0026               __end_of___fladd 1F42  
                       ?_main 0001                         ?_dtoa 008D               __end_of___fldiv 2EEA  
             __end_of___awdiv 4362               __end_of___flneg 4D0C                         STR_10 102E  
                       STR_11 1038                         STR_20 1045                         STR_12 103D  
                       STR_15 1041                         STR_18 1045               __end_of___awmod 44CA  
             __end_of___flmul 236E               __end_of___flsub 4B8E               __end_of___fltol 3C3E  
                       ?_stoa 002F                         _T0CON 0FD5               ___awdiv@divisor 0028  
                       i2l131 4418                         i2l213 4D8A                         i2l125 4418  
                       i2l216 4DA0                         i2l136 401E                         i2l161 4DEA  
                       i2l138 402A                         i2l164 4DFE                         i2l610 3E46  
                       i2l605 3E00                         i2l922 3282                         i2l924 30E2  
                       i2l933 3128                         i2l935 31A0                         i2l927 30A6  
                       i2l599 46CA                         i2l936 318E               ___awdiv@counter 002A  
                       i2l995 36A4                         i2l998 3800                         _RCREG 0FAE  
                       _RCSTA 0FAB                  vfpfcnvrt@fmt 00D1                         _TMR0H 0FD7  
                       _TMR0L 0FD6                         _TMR3H 0FB3                         _TMR3L 0FB2  
                       _SPBRG 0FAF       read_adc_voltage@channel 00BA                         _TRISA 0F92  
                       _TRISB 0F93                         _TRISC 0F94                         _TRISD 0F95  
                       _TRISE 0F96                         _TXREG 0FAD                         _TXSTA 0FAC  
             __end_of_highIsr 4E02                         _flags 0054           read_prec_or_width@c 0080  
         read_prec_or_width@n 0081                         _fputc 41D4                         _fputs 4B8E  
                       _modes 0055                         _hours 004E               _init_adc_no_lib 4E88  
               i2___fldiv@grs 0014                 i2___fldiv@rem 000D                         labs@a 0026  
                       _timer 0044                         pad@fp 0083                         _width 0040  
                       _putch 4EAA                         dtoa@d 008F                         dtoa@i 0098  
                       dtoa@p 0093                         dtoa@s 0097                         dtoa@w 0095  
            __end_ofi2___flge 3E48              __end_ofi2___fleq 46CC                         tablat 0FF5  
                       plusw1 0FE3                         plusw2 0FDB                         stoa@i 0087  
                       stoa@l 008F                         stoa@p 008D                         stoa@s 0031  
                       stoa@w 0089                         ttemp5 005B                         ttemp6 005E  
                       ttemp7 0062                         status 0FD8       read_adc_voltage@voltage 00B6  
                       wtemp8 005B               __end_of_sprintf 4A00                ?___fpclassifyf 0026  
             __end_of_strncmp 410A                   i2delay_ms@n 0001                   i2delay_ms@x 0003  
             __initialization 4864                  __end_of_labs 49A8                  __end_of_main 2B4E  
                __end_of_dtoa 3B38               ??_lcd_send_byte 002F                  __end_of_stoa 399E  
                      ??_labs 002A                        ??_main 0034                        ??_dtoa 0034  
                      ??_stoa 0033                 __activetblptr 0002                 ?_initTimers01 0001  
                 ?i2___xxtofl 0001    __end_of_read_prec_or_width 41D4                   ?i2_delay_ms 0001  
                      _ADCON0 0FC2                        _ADCON1 0FC1                        _ADCON2 0FC0  
                      ?_fputc 0026                        ?_fputs 002F                        _ADRESH 0FC4  
                      _ADRESL 0FC3              ___awdiv@dividend 0026                        ?_putch 0001  
                      i2l1002 373C                        i2l1009 3798                        i2l5104 4026  
                      i2l5210 4DE2                        i2l5060 4376                        i2l5212 4DF8  
                      i2l5070 43B0                        i2l5062 437E                        i2l5214 4DFC  
                      i2l2584 4E94                        i2l5080 43F6                        i2l5072 43C2  
                      i2l5064 438E                        i2l5056 4362                        i2l5208 4DD4  
                      i2l5090 3F66                        i2l5082 43FE                        i2l5074 43CA  
                      i2l5066 4396                        i2l5058 4364                        i2l5092 3FD4  
                      i2l5084 4410                        i2l5076 43DC                        i2l5068 43A8  
                      i2l5094 4006                        i2l5086 3F46                        i2l5078 43E4  
                      i2l4800 3DEE                        i2l5096 400A                        i2l5088 3F5A  
                      i2l4810 2EF6                        i2l4802 3E3E                        i2l5098 4016  
                      i2l4900 3126                        i2l4820 2F36                        i2l4812 2F04  
                      i2l4804 3E44                        i2l4910 3186                        i2l4902 3138  
                      i2l4830 2F5C                        i2l4822 2F38                        i2l4814 2F06  
                      i2l4920 31F4                        i2l4904 3146                        i2l4840 2F9C  
                      i2l4832 2F6A                        i2l4816 2F16                        i2l4824 2F40  
                      i2l4808 2EEA                        i2l4930 325E                        i2l4914 31B0  
                      i2l4922 31F8                        i2l4906 314A                        i2l4850 2FDC  
                      i2l4842 2F9E                        i2l4834 2F6C                        i2l4826 2F50  
                      i2l4818 2F26                        i2l4770 4622                        i2l4932 3262  
                      i2l4924 3212                        i2l4916 31BC                        i2l4908 3158  
                      i2l4860 300C                        i2l4852 2FE4                        i2l4836 2F7C  
                      i2l4844 2FA6                        i2l4828 2F56                        i2l4780 46C2  
                      i2l4772 4650                        i2l4764 4D70                        i2l4934 3270  
                      i2l4926 3228                        i2l4918 31CA                        i2l4870 304A  
                      i2l4862 300C                        i2l4854 2FE8                        i2l4846 2FB6  
                      i2l4838 2F8C                        i2l4782 46C8                        i2l4774 4660  
                      i2l4790 3D82                        i2l4950 366E                        i2l4766 4D7C  
                      i2l4936 3276                        i2l4928 3242                        i2l4880 3096  
                      i2l4872 305A                        i2l4848 2FCC                        i2l4776 468E  
                      i2l4792 3DB0                        i2l4960 36E6                        i2l4952 36B4  
                      i2l4768 4D86                        i2l4938 3278                        i2l4890 30E0  
                      i2l4882 30A4                        i2l4874 306A                        i2l4866 3020  
                      i2l4858 2FFC                        i2l4778 469E                        i2l4794 3DC0  
                      i2l4786 3D44                        i2l4970 376E                        i2l4962 36F2  
                      i2l4954 36CA                        i2l4946 3650                        i2l4892 30F2  
                      i2l4884 30B0                        i2l4876 3072                        i2l4868 303A  
                      i2l4796 3DCE                        i2l4788 3D72                        i2l4980 37AC  
                      i2l4972 377A                        i2l4964 3724                        i2l4948 3660  
                      i2l4894 3108                        i2l4886 30CE                        i2l4878 3082  
                      i2l4798 3DE0                        i2l4982 37D0                        i2l4974 3788  
                      i2l4966 3726                        i2l4958 36DE                        i2l4896 310E  
                      i2l4888 30D0                        i2l4984 37E0                        i2l4976 37A6  
                      i2l4968 3732                        i2l4898 3118                        i2l4986 37EE  
                      i2l4978 37A8                        i2l4988 37F0                        _SPBRGH 0FB0  
            __end_of___xxtofl 364E              __end_of_delay_ms 4D70                    _Timer3_int 3F46  
                vfprintf@cfmt 00E6              __end_of_lcd_init 4942                        ___flge 3C3E  
            __end_of_lcd_putc 47E6                        ___fleq 4578              __end_of_lcd_puts 4D3E  
                   ??___fladd 002E                        ___wmul 4E02                     ??___fldiv 00A1  
                   ??___awdiv 002A                     ??___flneg 002A                     ??___awmod 002A  
                   ??___flmul 0088                     ??___flsub 0034                     ??___fltol 002A  
                      _efgtoa 104A                        _heater 004A                        _cooler 0048  
                      _floorf 3284                        _memcpy 4AF6          read_prec_or_width@ap 002E  
                      clear_0 48AA                        clear_1 48B6                        clear_2 48C2  
            ___awdiv@quotient 002C                i2___fldiv@aexp 0019                i2___fldiv@bexp 0018  
             ___awmod@divisor 0028                        isa$std 0001                i2___fldiv@sign 0011  
             ___awmod@counter 002A                        pad@buf 0085                     ??_highIsr 0026  
                      dtoa@fp 008D                        _strcpy 4C1A                        _strlen 4AA6  
              ??_initTimers01 0026       __end_of_init_adc_no_lib 4E94                        fputc@c 0026  
                      fputs@c 0080                        fputs@i 0081                  __pdataCOMRAM 0056  
                      fputs@s 002F             __end_ofi2___fldiv 3284               ___fpclassifyf@e 002E  
             ___fpclassifyf@u 0030               ___fpclassifyf@x 0026                  __mediumconst 0000  
                      tblptrh 0FF7                        tblptrl 0FF6                        tblptru 0FF8  
                      stoa@cp 008B                        stoa@fp 002F                        putch@c 0001  
            __end_of_vfprintf 4AA6                     ??_sprintf 0034                     ??_strncmp 002C  
                  ___flge@ff1 0099               ??___fpclassifyf 002A                    ___flge@ff2 009D  
                ___xxtofl@arg 0030                  ___xxtofl@exp 002F                  ___xxtofl@val 0026  
                  ___fleq@ff1 0026                    ___fleq@ff2 002A                    __accesstop 0080  
     __end_of__initialization 48C8                    ___flneg@f1 0026                 ___rparam_used 0001  
                  ___fltol@f1 0026                 ?_modeschange1 0001                __pcstackCOMRAM 0001  
                __pidataBANK1 4E9E                 __end_of_fputc 429E                 __end_of_fputs 4BD6  
               __end_of_putch 4EAC                     ?i2___flge 001A                     ?i2___fleq 0001  
           lcd_gotoxy@address 0081                       ??_fputc 002A                       ??_fputs 0033  
                     ??_putch 0026                    __pbssBANK0 00F0                    __pbssBANK1 0166  
 __end_of_read_adc_raw_no_lib 4C1A                  _delay_cycles 4C9A                ??_modeschange1 0001  
               ?_reloadTimer3 0001                   ?_Timer3_int 0001                lcd_send_byte@n 002E  
                     ?___flge 0099                       ?___fleq 0026                       ?___wmul 0026  
                     ?_efgtoa 00C6              lcd_send_nibble@n 002D                       ?_floorf 00B2  
                     ?_memcpy 0026                    ??i2___flge 0022                    ??i2___fleq 0009  
                     ?_strcpy 0026                       ?_strlen 0026              ?_init_adc_no_lib 0001  
                     _INTCON2 0FF1                       _INTCON3 0FF0                     ?___xxtofl 0026  
                   ?_delay_ms 0026                    _lcd_gotoxy 47E6                     ?_lcd_init 0001  
                   ?_lcd_putc 0001                     ?_lcd_puts 0084                ??_reloadTimer3 0001  
        __end_of_initTimers01 4E4C                       __Hparam 0000                       __Lparam 0000  
                     ___fladd 1A80                       ___fldiv 2B4E                       ___awdiv 429E  
                     ___flneg 4CD4                       ___awmod 441A                       ___flmul 1F42  
                     ___flsub 4B46                       ___fltol 3B38                     ?_vfprintf 00E0  
                __psmallconst 1000                       __pcinit 4864                       __ramtop 1000  
                     __ptext0 278C                       __ptext1 49A8                       __ptext2 4A54  
                     __ptext3 236E                       __ptext4 402C                       __ptext5 3802  
                     __ptext6 4AA6                       __ptext7 410A                       __ptext8 4E02  
                     __ptext9 104A                       _highIsr 0008                     _T0CONbits 0FD5  
                   _T1CONbits 0FCD         read_prec_or_width@fmt 002C                  ??i2___xxtofl 0005  
                  ??___xxtofl 002A                     _T3CONbits 0FB1              ___awmod@dividend 0026  
                     _minutes 0050                       _seconds 0052                  ??i2_delay_ms 0003  
                  ??_delay_ms 0028                       efgtoa@c 00CC                       efgtoa@d 010B  
                     efgtoa@e 010F                       efgtoa@f 00C8                       efgtoa@g 0122  
                     efgtoa@h 0119                       efgtoa@i 0117                       efgtoa@l 011D  
                     efgtoa@m 010D                       efgtoa@n 0126                       efgtoa@p 0102  
                     efgtoa@t 0104                       efgtoa@u 0128                       efgtoa@w 0111  
                     _sprintf 49A8                    ??_lcd_init 0030                       _voltage 01C7  
                     _strncmp 402C                __pintcode_body 4DD2                    ??_lcd_putc 0082  
                  ??_lcd_puts 0034          end_of_initialization 48C8                       floorf@e 00C0  
                     floorf@m 00BC                       floorf@u 00C2                       floorf@x 00B2  
                     memcpy@d 002D                       memcpy@n 002A                       memcpy@s 002F  
                     fputc@fp 0028                 __Lmediumconst 0000                       int_func 4DD2  
                     fputs@fp 0031          lcd_send_byte@cm_data 002F            _read_prec_or_width 410A  
              i2___xxtofl@arg 000B                i2___xxtofl@exp 000A                i2___xxtofl@val 0001  
           __end_of_vfpfcnvrt 278C                    efgtoa@mode 0109                    efgtoa@sign 0121  
                   _RCSTAbits 0FAB            __end_ofi2___xxtofl 3802                       postdec1 0FE5  
                     postdec2 0FDD           ?_read_prec_or_width 002C                       postinc0 0FEE  
                     postinc1 0FE6                       postinc2 0FDE              vfpfcnvrt@convarg 00D9  
          __end_ofi2_delay_ms 4DA2                    ??_vfprintf 0034         __end_of_lcd_send_byte 4A54  
                     strcpy@d 002C                       strlen@a 0028                       strcpy@s 002A  
                     strlen@s 0026                     _PORTBbits 0F81                     _PORTCbits 0F82  
                   _PORTEbits 0F84                    _setupPorts 4E6E                   ___fladd@grs 0083  
        __end_of_modeschange1 441A                 ___xxtofl@sign 002E              _read_adc_voltage 46CC  
                   _TRISCbits 0F94                   ?_lcd_gotoxy 0030          _Percent_Heat_Counter 0038  
        ??_read_prec_or_width 0030                   ___fldiv@grs 00AC                    main@Buffer 013A  
                 ___fldiv@rem 00A5                     i2___fldiv 2EEA               _LCD_INIT_STRING 0056  
                 ___flmul@grs 008E                     _TXSTAbits 0FAC                __end_of___flge 3D44  
              __end_of___fleq 4622                   vfpfcnvrt@ap 00D3                   vfpfcnvrt@cp 00DE  
                 vfpfcnvrt@fp 00CF                __end_of___wmul 4E28                   _BAUDCONbits 0FB8  
               __pidataCOMRAM 4EA5                __end_of_efgtoa 1A80                 delay_cycles@n 0029  
               delay_cycles@x 002A             ??_lcd_send_nibble 002C                __end_of_floorf 349A  
              __end_of_memcpy 4B46                    floorf@F526 00F0          __end_of_reloadTimer3 4E9E  
              __end_of_strcpy 4C5A                __end_of_strlen 4AF6           start_initialization 4864  
                 __end_of_abs 4C9A                   __end_of_pad 4578                    ?i2___fldiv 0001  
       __end_of___fpclassifyf 3F46                  ??_Timer3_int 0026                   vfprintf@fmt 00E2  
                    ??___flge 00A1                      ??___fleq 002E                      ??___wmul 002A  
                    ??_efgtoa 00CD                   __pdataBANK1 01CB  read_adc_raw_no_lib@raw_value 002A  
                    ??_floorf 00B6                      ??_memcpy 002C                      ??_strcpy 002A  
                    ??_strlen 0028                   ?_setupPorts 0001                     ___fladd@a 002A  
                   ___fladd@b 0026                     ___fldiv@a 009D                     ___fldiv@b 0099  
                _initTimers01 4E28                     ___flmul@a 0084                     ___flmul@b 0080  
                 __pbssCOMRAM 0034                     ___flsub@a 009D                     ___flsub@b 0099  
               __pcstackBANK0 0080                 __pcstackBANK1 0100            __end_of_Timer3_int 402C  
                 _efgtoa$1836 0106                     _dtoa$1805 0091                     __pintcode 0008  
                    ?___fladd 0026                      ?___fldiv 0099                      ?___awdiv 0026  
                    ?___flneg 0026                      ?___awmod 0026                _initialization 4DA2  
                    ?___flmul 0080                      ?___flsub 0099                      ?___fltol 0026  
                    ?_highIsr 0001                   __smallconst 1000                   ??i2___fldiv 0009  
                    ?_sprintf 00E8                      ?_strncmp 0026                ___wmul@product 002A  
                   delay_ms@n 0026                     delay_ms@x 0028                  _modeschange1 4362  
                    _PIR1bits 0F9E                      i2u531_40 4DA0                      i2u531_41 4D9C  
                    _PIR2bits 0FA1                      i2u540_40 2F04                      i2u532_40 4650  
                    i2u540_41 2F00                      i2u532_41 464C        __end_of_initialization 4DD2  
    __end_of_read_adc_voltage 4766                      i2u541_40 2F16                      i2u533_40 468E  
                    i2u541_41 2F12                      i2u533_41 468A                      i2u550_40 30CE  
                    i2u542_40 2F26                      i2u534_40 46C2                      i2u550_41 30CA  
                    i2u542_41 2F22                      i2u534_41 46BE                      i2u551_40 30F2  
                    i2u543_40 2F6A                      i2u535_40 3D72                      i2u551_41 30EE  
                    i2u543_41 2F66                      i2u535_41 3D6E                      i2u560_40 3212  
                    i2u552_40 3108                      i2u544_40 2F7C                      i2u536_40 3DB0  
                    i2u560_41 320E                      i2u552_41 3104                      i2u544_41 2F78  
                    i2u536_41 3DAC                      i2u561_40 3242                      i2u553_40 3126  
                    i2u545_40 2F8C                      i2u537_40 3DCE                      i2u561_41 323E  
                    i2u553_41 3122                      i2u545_41 2F88                      i2u537_41 3DCA  
                    i2u562_40 3270                      i2u554_40 3146                      i2u546_40 2FCC  
                    i2u538_40 3DEE                      i2u570_40 37A6                      i2u562_41 326C  
                    i2u554_41 3142                      i2u546_41 2FC8                      i2u538_41 3DEA  
                    i2u570_41 37A2                      i2u555_40 3158                      i2u547_40 300C  
                    i2u539_40 3E3E                      i2u571_40 37E0                      i2u563_40 3660  
                    i2u555_41 3154                      i2u547_41 3008                      i2u539_41 3E3A  
                    i2u571_41 37DC                      i2u563_41 365C                      i2u556_40 3186  
                    i2u548_40 3082                      i2u572_40 37EE                      i2u564_40 366E  
                    i2u580_40 3F5A                      i2u556_41 3182                      i2u548_41 307E  
                    i2u572_41 37EA                      i2u564_41 366A                      i2u580_41 3F56  
                    i2u557_40 319C                      i2u549_40 30A4                      i2u565_40 36CA  
                    i2u581_40 3FD4                      i2u573_40 4376                      i2u557_41 3198  
                    i2u549_41 30A0                      i2u565_41 36C6                      i2u581_41 3FD0  
                    i2u573_41 4372                      i2u558_40 31B0                      i2u566_40 3720  
                    i2u582_40 4006                      i2u574_40 438E                      i2u558_41 31AC  
                    i2u566_41 371C                      i2u582_41 4002                      i2u574_41 438A  
                    i2u559_40 31CA                      i2u567_40 376A                      i2u575_40 43A8  
                    i2u559_41 31C6                      i2u567_41 3766                      i2u575_41 43A4  
                    i2u568_40 3788                      i2u576_40 43C2                      i2u568_41 3784  
                    i2u576_41 43BE                      i2u840_47 4D7E                      i2u569_40 3798  
                    i2u577_40 43DC                      i2u593_40 4DE2                      i2u569_41 3794  
                    i2u577_41 43D8                      i2u593_41 4DDE                      i2u578_40 43F6  
                    i2u594_40 4DF8                      i2u578_41 43F2                      i2u594_41 4DF4  
                    i2u579_40 4410                      i2u579_41 440C                      _RCONbits 0FD0  
           i2___fldiv@new_exp 0012    read_adc_raw_no_lib@channel 002C                     _vfpfcnvrt 236E  
                  _ADCON0bits 0FC2                      i2___flge 3D44                      i2___fleq 4622  
           ___wmul@multiplier 0026                     lcd_init@i 0030                     lcd_putc@c 0033  
                   lcd_puts@s 0084                  ??_lcd_gotoxy 0031                    vfpfcnvrt@c 00DD  
                 _INTCON2bits 0FF1                   _INTCON3bits 0FF0                     copy_data0 4878  
                   copy_data1 4898               _lcd_send_nibble 4E4C                  _reloadTimer3 4E94  
                    __Hrparam 0000                     memcpy@tmp 002C               ?_initialization 0001  
                  vfprintf@ap 00E4                      __Lrparam 0000                    vfprintf@fp 00E0  
          __end_of_lcd_gotoxy 4864                    ?_vfpfcnvrt 00CF            ___fpclassifyf@F465 0034  
                  sprintf@fmt 00EA                      ___xxtofl 349A                      _main$740 0160  
                    _main$741 0162                      _main$742 0164                      _main$737 015A  
                    _main$738 015C                      _main$739 015E                      _delay_ms 4D3E  
                    __ptext10 4C1A                      __ptext11 4AF6                      __ptext20 4578  
                    __ptext12 4942                      __ptext21 399E                      __ptext13 3284  
                    __ptext30 46CC                      __ptext22 44CA                      __ptext14 3E48  
                    __ptext31 4BD6                      __ptext23 4B8E                      __ptext15 3B38  
                    __ptext40 4E4C                      __ptext32 349A                      __ptext24 41D4  
                    __ptext16 4B46                      __ptext41 4C9A                      __ptext33 1F42  
                    __ptext25 4EAA                      __ptext17 1A80                      __ptext50 364E  
                    __ptext42 4D3E                      __ptext34 2B4E                      __ptext26 4C5A  
                    __ptext18 4CD4                      __ptext51 3D44                      __ptext43 4DA2  
                    __ptext35 4D0C                      __ptext27 441A                      __ptext19 3C3E  
                    __ptext52 4622                      __ptext44 4E88                      __ptext36 4766  
                    __ptext28 429E                      __ptext53 2EEA                      __ptext45 4E28  
                    __ptext37 47E6                      __ptext29 4E6E                      __ptext54 4E94  
                    __ptext38 48D6                      __ptext47 4362                      __ptext39 4A00  
                    __ptext48 3F46                      __ptext49 4D70                      _lcd_init 48D6  
                    _lcd_putc 4766                      _lcd_puts 4D0C                    strcpy@dest 0026  
               ?_delay_cycles 0001             ??_init_adc_no_lib 0026                   _modeschange 0176  
                    efgtoa@fp 00C6                      efgtoa@ne 0100                      efgtoa@pp 0108  
                    efgtoa@ou 0113                     stoa@F1179 01CB                      isa$xinst 0000  
                    int$flags 005A                      _vfprintf 4A54                  ??_setupPorts 0026  
              _vfpfcnvrt$1878 00D7                    _INTCONbits 0FF2                      memcpy@d1 0026  
                    memcpy@s1 0028           _read_adc_raw_no_lib 4BD6                      intlevel2 0000  
                   sprintf@ap 012C       __end_of_lcd_send_nibble 4E6E                ??_delay_cycles 0026  
             i2___xxtofl@sign 0009                     strcpy@src 0028                     strncmp@_l 0026  
                   strncmp@_r 0028            __end_of_setupPorts 4E88          ?_read_adc_raw_no_lib 0026  
                 efgtoa@nmode 010A                   ??_vfpfcnvrt 00D5                      stoa@nuls 0080  
               _lcd_send_byte 4A00                      sprintf@f 012E                      sprintf@s 00E8  
                    strncmp@l 002D                      strncmp@n 002A                      strncmp@r 002F  
               ___fladd@signs 0080                  ___fladd@aexp 0081                  ___fladd@bexp 0082  
       ??_read_adc_raw_no_lib 0028  
